Component: ARM Compiler 5.06 update 6 (build 750) Tool: armlink [4d35ed]

==============================================================================

Section Cross References

    main.o(i._Z14Button_Runningv) refers to button.o(i._ZN3HAL11Button_ScanEv) for HAL::Button_Scan()
    main.o(i._Z19HAL_InterrputUpdatev) refers to button.o(i._ZN3HAL11Button_ScanEv) for HAL::Button_Scan()
    main.o(i._Z19HAL_InterrputUpdatev) refers to app_music.o(i._ZN3APP12Audio_UpdateEv) for APP::Audio_Update()
    main.o(i._Z4loopv) refers to display.o(i._ZN7Display7RunningEv) for Display::Running()
    main.o(i._Z5setupv) refers to sdfatfs.o(i._ZN3HAL12SDfatfs_InitEv) for HAL::SDfatfs_Init()
    main.o(i._Z5setupv) refers to button.o(i._ZN3HAL11Button_InitEv) for HAL::Button_Init()
    main.o(i._Z5setupv) refers to app_music.o(i._ZN3APP9Buzz_initEv) for APP::Buzz_init()
    main.o(i._Z5setupv) refers to app_music.o(i._ZN3APP10Audio_InitEv) for APP::Audio_Init()
    main.o(i._Z5setupv) refers to timer.o(i.Timer_SetInterrupt) for Timer_SetInterrupt
    main.o(i._Z5setupv) refers to stm32f4xx_tim.o(i.TIM_Cmd) for TIM_Cmd
    main.o(i._Z5setupv) refers to display.o(i._ZN7Display12Display_InitEv) for Display::Display_Init()
    main.o(i._Z5setupv) refers to app_music.o(i._ZN3APP15Audio_PlayMusicEPKc) for APP::Audio_PlayMusic(const char*)
    main.o(i._Z5setupv) refers to main.o(i._Z19HAL_InterrputUpdatev) for HAL_InterrputUpdate()
    main.o(i.__sti___8_main_cpp_0040b0e8) refers to millistaskmanager.o(i._ZN17MillisTaskManagerC1Eb) for MillisTaskManager::MillisTaskManager(bool)
    main.o(i.__sti___8_main_cpp_0040b0e8) refers to aeabi_atexit.o(.text) for __aeabi_atexit
    main.o(i.__sti___8_main_cpp_0040b0e8) refers to main.o(.bss) for .bss
    main.o(i.__sti___8_main_cpp_0040b0e8) refers to millistaskmanager.o(i._ZN17MillisTaskManagerD1Ev) for MillisTaskManager::~MillisTaskManager()
    main.o(i.main) refers to misc.o(i.NVIC_PriorityGroupConfig) for NVIC_PriorityGroupConfig
    main.o(i.main) refers to delay.o(i.Delay_Init) for Delay_Init
    main.o(i.main) refers to hardwareserial.o(i._ZN14HardwareSerial5beginEj) for HardwareSerial::begin(unsigned)
    main.o(i.main) refers to main.o(i._Z5setupv) for setup()
    main.o(i.main) refers to display.o(i._ZN7Display7RunningEv) for Display::Running()
    main.o(i.main) refers to hardwareserial.o(.bss) for Serial
    main.o(.ARM.exidx) refers to main.o(i._Z14Button_Runningv) for i._Z14Button_Runningv
    main.o(.ARM.exidx) refers to main.o(i._Z19HAL_InterrputUpdatev) for i._Z19HAL_InterrputUpdatev
    main.o(.ARM.exidx) refers to main.o(i._Z5setupv) for i._Z5setupv
    main.o(.ARM.exidx) refers to main.o(i._Z4loopv) for i._Z4loopv
    main.o(.ARM.exidx) refers to main.o(i.main) for i.main
    main.o(.ARM.exidx) refers to main.o(i.__sti___8_main_cpp_0040b0e8) for i.__sti___8_main_cpp_0040b0e8
    main.o(.init_array) refers to main.o(i.__sti___8_main_cpp_0040b0e8) for __sti___8_main_cpp_0040b0e8
    main.o(.init_array) refers to init_aeabi.o(.text) for __cpp_initialize__aeabi_
    millistaskmanager.o(i._ZN17MillisTaskManager11GetTimeCostEPFvvE) refers to millistaskmanager.o(i._ZN17MillisTaskManager4FindEPFvvE) for MillisTaskManager::Find(void(*)())
    millistaskmanager.o(i._ZN17MillisTaskManager12GetCPU_UsageEv) refers to delay.o(i.micros) for micros
    millistaskmanager.o(i._ZN17MillisTaskManager12GetCPU_UsageEv) refers to millistaskmanager.o(.data) for .data
    millistaskmanager.o(i._ZN17MillisTaskManager15SetIntervalTimeEPFvvEj) refers to millistaskmanager.o(i._ZN17MillisTaskManager4FindEPFvvE) for MillisTaskManager::Find(void(*)())
    millistaskmanager.o(i._ZN17MillisTaskManager6LogoutEPFvvE) refers to millistaskmanager.o(i._ZN17MillisTaskManager4FindEPFvvE) for MillisTaskManager::Find(void(*)())
    millistaskmanager.o(i._ZN17MillisTaskManager6LogoutEPFvvE) refers to millistaskmanager.o(i._ZN17MillisTaskManager7GetPrevEPNS_4TaskE) for MillisTaskManager::GetPrev(MillisTaskManager::Task*)
    millistaskmanager.o(i._ZN17MillisTaskManager6LogoutEPFvvE) refers to delete.o(i._ZdlPv) for operator delete (void*)
    millistaskmanager.o(i._ZN17MillisTaskManager7RunningEj) refers to millistaskmanager.o(i._ZN17MillisTaskManager12GetTickElapsEjj) for MillisTaskManager::GetTickElaps(unsigned, unsigned)
    millistaskmanager.o(i._ZN17MillisTaskManager7RunningEj) refers to delay.o(i.micros) for micros
    millistaskmanager.o(i._ZN17MillisTaskManager7RunningEj) refers to millistaskmanager.o(.data) for .data
    millistaskmanager.o(i._ZN17MillisTaskManager8RegisterEPFvvEjb) refers to millistaskmanager.o(i._ZN17MillisTaskManager4FindEPFvvE) for MillisTaskManager::Find(void(*)())
    millistaskmanager.o(i._ZN17MillisTaskManager8RegisterEPFvvEjb) refers to new.o(i._Znwj) for operator new(unsigned)
    millistaskmanager.o(i._ZN17MillisTaskManager8SetStateEPFvvEb) refers to millistaskmanager.o(i._ZN17MillisTaskManager4FindEPFvvE) for MillisTaskManager::Find(void(*)())
    millistaskmanager.o(i._ZN17MillisTaskManagerD1Ev) refers to delete.o(i._ZdlPv) for operator delete (void*)
    millistaskmanager.o(.ARM.exidx) refers to millistaskmanager.o(i._ZN17MillisTaskManagerC1Eb) for i._ZN17MillisTaskManagerC1Eb
    millistaskmanager.o(.ARM.exidx) refers to millistaskmanager.o(i._ZN17MillisTaskManagerD1Ev) for i._ZN17MillisTaskManagerD1Ev
    millistaskmanager.o(.ARM.exidx) refers to millistaskmanager.o(i._ZN17MillisTaskManager4FindEPFvvE) for i._ZN17MillisTaskManager4FindEPFvvE
    millistaskmanager.o(.ARM.exidx) refers to millistaskmanager.o(i._ZN17MillisTaskManager8RegisterEPFvvEjb) for i._ZN17MillisTaskManager8RegisterEPFvvEjb
    millistaskmanager.o(.ARM.exidx) refers to millistaskmanager.o(i._ZN17MillisTaskManager7GetPrevEPNS_4TaskE) for i._ZN17MillisTaskManager7GetPrevEPNS_4TaskE
    millistaskmanager.o(.ARM.exidx) refers to millistaskmanager.o(i._ZN17MillisTaskManager6LogoutEPFvvE) for i._ZN17MillisTaskManager6LogoutEPFvvE
    millistaskmanager.o(.ARM.exidx) refers to millistaskmanager.o(i._ZN17MillisTaskManager8SetStateEPFvvEb) for i._ZN17MillisTaskManager8SetStateEPFvvEb
    millistaskmanager.o(.ARM.exidx) refers to millistaskmanager.o(i._ZN17MillisTaskManager15SetIntervalTimeEPFvvEj) for i._ZN17MillisTaskManager15SetIntervalTimeEPFvvEj
    millistaskmanager.o(.ARM.exidx) refers to millistaskmanager.o(i._ZN17MillisTaskManager11GetTimeCostEPFvvE) for i._ZN17MillisTaskManager11GetTimeCostEPFvvE
    millistaskmanager.o(.ARM.exidx) refers to millistaskmanager.o(i._ZN17MillisTaskManager12GetTickElapsEjj) for i._ZN17MillisTaskManager12GetTickElapsEjj
    millistaskmanager.o(.ARM.exidx) refers to millistaskmanager.o(i._ZN17MillisTaskManager12GetCPU_UsageEv) for i._ZN17MillisTaskManager12GetCPU_UsageEv
    millistaskmanager.o(.ARM.exidx) refers to millistaskmanager.o(i._ZN17MillisTaskManager7RunningEj) for i._ZN17MillisTaskManager7RunningEj
    pagemanager.o(i._ZN11PageManager12PageChangeToEh) refers to print.o(i._ZN5Print7printlnEPKc) for Print::println(const char*)
    pagemanager.o(i._ZN11PageManager12PageChangeToEh) refers to hardwareserial.o(.bss) for Serial
    pagemanager.o(i._ZN11PageManager7PagePopEv) refers to pagemanager.o(i._ZN11PageManager12PageChangeToEh) for PageManager::PageChangeTo(unsigned char)
    pagemanager.o(i._ZN11PageManager7RunningEv) refers to print.o(i._ZN5Print7printlnEPKc) for Print::println(const char*)
    pagemanager.o(i._ZN11PageManager7RunningEv) refers to hardwareserial.o(.bss) for Serial
    pagemanager.o(i._ZN11PageManager8PagePushEh) refers to pagemanager.o(i._ZN11PageManager12PageChangeToEh) for PageManager::PageChangeTo(unsigned char)
    pagemanager.o(i._ZN11PageManagerC1Ehh) refers to array_new.o(i._Znaj) for operator new[] (unsigned)
    pagemanager.o(i._ZN11PageManagerC1Ehh) refers to pagemanager.o(i._ZN11PageManager9PageClearEh) for PageManager::PageClear(unsigned char)
    pagemanager.o(i._ZN11PageManagerC1Ehh) refers to pagemanager.o(i._ZN11PageManager14PageStackClearEv) for PageManager::PageStackClear()
    pagemanager.o(i._ZN11PageManagerD1Ev) refers to array_del.o(i._ZdaPv) for operator delete[] (void*)
    pagemanager.o(.ARM.exidx) refers to pagemanager.o(i._ZN11PageManager14PageStackClearEv) for i._ZN11PageManager14PageStackClearEv
    pagemanager.o(.ARM.exidx) refers to pagemanager.o(i._ZN11PageManager9PageClearEh) for i._ZN11PageManager9PageClearEh
    pagemanager.o(.ARM.exidx) refers to pagemanager.o(i._ZN11PageManagerC1Ehh) for i._ZN11PageManagerC1Ehh
    pagemanager.o(.ARM.exidx) refers to pagemanager.o(i._ZN11PageManagerD1Ev) for i._ZN11PageManagerD1Ev
    pagemanager.o(.ARM.exidx) refers to pagemanager.o(i._ZN11PageManager12PageRegisterEhPFvvES1_S1_PFvPviE) for i._ZN11PageManager12PageRegisterEhPFvvES1_S1_PFvPviE
    pagemanager.o(.ARM.exidx) refers to pagemanager.o(i._ZN11PageManager12PageChangeToEh) for i._ZN11PageManager12PageChangeToEh
    pagemanager.o(.ARM.exidx) refers to pagemanager.o(i._ZN11PageManager8PagePushEh) for i._ZN11PageManager8PagePushEh
    pagemanager.o(.ARM.exidx) refers to pagemanager.o(i._ZN11PageManager7PagePopEv) for i._ZN11PageManager7PagePopEv
    pagemanager.o(.ARM.exidx) refers to pagemanager.o(i._ZN11PageManager17PageEventTransmitEPvi) for i._ZN11PageManager17PageEventTransmitEPvi
    pagemanager.o(.ARM.exidx) refers to pagemanager.o(i._ZN11PageManager7RunningEv) for i._ZN11PageManager7RunningEv
    toneplayer.o(.ARM.exidx) refers to toneplayer.o(i._ZN10TonePlayerC1Ev) for i._ZN10TonePlayerC1Ev
    toneplayer.o(.ARM.exidx) refers to toneplayer.o(i._ZN10TonePlayer8SetMusicEPKNS_11MusicNode_tEt) for i._ZN10TonePlayer8SetMusicEPKNS_11MusicNode_tEt
    toneplayer.o(.ARM.exidx) refers to toneplayer.o(i._ZN10TonePlayer4PlayEv) for i._ZN10TonePlayer4PlayEv
    toneplayer.o(.ARM.exidx) refers to toneplayer.o(i._ZN10TonePlayer4StopEv) for i._ZN10TonePlayer4StopEv
    toneplayer.o(.ARM.exidx) refers to toneplayer.o(i._ZN10TonePlayer8SetSpeedEt) for i._ZN10TonePlayer8SetSpeedEt
    toneplayer.o(.ARM.exidx) refers to toneplayer.o(i._ZN10TonePlayer6UpdateEj) for i._ZN10TonePlayer6UpdateEj
    piclib.o(i._Z11piclib_Fillttttt) refers to adafruit_gfx.o(i._ZN12Adafruit_GFX8fillRectEsssst) for Adafruit_GFX::fillRect(short, short, short, short, unsigned short)
    piclib.o(i._Z11piclib_Fillttttt) refers to display.o(.bss) for Display::lcd
    piclib.o(i._Z17piclib_Draw_Pointttt) refers to adafruit_st7789.o(i._ZN15Adafruit_ST77899drawPixelEsst) for Adafruit_ST7789::drawPixel(short, short, unsigned short)
    piclib.o(i._Z17piclib_Draw_Pointttt) refers to display.o(.bss) for Display::lcd
    piclib.o(i._Z17piclib_draw_hlinetttt) refers to adafruit_st7789.o(i._ZN15Adafruit_ST778913drawFastHLineEssst) for Adafruit_ST7789::drawFastHLine(short, short, short, unsigned short)
    piclib.o(i._Z17piclib_draw_hlinetttt) refers to display.o(.bss) for Display::lcd
    piclib.o(i._Z17piclib_fill_colorttttPt) refers to adafruit_st7789.o(i._ZN15Adafruit_ST778917drawFastRGBBitmapEssPtss) for Adafruit_ST7789::drawFastRGBBitmap(short, short, unsigned short*, short, short)
    piclib.o(i._Z17piclib_fill_colorttttPt) refers to display.o(.bss) for Display::lcd
    piclib.o(i.ai_draw_init) refers to piclib.o(.bss) for .bss
    piclib.o(i.ai_load_picfile) refers to tjpgd.o(i.jpg_decode) for jpg_decode
    piclib.o(i.ai_load_picfile) refers to piclib.o(.bss) for .bss
    piclib.o(i.is_element_ok) refers to piclib.o(.bss) for .bss
    piclib.o(i.pic_memalloc) refers to h1_alloc.o(.text) for malloc
    piclib.o(i.pic_memfree) refers to h1_free.o(.text) for free
    piclib.o(i.piclib_init) refers to piclib.o(i._Z13LCD_ReadPointtt) for LCD_ReadPoint(unsigned short, unsigned short)
    piclib.o(i.piclib_init) refers to piclib.o(.bss) for .bss
    piclib.o(i.piclib_init) refers to piclib.o(i._Z17piclib_Draw_Pointttt) for piclib_Draw_Point(unsigned short, unsigned short, unsigned short)
    piclib.o(i.piclib_init) refers to piclib.o(i._Z11piclib_Fillttttt) for piclib_Fill(unsigned short, unsigned short, unsigned short, unsigned short, unsigned short)
    piclib.o(i.piclib_init) refers to piclib.o(i._Z17piclib_draw_hlinetttt) for piclib_draw_hline(unsigned short, unsigned short, unsigned short, unsigned short)
    piclib.o(i.piclib_init) refers to piclib.o(i._Z17piclib_fill_colorttttPt) for piclib_fill_color(unsigned short, unsigned short, unsigned short, unsigned short, unsigned short*)
    piclib.o(.ARM.exidx) refers to piclib.o(i._Z13LCD_ReadPointtt) for i._Z13LCD_ReadPointtt
    piclib.o(.ARM.exidx) refers to piclib.o(i._Z17piclib_draw_hlinetttt) for i._Z17piclib_draw_hlinetttt
    piclib.o(.ARM.exidx) refers to piclib.o(i._Z17piclib_fill_colorttttPt) for i._Z17piclib_fill_colorttttPt
    piclib.o(.ARM.exidx) refers to piclib.o(i._Z17piclib_Draw_Pointttt) for i._Z17piclib_Draw_Pointttt
    piclib.o(.ARM.exidx) refers to piclib.o(i._Z11piclib_Fillttttt) for i._Z11piclib_Fillttttt
    piclib.o(.ARM.exidx) refers to piclib.o(i.piclib_init) for i.piclib_init
    piclib.o(.ARM.exidx) refers to piclib.o(i.piclib_alpha_blend) for i.piclib_alpha_blend
    piclib.o(.ARM.exidx) refers to piclib.o(i.ai_draw_init) for i.ai_draw_init
    piclib.o(.ARM.exidx) refers to piclib.o(i.is_element_ok) for i.is_element_ok
    piclib.o(.ARM.exidx) refers to piclib.o(i.ai_load_picfile) for i.ai_load_picfile
    piclib.o(.ARM.exidx) refers to piclib.o(i.pic_memalloc) for i.pic_memalloc
    piclib.o(.ARM.exidx) refers to piclib.o(i.pic_memfree) for i.pic_memfree
    tjpgd.o(i._Z10block_idctPlPh) refers to tjpgd.o(.constdata) for .constdata
    tjpgd.o(i._Z10mcu_outputP4JDECPFjS0_PvP5JRECTEjj) refers to tjpgd.o(.constdata) for .constdata
    tjpgd.o(i._Z12jpeg_in_funcP4JDECPhj) refers to ff.o(i.f_read) for f_read
    tjpgd.o(i._Z12jpeg_in_funcP4JDECPhj) refers to ff.o(i.f_lseek) for f_lseek
    tjpgd.o(i._Z18create_huffman_tblP4JDECPKhj) refers to tjpgd.o(i._Z10alloc_poolP4JDECj) for alloc_pool(JDEC*, unsigned)
    tjpgd.o(i._Z18jpeg_out_func_fillP4JDECPvP5JRECT) refers to piclib.o(.bss) for picinfo
    tjpgd.o(i._Z19jpeg_out_func_pointP4JDECPvP5JRECT) refers to piclib.o(i.is_element_ok) for is_element_ok
    tjpgd.o(i._Z19jpeg_out_func_pointP4JDECPvP5JRECT) refers to piclib.o(.bss) for picinfo
    tjpgd.o(i._Z8mcu_loadP4JDEC) refers to tjpgd.o(i._Z7huffextP4JDECPKhPKtS2_) for huffext(JDEC*, const unsigned char*, const unsigned short*, const unsigned char*)
    tjpgd.o(i._Z8mcu_loadP4JDEC) refers to tjpgd.o(i._Z6bitextP4JDECj) for bitext(JDEC*, unsigned)
    tjpgd.o(i._Z8mcu_loadP4JDEC) refers to tjpgd.o(i._Z10block_idctPlPh) for block_idct(long*, unsigned char*)
    tjpgd.o(i._Z8mcu_loadP4JDEC) refers to tjpgd.o(.constdata) for .constdata
    tjpgd.o(i.jd_decomp) refers to tjpgd.o(i._Z8mcu_loadP4JDEC) for mcu_load(JDEC*)
    tjpgd.o(i.jd_decomp) refers to tjpgd.o(i._Z10mcu_outputP4JDECPFjS0_PvP5JRECTEjj) for mcu_output(JDEC*, unsigned(*)(JDEC*, void*, JRECT*), unsigned, unsigned)
    tjpgd.o(i.jd_prepare) refers to tjpgd.o(i._Z10alloc_poolP4JDECj) for alloc_pool(JDEC*, unsigned)
    tjpgd.o(i.jd_prepare) refers to tjpgd.o(i._Z18create_huffman_tblP4JDECPKhj) for create_huffman_tbl(JDEC*, const unsigned char*, unsigned)
    tjpgd.o(i.jd_prepare) refers to tjpgd.o(.constdata) for .constdata
    tjpgd.o(i.jpg_decode) refers to ff.o(i.f_open) for f_open
    tjpgd.o(i.jpg_decode) refers to tjpgd.o(i.jd_prepare) for jd_prepare
    tjpgd.o(i.jpg_decode) refers to piclib.o(i.ai_draw_init) for ai_draw_init
    tjpgd.o(i.jpg_decode) refers to tjpgd.o(i.jd_decomp) for jd_decomp
    tjpgd.o(i.jpg_decode) refers to ff.o(i.f_close) for f_close
    tjpgd.o(i.jpg_decode) refers to tjpgd.o(.data) for .data
    tjpgd.o(i.jpg_decode) refers to tjpgd.o(.bss) for .bss
    tjpgd.o(i.jpg_decode) refers to tjpgd.o(i._Z12jpeg_in_funcP4JDECPhj) for jpeg_in_func(JDEC*, unsigned char*, unsigned)
    tjpgd.o(i.jpg_decode) refers to tjpgd.o(i._Z19jpeg_out_func_pointP4JDECPvP5JRECT) for jpeg_out_func_point(JDEC*, void*, JRECT*)
    tjpgd.o(i.jpg_decode) refers to piclib.o(.bss) for picinfo
    tjpgd.o(i.jpg_decode) refers to tjpgd.o(i._Z18jpeg_out_func_fillP4JDECPvP5JRECT) for jpeg_out_func_fill(JDEC*, void*, JRECT*)
    tjpgd.o(.ARM.exidx) refers to tjpgd.o(i._Z18create_huffman_tblP4JDECPKhj) for i._Z18create_huffman_tblP4JDECPKhj
    tjpgd.o(.ARM.exidx) refers to tjpgd.o(i._Z6bitextP4JDECj) for i._Z6bitextP4JDECj
    tjpgd.o(.ARM.exidx) refers to tjpgd.o(i._Z7huffextP4JDECPKhPKtS2_) for i._Z7huffextP4JDECPKhPKtS2_
    tjpgd.o(.ARM.exidx) refers to tjpgd.o(i._Z10block_idctPlPh) for i._Z10block_idctPlPh
    tjpgd.o(.ARM.exidx) refers to tjpgd.o(i._Z8mcu_loadP4JDEC) for i._Z8mcu_loadP4JDEC
    tjpgd.o(.ARM.exidx) refers to tjpgd.o(i._Z10mcu_outputP4JDECPFjS0_PvP5JRECTEjj) for i._Z10mcu_outputP4JDECPFjS0_PvP5JRECTEjj
    tjpgd.o(.ARM.exidx) refers to tjpgd.o(i.jd_prepare) for i.jd_prepare
    tjpgd.o(.ARM.exidx) refers to tjpgd.o(i.jd_decomp) for i.jd_decomp
    tjpgd.o(.ARM.exidx) refers to tjpgd.o(i._Z12jpeg_in_funcP4JDECPhj) for i._Z12jpeg_in_funcP4JDECPhj
    tjpgd.o(.ARM.exidx) refers to tjpgd.o(i._Z18jpeg_out_func_fillP4JDECPvP5JRECT) for i._Z18jpeg_out_func_fillP4JDECPvP5JRECT
    tjpgd.o(.ARM.exidx) refers to tjpgd.o(i._Z19jpeg_out_func_pointP4JDECPvP5JRECT) for i._Z19jpeg_out_func_pointP4JDECPvP5JRECT
    tjpgd.o(.ARM.exidx) refers to tjpgd.o(i.jpg_decode) for i.jpg_decode
    tjpgd.o(.ARM.exidx) refers to tjpgd.o(i._Z10alloc_poolP4JDECj) for i._Z10alloc_poolP4JDECj
    tjpgd.o(.data) refers to tjpgd.o(.bss) for tf_jpeg
    tjpgd.o(.data) refers to tjpgd.o(.bss) for tjpeg_dev
    adafruit_gfx.o(i._ZN10GFXcanvas110fillScreenEt) refers to aeabi_memset.o(.text) for __aeabi_memset
    adafruit_gfx.o(i._ZN10GFXcanvas1C1Ett) refers to adafruit_gfx.o(i._ZN12Adafruit_GFXC2Ess) for Adafruit_GFX::Adafruit_GFX__sub_object(short, short)
    adafruit_gfx.o(i._ZN10GFXcanvas1C1Ett) refers to h1_alloc.o(.text) for malloc
    adafruit_gfx.o(i._ZN10GFXcanvas1C1Ett) refers to rt_memclr.o(.text) for __aeabi_memclr
    adafruit_gfx.o(i._ZN10GFXcanvas1C1Ett) refers to adafruit_gfx.o(.constdata__ZTV10GFXcanvas1) for vtable for GFXcanvas1
    adafruit_gfx.o(i._ZN10GFXcanvas1D1Ev) refers to h1_free.o(.text) for free
    adafruit_gfx.o(i._ZN10GFXcanvas1D1Ev) refers to adafruit_gfx.o(.constdata__ZTV10GFXcanvas1) for vtable for GFXcanvas1
    adafruit_gfx.o(i._ZN10GFXcanvas810fillScreenEt) refers to aeabi_memset.o(.text) for __aeabi_memset
    adafruit_gfx.o(i._ZN10GFXcanvas814writeFastHLineEssst) refers to aeabi_memset.o(.text) for __aeabi_memset
    adafruit_gfx.o(i._ZN10GFXcanvas8C1Ett) refers to adafruit_gfx.o(i._ZN12Adafruit_GFXC2Ess) for Adafruit_GFX::Adafruit_GFX__sub_object(short, short)
    adafruit_gfx.o(i._ZN10GFXcanvas8C1Ett) refers to h1_alloc.o(.text) for malloc
    adafruit_gfx.o(i._ZN10GFXcanvas8C1Ett) refers to rt_memclr.o(.text) for __aeabi_memclr
    adafruit_gfx.o(i._ZN10GFXcanvas8C1Ett) refers to adafruit_gfx.o(.constdata__ZTV10GFXcanvas8) for vtable for GFXcanvas8
    adafruit_gfx.o(i._ZN10GFXcanvas8D1Ev) refers to h1_free.o(.text) for free
    adafruit_gfx.o(i._ZN10GFXcanvas8D1Ev) refers to adafruit_gfx.o(.constdata__ZTV10GFXcanvas8) for vtable for GFXcanvas8
    adafruit_gfx.o(i._ZN11GFXcanvas1610fillScreenEt) refers to aeabi_memset.o(.text) for __aeabi_memset
    adafruit_gfx.o(i._ZN11GFXcanvas16C1Ett) refers to adafruit_gfx.o(i._ZN12Adafruit_GFXC2Ess) for Adafruit_GFX::Adafruit_GFX__sub_object(short, short)
    adafruit_gfx.o(i._ZN11GFXcanvas16C1Ett) refers to h1_alloc.o(.text) for malloc
    adafruit_gfx.o(i._ZN11GFXcanvas16C1Ett) refers to rt_memclr.o(.text) for __aeabi_memclr
    adafruit_gfx.o(i._ZN11GFXcanvas16C1Ett) refers to adafruit_gfx.o(.constdata__ZTV11GFXcanvas16) for vtable for GFXcanvas16
    adafruit_gfx.o(i._ZN11GFXcanvas16D1Ev) refers to h1_free.o(.text) for free
    adafruit_gfx.o(i._ZN11GFXcanvas16D1Ev) refers to adafruit_gfx.o(.constdata__ZTV11GFXcanvas16) for vtable for GFXcanvas16
    adafruit_gfx.o(i._ZN12Adafruit_GFX10fillCircleEssst) refers to adafruit_gfx.o(i._ZN12Adafruit_GFX16fillCircleHelperEssshst) for Adafruit_GFX::fillCircleHelper(short, short, short, unsigned char, short, unsigned short)
    adafruit_gfx.o(i._ZN12Adafruit_GFX13drawRoundRectEssssst) refers to adafruit_gfx.o(i._ZN12Adafruit_GFX16drawCircleHelperEsssht) for Adafruit_GFX::drawCircleHelper(short, short, short, unsigned char, unsigned short)
    adafruit_gfx.o(i._ZN12Adafruit_GFX13fillRoundRectEssssst) refers to adafruit_gfx.o(i._ZN12Adafruit_GFX16fillCircleHelperEssshst) for Adafruit_GFX::fillCircleHelper(short, short, short, unsigned char, short, unsigned short)
    adafruit_gfx.o(i._ZN12Adafruit_GFX13getTextBoundsEPK19__FlashStringHelperssPsS3_PtS4_) refers to adafruit_gfx.o(i._ZN12Adafruit_GFX10charBoundsEcPsS0_S0_S0_S0_S0_) for Adafruit_GFX::charBounds(char, short*, short*, short*, short*, short*, short*)
    adafruit_gfx.o(i._ZN12Adafruit_GFX13getTextBoundsEPcssPsS1_PtS2_) refers to adafruit_gfx.o(i._ZN12Adafruit_GFX10charBoundsEcPsS0_S0_S0_S0_S0_) for Adafruit_GFX::charBounds(char, short*, short*, short*, short*, short*, short*)
    adafruit_gfx.o(i._ZN12Adafruit_GFX5writeEh) refers to adafruit_gfx.o(i._ZN12Adafruit_GFX8drawCharEsshtth) for Adafruit_GFX::drawChar(short, short, unsigned char, unsigned short, unsigned short, unsigned char)
    adafruit_gfx.o(i._ZN12Adafruit_GFX8drawCharEsshtth) refers to adafruit_gfx.o(.constdata) for .constdata
    adafruit_gfx.o(i._ZN12Adafruit_GFXC2Ess) refers to adafruit_gfx.o(.constdata__ZTV12Adafruit_GFX) for vtable for Adafruit_GFX
    adafruit_gfx.o(i._ZN19Adafruit_GFX_Button10drawButtonEb) refers to adafruit_gfx.o(i._ZN12Adafruit_GFX13fillRoundRectEssssst) for Adafruit_GFX::fillRoundRect(short, short, short, short, short, unsigned short)
    adafruit_gfx.o(i._ZN19Adafruit_GFX_Button10drawButtonEb) refers to adafruit_gfx.o(i._ZN12Adafruit_GFX13drawRoundRectEssssst) for Adafruit_GFX::drawRoundRect(short, short, short, short, short, unsigned short)
    adafruit_gfx.o(i._ZN19Adafruit_GFX_Button10drawButtonEb) refers to strlen.o(.text) for strlen
    adafruit_gfx.o(i._ZN19Adafruit_GFX_Button10drawButtonEb) refers to adafruit_gfx.o(i._ZN12Adafruit_GFX11setTextSizeEh) for Adafruit_GFX::setTextSize(unsigned char)
    adafruit_gfx.o(i._ZN19Adafruit_GFX_Button10drawButtonEb) refers to print.o(i._ZN5Print5printEPKc) for Print::print(const char*)
    adafruit_gfx.o(i._ZN19Adafruit_GFX_Button10initButtonEP12Adafruit_GFXsstttttPch) refers to adafruit_gfx.o(i._ZN19Adafruit_GFX_Button12initButtonULEP12Adafruit_GFXsstttttPch) for Adafruit_GFX_Button::initButtonUL(Adafruit_GFX*, short, short, unsigned short, unsigned short, unsigned short, unsigned short, unsigned short, char*, unsigned char)
    adafruit_gfx.o(i._ZN19Adafruit_GFX_Button12initButtonULEP12Adafruit_GFXsstttttPch) refers to strncpy.o(.text) for strncpy
    adafruit_gfx.o(.ARM.exidx) refers to adafruit_gfx.o(i._ZN12Adafruit_GFXC2Ess) for i._ZN12Adafruit_GFXC2Ess
    adafruit_gfx.o(.ARM.exidx) refers to adafruit_gfx.o(i._ZN12Adafruit_GFX10startWriteEv) for i._ZN12Adafruit_GFX10startWriteEv
    adafruit_gfx.o(.ARM.exidx) refers to adafruit_gfx.o(i._ZN12Adafruit_GFX10writePixelEsst) for i._ZN12Adafruit_GFX10writePixelEsst
    adafruit_gfx.o(.ARM.exidx) refers to adafruit_gfx.o(i._ZN12Adafruit_GFX13writeFillRectEsssst) for i._ZN12Adafruit_GFX13writeFillRectEsssst
    adafruit_gfx.o(.ARM.exidx) refers to adafruit_gfx.o(i._ZN12Adafruit_GFX14writeFastVLineEssst) for i._ZN12Adafruit_GFX14writeFastVLineEssst
    adafruit_gfx.o(.ARM.exidx) refers to adafruit_gfx.o(i._ZN12Adafruit_GFX14writeFastHLineEssst) for i._ZN12Adafruit_GFX14writeFastHLineEssst
    adafruit_gfx.o(.ARM.exidx) refers to adafruit_gfx.o(i._ZN12Adafruit_GFX9writeLineEsssst) for i._ZN12Adafruit_GFX9writeLineEsssst
    adafruit_gfx.o(.ARM.exidx) refers to adafruit_gfx.o(i._ZN12Adafruit_GFX8endWriteEv) for i._ZN12Adafruit_GFX8endWriteEv
    adafruit_gfx.o(.ARM.exidx) refers to adafruit_gfx.o(i._ZN12Adafruit_GFX11setRotationEh) for i._ZN12Adafruit_GFX11setRotationEh
    adafruit_gfx.o(.ARM.exidx) refers to adafruit_gfx.o(i._ZN12Adafruit_GFX13invertDisplayEb) for i._ZN12Adafruit_GFX13invertDisplayEb
    adafruit_gfx.o(.ARM.exidx) refers to adafruit_gfx.o(i._ZN12Adafruit_GFX13drawFastVLineEssst) for i._ZN12Adafruit_GFX13drawFastVLineEssst
    adafruit_gfx.o(.ARM.exidx) refers to adafruit_gfx.o(i._ZN12Adafruit_GFX13drawFastHLineEssst) for i._ZN12Adafruit_GFX13drawFastHLineEssst
    adafruit_gfx.o(.ARM.exidx) refers to adafruit_gfx.o(i._ZN12Adafruit_GFX8fillRectEsssst) for i._ZN12Adafruit_GFX8fillRectEsssst
    adafruit_gfx.o(.ARM.exidx) refers to adafruit_gfx.o(i._ZN12Adafruit_GFX10fillScreenEt) for i._ZN12Adafruit_GFX10fillScreenEt
    adafruit_gfx.o(.ARM.exidx) refers to adafruit_gfx.o(i._ZN12Adafruit_GFX8drawLineEsssst) for i._ZN12Adafruit_GFX8drawLineEsssst
    adafruit_gfx.o(.ARM.exidx) refers to adafruit_gfx.o(i._ZN12Adafruit_GFX8drawRectEsssst) for i._ZN12Adafruit_GFX8drawRectEsssst
    adafruit_gfx.o(.ARM.exidx) refers to adafruit_gfx.o(i._ZN12Adafruit_GFX10drawCircleEssst) for i._ZN12Adafruit_GFX10drawCircleEssst
    adafruit_gfx.o(.ARM.exidx) refers to adafruit_gfx.o(i._ZN12Adafruit_GFX16drawCircleHelperEsssht) for i._ZN12Adafruit_GFX16drawCircleHelperEsssht
    adafruit_gfx.o(.ARM.exidx) refers to adafruit_gfx.o(i._ZN12Adafruit_GFX16fillCircleHelperEssshst) for i._ZN12Adafruit_GFX16fillCircleHelperEssshst
    adafruit_gfx.o(.ARM.exidx) refers to adafruit_gfx.o(i._ZN12Adafruit_GFX10fillCircleEssst) for i._ZN12Adafruit_GFX10fillCircleEssst
    adafruit_gfx.o(.ARM.exidx) refers to adafruit_gfx.o(i._ZN12Adafruit_GFX12drawTriangleEsssssst) for i._ZN12Adafruit_GFX12drawTriangleEsssssst
    adafruit_gfx.o(.ARM.exidx) refers to adafruit_gfx.o(i._ZN12Adafruit_GFX12fillTriangleEsssssst) for i._ZN12Adafruit_GFX12fillTriangleEsssssst
    adafruit_gfx.o(.ARM.exidx) refers to adafruit_gfx.o(i._ZN12Adafruit_GFX13drawRoundRectEssssst) for i._ZN12Adafruit_GFX13drawRoundRectEssssst
    adafruit_gfx.o(.ARM.exidx) refers to adafruit_gfx.o(i._ZN12Adafruit_GFX13fillRoundRectEssssst) for i._ZN12Adafruit_GFX13fillRoundRectEssssst
    adafruit_gfx.o(.ARM.exidx) refers to adafruit_gfx.o(i._ZN12Adafruit_GFX10drawBitmapEssPKhsst) for i._ZN12Adafruit_GFX10drawBitmapEssPKhsst
    adafruit_gfx.o(.ARM.exidx) refers to adafruit_gfx.o(i._ZN12Adafruit_GFX10drawBitmapEssPKhsstt) for i._ZN12Adafruit_GFX10drawBitmapEssPKhsstt
    adafruit_gfx.o(.ARM.exidx) refers to adafruit_gfx.o(i._ZN12Adafruit_GFX10drawBitmapEssPhsst) for i._ZN12Adafruit_GFX10drawBitmapEssPhsst
    adafruit_gfx.o(.ARM.exidx) refers to adafruit_gfx.o(i._ZN12Adafruit_GFX10drawBitmapEssPhsstt) for i._ZN12Adafruit_GFX10drawBitmapEssPhsstt
    adafruit_gfx.o(.ARM.exidx) refers to adafruit_gfx.o(i._ZN12Adafruit_GFX11drawXBitmapEssPKhsst) for i._ZN12Adafruit_GFX11drawXBitmapEssPKhsst
    adafruit_gfx.o(.ARM.exidx) refers to adafruit_gfx.o(i._ZN12Adafruit_GFX19drawGrayscaleBitmapEssPKhss) for i._ZN12Adafruit_GFX19drawGrayscaleBitmapEssPKhss
    adafruit_gfx.o(.ARM.exidx) refers to adafruit_gfx.o(i._ZN12Adafruit_GFX19drawGrayscaleBitmapEssPhss) for i._ZN12Adafruit_GFX19drawGrayscaleBitmapEssPhss
    adafruit_gfx.o(.ARM.exidx) refers to adafruit_gfx.o(i._ZN12Adafruit_GFX19drawGrayscaleBitmapEssPKhS1_ss) for i._ZN12Adafruit_GFX19drawGrayscaleBitmapEssPKhS1_ss
    adafruit_gfx.o(.ARM.exidx) refers to adafruit_gfx.o(i._ZN12Adafruit_GFX19drawGrayscaleBitmapEssPhS0_ss) for i._ZN12Adafruit_GFX19drawGrayscaleBitmapEssPhS0_ss
    adafruit_gfx.o(.ARM.exidx) refers to adafruit_gfx.o(i._ZN12Adafruit_GFX13drawRGBBitmapEssPKtss) for i._ZN12Adafruit_GFX13drawRGBBitmapEssPKtss
    adafruit_gfx.o(.ARM.exidx) refers to adafruit_gfx.o(i._ZN12Adafruit_GFX13drawRGBBitmapEssPtss) for i._ZN12Adafruit_GFX13drawRGBBitmapEssPtss
    adafruit_gfx.o(.ARM.exidx) refers to adafruit_gfx.o(i._ZN12Adafruit_GFX13drawRGBBitmapEssPKtPKhss) for i._ZN12Adafruit_GFX13drawRGBBitmapEssPKtPKhss
    adafruit_gfx.o(.ARM.exidx) refers to adafruit_gfx.o(i._ZN12Adafruit_GFX13drawRGBBitmapEssPtPhss) for i._ZN12Adafruit_GFX13drawRGBBitmapEssPtPhss
    adafruit_gfx.o(.ARM.exidx) refers to adafruit_gfx.o(i._ZN12Adafruit_GFX8drawCharEsshtth) for i._ZN12Adafruit_GFX8drawCharEsshtth
    adafruit_gfx.o(.ARM.exidx) refers to adafruit_gfx.o(i._ZN12Adafruit_GFX9setCursorEss) for i._ZN12Adafruit_GFX9setCursorEss
    adafruit_gfx.o(.ARM.exidx) refers to adafruit_gfx.o(i._ZN12Adafruit_GFX12setTextColorEt) for i._ZN12Adafruit_GFX12setTextColorEt
    adafruit_gfx.o(.ARM.exidx) refers to adafruit_gfx.o(i._ZN12Adafruit_GFX12setTextColorEtt) for i._ZN12Adafruit_GFX12setTextColorEtt
    adafruit_gfx.o(.ARM.exidx) refers to adafruit_gfx.o(i._ZN12Adafruit_GFX11setTextSizeEh) for i._ZN12Adafruit_GFX11setTextSizeEh
    adafruit_gfx.o(.ARM.exidx) refers to adafruit_gfx.o(i._ZN12Adafruit_GFX11setTextWrapEb) for i._ZN12Adafruit_GFX11setTextWrapEb
    adafruit_gfx.o(.ARM.exidx) refers to adafruit_gfx.o(i._ZN12Adafruit_GFX5cp437Eb) for i._ZN12Adafruit_GFX5cp437Eb
    adafruit_gfx.o(.ARM.exidx) refers to adafruit_gfx.o(i._ZN12Adafruit_GFX7setFontEPK7GFXfont) for i._ZN12Adafruit_GFX7setFontEPK7GFXfont
    adafruit_gfx.o(.ARM.exidx) refers to adafruit_gfx.o(i._ZN12Adafruit_GFX10charBoundsEcPsS0_S0_S0_S0_S0_) for i._ZN12Adafruit_GFX10charBoundsEcPsS0_S0_S0_S0_S0_
    adafruit_gfx.o(.ARM.exidx) refers to adafruit_gfx.o(i._ZN12Adafruit_GFX13getTextBoundsEPcssPsS1_PtS2_) for i._ZN12Adafruit_GFX13getTextBoundsEPcssPsS1_PtS2_
    adafruit_gfx.o(.ARM.exidx) refers to adafruit_gfx.o(i._ZN12Adafruit_GFX13getTextBoundsEPK19__FlashStringHelperssPsS3_PtS4_) for i._ZN12Adafruit_GFX13getTextBoundsEPK19__FlashStringHelperssPsS3_PtS4_
    adafruit_gfx.o(.ARM.exidx) refers to adafruit_gfx.o(i._ZN12Adafruit_GFX5writeEh) for i._ZN12Adafruit_GFX5writeEh
    adafruit_gfx.o(.ARM.exidx) refers to adafruit_gfx.o(i._ZNK12Adafruit_GFX6heightEv) for i._ZNK12Adafruit_GFX6heightEv
    adafruit_gfx.o(.ARM.exidx) refers to adafruit_gfx.o(i._ZNK12Adafruit_GFX5widthEv) for i._ZNK12Adafruit_GFX5widthEv
    adafruit_gfx.o(.ARM.exidx) refers to adafruit_gfx.o(i._ZNK12Adafruit_GFX11getRotationEv) for i._ZNK12Adafruit_GFX11getRotationEv
    adafruit_gfx.o(.ARM.exidx) refers to adafruit_gfx.o(i._ZNK12Adafruit_GFX10getCursorXEv) for i._ZNK12Adafruit_GFX10getCursorXEv
    adafruit_gfx.o(.ARM.exidx) refers to adafruit_gfx.o(i._ZNK12Adafruit_GFX10getCursorYEv) for i._ZNK12Adafruit_GFX10getCursorYEv
    adafruit_gfx.o(.ARM.exidx) refers to adafruit_gfx.o(i._ZN19Adafruit_GFX_ButtonC1Ev) for i._ZN19Adafruit_GFX_ButtonC1Ev
    adafruit_gfx.o(.ARM.exidx) refers to adafruit_gfx.o(i._ZN19Adafruit_GFX_Button12initButtonULEP12Adafruit_GFXsstttttPch) for i._ZN19Adafruit_GFX_Button12initButtonULEP12Adafruit_GFXsstttttPch
    adafruit_gfx.o(.ARM.exidx) refers to adafruit_gfx.o(i._ZN19Adafruit_GFX_Button10initButtonEP12Adafruit_GFXsstttttPch) for i._ZN19Adafruit_GFX_Button10initButtonEP12Adafruit_GFXsstttttPch
    adafruit_gfx.o(.ARM.exidx) refers to adafruit_gfx.o(i._ZN19Adafruit_GFX_Button10drawButtonEb) for i._ZN19Adafruit_GFX_Button10drawButtonEb
    adafruit_gfx.o(.ARM.exidx) refers to adafruit_gfx.o(i._ZN19Adafruit_GFX_Button8containsEss) for i._ZN19Adafruit_GFX_Button8containsEss
    adafruit_gfx.o(.ARM.exidx) refers to adafruit_gfx.o(i._ZN19Adafruit_GFX_Button5pressEb) for i._ZN19Adafruit_GFX_Button5pressEb
    adafruit_gfx.o(.ARM.exidx) refers to adafruit_gfx.o(i._ZN19Adafruit_GFX_Button9isPressedEv) for i._ZN19Adafruit_GFX_Button9isPressedEv
    adafruit_gfx.o(.ARM.exidx) refers to adafruit_gfx.o(i._ZN19Adafruit_GFX_Button11justPressedEv) for i._ZN19Adafruit_GFX_Button11justPressedEv
    adafruit_gfx.o(.ARM.exidx) refers to adafruit_gfx.o(i._ZN19Adafruit_GFX_Button12justReleasedEv) for i._ZN19Adafruit_GFX_Button12justReleasedEv
    adafruit_gfx.o(.ARM.exidx) refers to adafruit_gfx.o(i._ZN10GFXcanvas1C1Ett) for i._ZN10GFXcanvas1C1Ett
    adafruit_gfx.o(.ARM.exidx) refers to adafruit_gfx.o(i._ZN10GFXcanvas1D1Ev) for i._ZN10GFXcanvas1D1Ev
    adafruit_gfx.o(.ARM.exidx) refers to adafruit_gfx.o(i._ZN10GFXcanvas19drawPixelEsst) for i._ZN10GFXcanvas19drawPixelEsst
    adafruit_gfx.o(.ARM.exidx) refers to adafruit_gfx.o(i._ZN10GFXcanvas110fillScreenEt) for i._ZN10GFXcanvas110fillScreenEt
    adafruit_gfx.o(.ARM.exidx) refers to adafruit_gfx.o(i._ZN10GFXcanvas19getBufferEv) for i._ZN10GFXcanvas19getBufferEv
    adafruit_gfx.o(.ARM.exidx) refers to adafruit_gfx.o(i._ZN10GFXcanvas8C1Ett) for i._ZN10GFXcanvas8C1Ett
    adafruit_gfx.o(.ARM.exidx) refers to adafruit_gfx.o(i._ZN10GFXcanvas8D1Ev) for i._ZN10GFXcanvas8D1Ev
    adafruit_gfx.o(.ARM.exidx) refers to adafruit_gfx.o(i._ZN10GFXcanvas89drawPixelEsst) for i._ZN10GFXcanvas89drawPixelEsst
    adafruit_gfx.o(.ARM.exidx) refers to adafruit_gfx.o(i._ZN10GFXcanvas810fillScreenEt) for i._ZN10GFXcanvas810fillScreenEt
    adafruit_gfx.o(.ARM.exidx) refers to adafruit_gfx.o(i._ZN10GFXcanvas814writeFastHLineEssst) for i._ZN10GFXcanvas814writeFastHLineEssst
    adafruit_gfx.o(.ARM.exidx) refers to adafruit_gfx.o(i._ZN10GFXcanvas89getBufferEv) for i._ZN10GFXcanvas89getBufferEv
    adafruit_gfx.o(.ARM.exidx) refers to adafruit_gfx.o(i._ZN11GFXcanvas16C1Ett) for i._ZN11GFXcanvas16C1Ett
    adafruit_gfx.o(.ARM.exidx) refers to adafruit_gfx.o(i._ZN11GFXcanvas16D1Ev) for i._ZN11GFXcanvas16D1Ev
    adafruit_gfx.o(.ARM.exidx) refers to adafruit_gfx.o(i._ZN11GFXcanvas169drawPixelEsst) for i._ZN11GFXcanvas169drawPixelEsst
    adafruit_gfx.o(.ARM.exidx) refers to adafruit_gfx.o(i._ZN11GFXcanvas1610fillScreenEt) for i._ZN11GFXcanvas1610fillScreenEt
    adafruit_gfx.o(.ARM.exidx) refers to adafruit_gfx.o(i._ZN11GFXcanvas169getBufferEv) for i._ZN11GFXcanvas169getBufferEv
    adafruit_st7789.o(i._ZN15Adafruit_ST778910fillScreenEt) refers to adafruit_st7789.o(i._ZN15Adafruit_ST778911writeData16Et) for Adafruit_ST7789::writeData16(unsigned short)
    adafruit_st7789.o(i._ZN15Adafruit_ST778911setRotationEh) refers to adafruit_st7789.o(i._ZN15Adafruit_ST778912writeCommandEh) for Adafruit_ST7789::writeCommand(unsigned char)
    adafruit_st7789.o(i._ZN15Adafruit_ST778911setRotationEh) refers to adafruit_st7789.o(i._ZN15Adafruit_ST77899writeDataEh) for Adafruit_ST7789::writeData(unsigned char)
    adafruit_st7789.o(i._ZN15Adafruit_ST778911writeData16Et) refers to spi.o(i._ZNK8SPIClass8transferEh) for SPIClass::transfer(unsigned char) const
    adafruit_st7789.o(i._ZN15Adafruit_ST778911writeData16Et) refers to adafruit_st7789.o(i._ZN15Adafruit_ST77898spiWriteEh) for Adafruit_ST7789::spiWrite(unsigned char)
    adafruit_st7789.o(i._ZN15Adafruit_ST778911writeData16Et) refers to spi.o(.bss) for SPI
    adafruit_st7789.o(i._ZN15Adafruit_ST778912writeCommandEh) refers to spi.o(i._ZNK8SPIClass8transferEh) for SPIClass::transfer(unsigned char) const
    adafruit_st7789.o(i._ZN15Adafruit_ST778912writeCommandEh) refers to adafruit_st7789.o(i._ZN15Adafruit_ST77898spiWriteEh) for Adafruit_ST7789::spiWrite(unsigned char)
    adafruit_st7789.o(i._ZN15Adafruit_ST778912writeCommandEh) refers to spi.o(.bss) for SPI
    adafruit_st7789.o(i._ZN15Adafruit_ST778913drawFastHLineEssst) refers to adafruit_st7789.o(i._ZN15Adafruit_ST778911writeData16Et) for Adafruit_ST7789::writeData16(unsigned short)
    adafruit_st7789.o(i._ZN15Adafruit_ST778913drawFastVLineEssst) refers to adafruit_st7789.o(i._ZN15Adafruit_ST778911writeData16Et) for Adafruit_ST7789::writeData16(unsigned short)
    adafruit_st7789.o(i._ZN15Adafruit_ST778913drawRGBBitmapEssPtss) refers to adafruit_st7789.o(i._ZN15Adafruit_ST778911writeData16Et) for Adafruit_ST7789::writeData16(unsigned short)
    adafruit_st7789.o(i._ZN15Adafruit_ST778913setAddrWindowEssss) refers to adafruit_st7789.o(i._ZN15Adafruit_ST778912writeCommandEh) for Adafruit_ST7789::writeCommand(unsigned char)
    adafruit_st7789.o(i._ZN15Adafruit_ST778913setAddrWindowEssss) refers to adafruit_st7789.o(i._ZN15Adafruit_ST778911writeData16Et) for Adafruit_ST7789::writeData16(unsigned short)
    adafruit_st7789.o(i._ZN15Adafruit_ST77895beginEv) refers to spi.o(i._ZN8SPIClass5beginEv) for SPIClass::begin()
    adafruit_st7789.o(i._ZN15Adafruit_ST77895beginEv) refers to spi.o(i._ZN8SPIClass8setClockEj) for SPIClass::setClock(unsigned)
    adafruit_st7789.o(i._ZN15Adafruit_ST77895beginEv) refers to arduino.o(i.pinMode) for pinMode
    adafruit_st7789.o(i._ZN15Adafruit_ST77895beginEv) refers to arduino.o(i.digitalWrite) for digitalWrite
    adafruit_st7789.o(i._ZN15Adafruit_ST77895beginEv) refers to delay.o(i.delay_ms) for delay_ms
    adafruit_st7789.o(i._ZN15Adafruit_ST77895beginEv) refers to adafruit_st7789.o(i._ZN15Adafruit_ST778912writeCommandEh) for Adafruit_ST7789::writeCommand(unsigned char)
    adafruit_st7789.o(i._ZN15Adafruit_ST77895beginEv) refers to adafruit_st7789.o(i._ZN15Adafruit_ST77899writeDataEh) for Adafruit_ST7789::writeData(unsigned char)
    adafruit_st7789.o(i._ZN15Adafruit_ST77895beginEv) refers to spi.o(.bss) for SPI
    adafruit_st7789.o(i._ZN15Adafruit_ST77899drawPixelEsst) refers to adafruit_st7789.o(i._ZN15Adafruit_ST778911writeData16Et) for Adafruit_ST7789::writeData16(unsigned short)
    adafruit_st7789.o(i._ZN15Adafruit_ST77899writeDataEh) refers to spi.o(i._ZNK8SPIClass8transferEh) for SPIClass::transfer(unsigned char) const
    adafruit_st7789.o(i._ZN15Adafruit_ST77899writeDataEh) refers to adafruit_st7789.o(i._ZN15Adafruit_ST77898spiWriteEh) for Adafruit_ST7789::spiWrite(unsigned char)
    adafruit_st7789.o(i._ZN15Adafruit_ST77899writeDataEh) refers to spi.o(.bss) for SPI
    adafruit_st7789.o(i._ZN15Adafruit_ST7789C1Ehhh) refers to adafruit_gfx.o(i._ZN12Adafruit_GFXC2Ess) for Adafruit_GFX::Adafruit_GFX__sub_object(short, short)
    adafruit_st7789.o(i._ZN15Adafruit_ST7789C1Ehhh) refers to adafruit_st7789.o(.constdata__ZTV15Adafruit_ST7789) for vtable for Adafruit_ST7789
    adafruit_st7789.o(i._ZN15Adafruit_ST7789C1Ehhh) refers to gpio.o(.constdata) for PIN_MAP
    adafruit_st7789.o(i._ZN15Adafruit_ST7789C1Ehhhhh) refers to adafruit_gfx.o(i._ZN12Adafruit_GFXC2Ess) for Adafruit_GFX::Adafruit_GFX__sub_object(short, short)
    adafruit_st7789.o(i._ZN15Adafruit_ST7789C1Ehhhhh) refers to adafruit_st7789.o(.constdata__ZTV15Adafruit_ST7789) for vtable for Adafruit_ST7789
    adafruit_st7789.o(i._ZN15Adafruit_ST7789C1Ehhhhh) refers to gpio.o(.constdata) for PIN_MAP
    adafruit_st7789.o(.ARM.exidx) refers to adafruit_st7789.o(i._ZN15Adafruit_ST7789C1Ehhh) for i._ZN15Adafruit_ST7789C1Ehhh
    adafruit_st7789.o(.ARM.exidx) refers to adafruit_st7789.o(i._ZN15Adafruit_ST7789C1Ehhhhh) for i._ZN15Adafruit_ST7789C1Ehhhhh
    adafruit_st7789.o(.ARM.exidx) refers to adafruit_st7789.o(i._ZN15Adafruit_ST77898spiWriteEh) for i._ZN15Adafruit_ST77898spiWriteEh
    adafruit_st7789.o(.ARM.exidx) refers to adafruit_st7789.o(i._ZN15Adafruit_ST778912writeCommandEh) for i._ZN15Adafruit_ST778912writeCommandEh
    adafruit_st7789.o(.ARM.exidx) refers to adafruit_st7789.o(i._ZN15Adafruit_ST77899writeDataEh) for i._ZN15Adafruit_ST77899writeDataEh
    adafruit_st7789.o(.ARM.exidx) refers to adafruit_st7789.o(i._ZN15Adafruit_ST77895beginEv) for i._ZN15Adafruit_ST77895beginEv
    adafruit_st7789.o(.ARM.exidx) refers to adafruit_st7789.o(i._ZN15Adafruit_ST778911writeData16Et) for i._ZN15Adafruit_ST778911writeData16Et
    adafruit_st7789.o(.ARM.exidx) refers to adafruit_st7789.o(i._ZN15Adafruit_ST77899drawPixelEsst) for i._ZN15Adafruit_ST77899drawPixelEsst
    adafruit_st7789.o(.ARM.exidx) refers to adafruit_st7789.o(i._ZN15Adafruit_ST778913setAddrWindowEssss) for i._ZN15Adafruit_ST778913setAddrWindowEssss
    adafruit_st7789.o(.ARM.exidx) refers to adafruit_st7789.o(i._ZN15Adafruit_ST77899setCursorEss) for i._ZN15Adafruit_ST77899setCursorEss
    adafruit_st7789.o(.ARM.exidx) refers to adafruit_st7789.o(i._ZN15Adafruit_ST778911setRotationEh) for i._ZN15Adafruit_ST778911setRotationEh
    adafruit_st7789.o(.ARM.exidx) refers to adafruit_st7789.o(i._ZN15Adafruit_ST778910fillScreenEt) for i._ZN15Adafruit_ST778910fillScreenEt
    adafruit_st7789.o(.ARM.exidx) refers to adafruit_st7789.o(i._ZN15Adafruit_ST778913drawFastVLineEssst) for i._ZN15Adafruit_ST778913drawFastVLineEssst
    adafruit_st7789.o(.ARM.exidx) refers to adafruit_st7789.o(i._ZN15Adafruit_ST778913drawFastHLineEssst) for i._ZN15Adafruit_ST778913drawFastHLineEssst
    adafruit_st7789.o(.ARM.exidx) refers to adafruit_st7789.o(i._ZN15Adafruit_ST778913drawRGBBitmapEssPtss) for i._ZN15Adafruit_ST778913drawRGBBitmapEssPtss
    adafruit_st7789.o(.ARM.exidx) refers to adafruit_st7789.o(i._ZN15Adafruit_ST778917drawFastRGBBitmapEssPtss) for i._ZN15Adafruit_ST778917drawFastRGBBitmapEssPtss
    buttonevent.o(i._ZN11ButtonEvent12EventMonitorEb) refers to delay.o(i.millis) for millis
    buttonevent.o(i._ZN11ButtonEvent12EventMonitorEb) refers to buttonevent.o(i._ZN11ButtonEvent12GetTickElapsEj) for ButtonEvent::GetTickElaps(unsigned)
    buttonevent.o(i._ZN11ButtonEvent12GetTickElapsEj) refers to delay.o(i.millis) for millis
    buttonevent.o(i._ZN11ButtonEventC1Ettt) refers to rt_memclr_w.o(.text) for __aeabi_memclr4
    buttonevent.o(.ARM.exidx) refers to buttonevent.o(i._ZN11ButtonEventC1Ettt) for i._ZN11ButtonEventC1Ettt
    buttonevent.o(.ARM.exidx) refers to buttonevent.o(i._ZN11ButtonEvent11EventAttachEPFvPS_iE) for i._ZN11ButtonEvent11EventAttachEPFvPS_iE
    buttonevent.o(.ARM.exidx) refers to buttonevent.o(i._ZN11ButtonEvent12GetTickElapsEj) for i._ZN11ButtonEvent12GetTickElapsEj
    buttonevent.o(.ARM.exidx) refers to buttonevent.o(i._ZN11ButtonEvent12EventMonitorEb) for i._ZN11ButtonEvent12EventMonitorEb
    ff.o(i.check_fs) refers to ff.o(i.move_window) for move_window
    ff.o(i.create_chain) refers to ff.o(i.get_fat) for get_fat
    ff.o(i.create_chain) refers to ff.o(i.put_fat) for put_fat
    ff.o(i.create_name) refers to ff.o(i.mem_set) for mem_set
    ff.o(i.create_name) refers to ff.o(i.chk_chr) for chk_chr
    ff.o(i.dir_alloc) refers to ff.o(i.dir_sdi) for dir_sdi
    ff.o(i.dir_alloc) refers to ff.o(i.move_window) for move_window
    ff.o(i.dir_alloc) refers to ff.o(i.dir_next) for dir_next
    ff.o(i.dir_next) refers to ff.o(i.get_fat) for get_fat
    ff.o(i.dir_next) refers to ff.o(i.create_chain) for create_chain
    ff.o(i.dir_next) refers to ff.o(i.sync_window) for sync_window
    ff.o(i.dir_next) refers to ff.o(i.mem_set) for mem_set
    ff.o(i.dir_next) refers to ff.o(i.clust2sect) for clust2sect
    ff.o(i.dir_read) refers to ff.o(i.move_window) for move_window
    ff.o(i.dir_read) refers to ff.o(i.dir_next) for dir_next
    ff.o(i.dir_register) refers to ff.o(i.dir_alloc) for dir_alloc
    ff.o(i.dir_register) refers to ff.o(i.move_window) for move_window
    ff.o(i.dir_register) refers to ff.o(i.mem_set) for mem_set
    ff.o(i.dir_register) refers to ff.o(i.mem_cpy) for mem_cpy
    ff.o(i.dir_remove) refers to ff.o(i.dir_sdi) for dir_sdi
    ff.o(i.dir_remove) refers to ff.o(i.move_window) for move_window
    ff.o(i.dir_remove) refers to ff.o(i.mem_set) for mem_set
    ff.o(i.dir_sdi) refers to ff.o(i.get_fat) for get_fat
    ff.o(i.dir_sdi) refers to ff.o(i.clust2sect) for clust2sect
    ff.o(i.f_chmod) refers to ff.o(i.find_volume) for find_volume
    ff.o(i.f_chmod) refers to ff.o(i.follow_path) for follow_path
    ff.o(i.f_chmod) refers to ff.o(i.sync_fs) for sync_fs
    ff.o(i.f_close) refers to ff.o(i.f_sync) for f_sync
    ff.o(i.f_close) refers to ff.o(i.validate) for validate
    ff.o(i.f_closedir) refers to ff.o(i.validate) for validate
    ff.o(i.f_getfree) refers to ff.o(i.find_volume) for find_volume
    ff.o(i.f_getfree) refers to ff.o(i.get_fat) for get_fat
    ff.o(i.f_getfree) refers to ff.o(i.move_window) for move_window
    ff.o(i.f_getlabel) refers to ff.o(i.find_volume) for find_volume
    ff.o(i.f_getlabel) refers to ff.o(i.dir_sdi) for dir_sdi
    ff.o(i.f_getlabel) refers to ff.o(i.dir_read) for dir_read
    ff.o(i.f_getlabel) refers to ff.o(i.mem_cpy) for mem_cpy
    ff.o(i.f_getlabel) refers to ff.o(i.move_window) for move_window
    ff.o(i.f_gets) refers to ff.o(i.f_read) for f_read
    ff.o(i.f_lseek) refers to ff.o(i.validate) for validate
    ff.o(i.f_lseek) refers to ff.o(i.clmt_clust) for clmt_clust
    ff.o(i.f_lseek) refers to ff.o(i.clust2sect) for clust2sect
    ff.o(i.f_lseek) refers to diskio.o(i.disk_write) for disk_write
    ff.o(i.f_lseek) refers to ff.o(i.get_fat) for get_fat
    ff.o(i.f_lseek) refers to diskio.o(i.disk_read) for disk_read
    ff.o(i.f_lseek) refers to ff.o(i.create_chain) for create_chain
    ff.o(i.f_mkdir) refers to diskio.o(i.get_fattime) for get_fattime
    ff.o(i.f_mkdir) refers to ff.o(i.find_volume) for find_volume
    ff.o(i.f_mkdir) refers to ff.o(i.follow_path) for follow_path
    ff.o(i.f_mkdir) refers to ff.o(i.create_chain) for create_chain
    ff.o(i.f_mkdir) refers to ff.o(i.sync_window) for sync_window
    ff.o(i.f_mkdir) refers to ff.o(i.clust2sect) for clust2sect
    ff.o(i.f_mkdir) refers to ff.o(i.mem_set) for mem_set
    ff.o(i.f_mkdir) refers to ff.o(i.st_clust) for st_clust
    ff.o(i.f_mkdir) refers to ff.o(i.mem_cpy) for mem_cpy
    ff.o(i.f_mkdir) refers to ff.o(i.dir_register) for dir_register
    ff.o(i.f_mkdir) refers to ff.o(i.remove_chain) for remove_chain
    ff.o(i.f_mkdir) refers to ff.o(i.sync_fs) for sync_fs
    ff.o(i.f_mkfs) refers to ff.o(i.get_ldnumber) for get_ldnumber
    ff.o(i.f_mkfs) refers to diskio.o(i.disk_initialize) for disk_initialize
    ff.o(i.f_mkfs) refers to diskio.o(i.disk_ioctl) for disk_ioctl
    ff.o(i.f_mkfs) refers to ff.o(i.mem_set) for mem_set
    ff.o(i.f_mkfs) refers to diskio.o(i.disk_write) for disk_write
    ff.o(i.f_mkfs) refers to ff.o(i.mem_cpy) for mem_cpy
    ff.o(i.f_mkfs) refers to diskio.o(i.get_fattime) for get_fattime
    ff.o(i.f_mkfs) refers to ff.o(.bss) for .bss
    ff.o(i.f_mkfs) refers to ff.o(.constdata) for .constdata
    ff.o(i.f_mount) refers to ff.o(i.get_ldnumber) for get_ldnumber
    ff.o(i.f_mount) refers to ff.o(i.find_volume) for find_volume
    ff.o(i.f_mount) refers to ff.o(.bss) for .bss
    ff.o(i.f_open) refers to ff.o(i.find_volume) for find_volume
    ff.o(i.f_open) refers to ff.o(i.follow_path) for follow_path
    ff.o(i.f_open) refers to ff.o(i.dir_register) for dir_register
    ff.o(i.f_open) refers to diskio.o(i.get_fattime) for get_fattime
    ff.o(i.f_open) refers to ff.o(i.ld_clust) for ld_clust
    ff.o(i.f_open) refers to ff.o(i.st_clust) for st_clust
    ff.o(i.f_open) refers to ff.o(i.remove_chain) for remove_chain
    ff.o(i.f_open) refers to ff.o(i.move_window) for move_window
    ff.o(i.f_opendir) refers to ff.o(i.find_volume) for find_volume
    ff.o(i.f_opendir) refers to ff.o(i.follow_path) for follow_path
    ff.o(i.f_opendir) refers to ff.o(i.ld_clust) for ld_clust
    ff.o(i.f_opendir) refers to ff.o(i.dir_sdi) for dir_sdi
    ff.o(i.f_printf) refers to ff.o(i.putc_bfd) for putc_bfd
    ff.o(i.f_printf) refers to ff.o(i.f_write) for f_write
    ff.o(i.f_putc) refers to ff.o(i.putc_bfd) for putc_bfd
    ff.o(i.f_putc) refers to ff.o(i.f_write) for f_write
    ff.o(i.f_puts) refers to ff.o(i.putc_bfd) for putc_bfd
    ff.o(i.f_puts) refers to ff.o(i.f_write) for f_write
    ff.o(i.f_read) refers to ff.o(i.validate) for validate
    ff.o(i.f_read) refers to ff.o(i.clmt_clust) for clmt_clust
    ff.o(i.f_read) refers to ff.o(i.get_fat) for get_fat
    ff.o(i.f_read) refers to ff.o(i.clust2sect) for clust2sect
    ff.o(i.f_read) refers to diskio.o(i.disk_read) for disk_read
    ff.o(i.f_read) refers to ff.o(i.mem_cpy) for mem_cpy
    ff.o(i.f_read) refers to diskio.o(i.disk_write) for disk_write
    ff.o(i.f_readdir) refers to ff.o(i.validate) for validate
    ff.o(i.f_readdir) refers to ff.o(i.dir_read) for dir_read
    ff.o(i.f_readdir) refers to ff.o(i.get_fileinfo) for get_fileinfo
    ff.o(i.f_readdir) refers to ff.o(i.dir_next) for dir_next
    ff.o(i.f_readdir) refers to ff.o(i.dir_sdi) for dir_sdi
    ff.o(i.f_rename) refers to ff.o(i.find_volume) for find_volume
    ff.o(i.f_rename) refers to ff.o(i.follow_path) for follow_path
    ff.o(i.f_rename) refers to ff.o(i.mem_cpy) for mem_cpy
    ff.o(i.f_rename) refers to ff.o(i.get_ldnumber) for get_ldnumber
    ff.o(i.f_rename) refers to ff.o(i.dir_register) for dir_register
    ff.o(i.f_rename) refers to ff.o(i.ld_clust) for ld_clust
    ff.o(i.f_rename) refers to ff.o(i.clust2sect) for clust2sect
    ff.o(i.f_rename) refers to ff.o(i.move_window) for move_window
    ff.o(i.f_rename) refers to ff.o(i.st_clust) for st_clust
    ff.o(i.f_rename) refers to ff.o(i.dir_remove) for dir_remove
    ff.o(i.f_rename) refers to ff.o(i.sync_fs) for sync_fs
    ff.o(i.f_setlabel) refers to ff.o(i.find_volume) for find_volume
    ff.o(i.f_setlabel) refers to ff.o(i.chk_chr) for chk_chr
    ff.o(i.f_setlabel) refers to ff.o(i.dir_sdi) for dir_sdi
    ff.o(i.f_setlabel) refers to ff.o(i.dir_read) for dir_read
    ff.o(i.f_setlabel) refers to ff.o(i.dir_alloc) for dir_alloc
    ff.o(i.f_setlabel) refers to ff.o(i.mem_set) for mem_set
    ff.o(i.f_setlabel) refers to ff.o(i.mem_cpy) for mem_cpy
    ff.o(i.f_setlabel) refers to diskio.o(i.get_fattime) for get_fattime
    ff.o(i.f_setlabel) refers to ff.o(i.sync_fs) for sync_fs
    ff.o(i.f_stat) refers to ff.o(i.find_volume) for find_volume
    ff.o(i.f_stat) refers to ff.o(i.follow_path) for follow_path
    ff.o(i.f_stat) refers to ff.o(i.get_fileinfo) for get_fileinfo
    ff.o(i.f_sync) refers to ff.o(i.validate) for validate
    ff.o(i.f_sync) refers to diskio.o(i.disk_write) for disk_write
    ff.o(i.f_sync) refers to ff.o(i.move_window) for move_window
    ff.o(i.f_sync) refers to ff.o(i.st_clust) for st_clust
    ff.o(i.f_sync) refers to diskio.o(i.get_fattime) for get_fattime
    ff.o(i.f_sync) refers to ff.o(i.sync_fs) for sync_fs
    ff.o(i.f_truncate) refers to ff.o(i.validate) for validate
    ff.o(i.f_truncate) refers to ff.o(i.get_fat) for get_fat
    ff.o(i.f_truncate) refers to ff.o(i.remove_chain) for remove_chain
    ff.o(i.f_truncate) refers to ff.o(i.put_fat) for put_fat
    ff.o(i.f_truncate) refers to diskio.o(i.disk_write) for disk_write
    ff.o(i.f_unlink) refers to ff.o(i.find_volume) for find_volume
    ff.o(i.f_unlink) refers to ff.o(i.follow_path) for follow_path
    ff.o(i.f_unlink) refers to ff.o(i.ld_clust) for ld_clust
    ff.o(i.f_unlink) refers to ff.o(i.mem_cpy) for mem_cpy
    ff.o(i.f_unlink) refers to ff.o(i.dir_sdi) for dir_sdi
    ff.o(i.f_unlink) refers to ff.o(i.dir_read) for dir_read
    ff.o(i.f_unlink) refers to ff.o(i.dir_remove) for dir_remove
    ff.o(i.f_unlink) refers to ff.o(i.remove_chain) for remove_chain
    ff.o(i.f_unlink) refers to ff.o(i.sync_fs) for sync_fs
    ff.o(i.f_utime) refers to ff.o(i.find_volume) for find_volume
    ff.o(i.f_utime) refers to ff.o(i.follow_path) for follow_path
    ff.o(i.f_utime) refers to ff.o(i.sync_fs) for sync_fs
    ff.o(i.f_write) refers to ff.o(i.validate) for validate
    ff.o(i.f_write) refers to ff.o(i.clmt_clust) for clmt_clust
    ff.o(i.f_write) refers to ff.o(i.create_chain) for create_chain
    ff.o(i.f_write) refers to diskio.o(i.disk_write) for disk_write
    ff.o(i.f_write) refers to ff.o(i.clust2sect) for clust2sect
    ff.o(i.f_write) refers to ff.o(i.mem_cpy) for mem_cpy
    ff.o(i.f_write) refers to diskio.o(i.disk_read) for disk_read
    ff.o(i.find_volume) refers to ff.o(i.get_ldnumber) for get_ldnumber
    ff.o(i.find_volume) refers to diskio.o(i.disk_status) for disk_status
    ff.o(i.find_volume) refers to diskio.o(i.disk_initialize) for disk_initialize
    ff.o(i.find_volume) refers to ff.o(i.check_fs) for check_fs
    ff.o(i.find_volume) refers to ff.o(i.move_window) for move_window
    ff.o(i.find_volume) refers to ff.o(.bss) for .bss
    ff.o(i.find_volume) refers to ff.o(.data) for .data
    ff.o(i.follow_path) refers to ff.o(i.dir_sdi) for dir_sdi
    ff.o(i.follow_path) refers to ff.o(i.create_name) for create_name
    ff.o(i.follow_path) refers to ff.o(i.move_window) for move_window
    ff.o(i.follow_path) refers to ff.o(i.dir_next) for dir_next
    ff.o(i.follow_path) refers to ff.o(i.ld_clust) for ld_clust
    ff.o(i.get_fat) refers to ff.o(i.move_window) for move_window
    ff.o(i.move_window) refers to ff.o(i.sync_window) for sync_window
    ff.o(i.move_window) refers to diskio.o(i.disk_read) for disk_read
    ff.o(i.put_fat) refers to ff.o(i.move_window) for move_window
    ff.o(i.putc_bfd) refers to ff.o(i.f_write) for f_write
    ff.o(i.remove_chain) refers to ff.o(i.get_fat) for get_fat
    ff.o(i.remove_chain) refers to ff.o(i.put_fat) for put_fat
    ff.o(i.sync_fs) refers to ff.o(i.sync_window) for sync_window
    ff.o(i.sync_fs) refers to ff.o(i.mem_set) for mem_set
    ff.o(i.sync_fs) refers to diskio.o(i.disk_write) for disk_write
    ff.o(i.sync_fs) refers to diskio.o(i.disk_ioctl) for disk_ioctl
    ff.o(i.sync_window) refers to diskio.o(i.disk_write) for disk_write
    ff.o(i.validate) refers to diskio.o(i.disk_status) for disk_status
    diskio.o(i._Z10ff_memfreePv) refers to h1_free.o(.text) for free
    diskio.o(i._Z11ff_memallocj) refers to h1_alloc.o(.text) for malloc
    diskio.o(i.disk_initialize) refers to sdfatfs.o(i._ZN10SD_Manager7SD_InitEv) for SD_Manager::SD_Init()
    diskio.o(i.disk_initialize) refers to sdfatfs.o(.bss) for HAL::SD
    diskio.o(i.disk_ioctl) refers to llsdiv.o(.text) for __aeabi_ldivmod
    diskio.o(i.disk_ioctl) refers to sdfatfs.o(.bss) for HAL::SD
    diskio.o(i.disk_read) refers to sdfatfs.o(i._ZN10SD_Manager7SD_InitEv) for SD_Manager::SD_Init()
    diskio.o(i.disk_read) refers to sdfatfs.o(i._ZN10SD_Manager11SD_ReadDiskEPhjh) for SD_Manager::SD_ReadDisk(unsigned char*, unsigned, unsigned char)
    diskio.o(i.disk_read) refers to sdfatfs.o(.bss) for HAL::SD
    diskio.o(i.disk_write) refers to sdfatfs.o(i._ZN10SD_Manager7SD_InitEv) for SD_Manager::SD_Init()
    diskio.o(i.disk_write) refers to sdfatfs.o(i._ZN10SD_Manager12SD_WriteDiskEPhjh) for SD_Manager::SD_WriteDisk(unsigned char*, unsigned, unsigned char)
    diskio.o(i.disk_write) refers to sdfatfs.o(.bss) for HAL::SD
    diskio.o(.ARM.exidx) refers to diskio.o(i.disk_initialize) for i.disk_initialize
    diskio.o(.ARM.exidx) refers to diskio.o(i.disk_status) for i.disk_status
    diskio.o(.ARM.exidx) refers to diskio.o(i.disk_read) for i.disk_read
    diskio.o(.ARM.exidx) refers to diskio.o(i.disk_write) for i.disk_write
    diskio.o(.ARM.exidx) refers to diskio.o(i.disk_ioctl) for i.disk_ioctl
    diskio.o(.ARM.exidx) refers to diskio.o(i.get_fattime) for i.get_fattime
    diskio.o(.ARM.exidx) refers to diskio.o(i._Z11ff_memallocj) for i._Z11ff_memallocj
    diskio.o(.ARM.exidx) refers to diskio.o(i._Z10ff_memfreePv) for i._Z10ff_memfreePv
    sdfatfs.o(i.SDIO_IRQHandler) refers to sdfatfs.o(i._ZN10SD_Manager16SD_ProcessIRQSrcEv) for SD_Manager::SD_ProcessIRQSrc()
    sdfatfs.o(i.SDIO_IRQHandler) refers to sdfatfs.o(.bss) for .bss
    sdfatfs.o(i._ZN10SD_Manager10SD_PowerONEv) refers to stm32f4xx_sdio.o(i.SDIO_Init) for SDIO_Init
    sdfatfs.o(i._ZN10SD_Manager10SD_PowerONEv) refers to stm32f4xx_sdio.o(i.SDIO_SetPowerState) for SDIO_SetPowerState
    sdfatfs.o(i._ZN10SD_Manager10SD_PowerONEv) refers to stm32f4xx_sdio.o(i.SDIO_SendCommand) for SDIO_SendCommand
    sdfatfs.o(i._ZN10SD_Manager10SD_PowerONEv) refers to sdfatfs.o(i._ZN10SD_Manager8CmdErrorEv) for SD_Manager::CmdError()
    sdfatfs.o(i._ZN10SD_Manager10SD_PowerONEv) refers to sdfatfs.o(i._ZN10SD_Manager13CmdResp7ErrorEv) for SD_Manager::CmdResp7Error()
    sdfatfs.o(i._ZN10SD_Manager10SD_PowerONEv) refers to sdfatfs.o(i._ZN10SD_Manager13CmdResp1ErrorEh) for SD_Manager::CmdResp1Error(unsigned char)
    sdfatfs.o(i._ZN10SD_Manager10SD_PowerONEv) refers to sdfatfs.o(i._ZN10SD_Manager13CmdResp3ErrorEv) for SD_Manager::CmdResp3Error()
    sdfatfs.o(i._ZN10SD_Manager11SDEnWideBusEh) refers to sdfatfs.o(i._ZN10SD_Manager7FindSCREtPj) for SD_Manager::FindSCR(unsigned short, unsigned*)
    sdfatfs.o(i._ZN10SD_Manager11SDEnWideBusEh) refers to stm32f4xx_sdio.o(i.SDIO_SendCommand) for SDIO_SendCommand
    sdfatfs.o(i._ZN10SD_Manager11SDEnWideBusEh) refers to sdfatfs.o(i._ZN10SD_Manager13CmdResp1ErrorEh) for SD_Manager::CmdResp1Error(unsigned char)
    sdfatfs.o(i._ZN10SD_Manager11SD_GetStateEv) refers to sdfatfs.o(i._ZN10SD_Manager13SD_SendStatusEPj) for SD_Manager::SD_SendStatus(unsigned*)
    sdfatfs.o(i._ZN10SD_Manager11SD_PowerOFFEv) refers to stm32f4xx_sdio.o(i.SDIO_SetPowerState) for SDIO_SetPowerState
    sdfatfs.o(i._ZN10SD_Manager11SD_ReadDiskEPhjh) refers to sdfatfs.o(i._ZN10SD_Manager12SD_ReadBlockEPhxt) for SD_Manager::SD_ReadBlock(unsigned char*, long long, unsigned short)
    sdfatfs.o(i._ZN10SD_Manager11SD_ReadDiskEPhjh) refers to rt_memcpy_v6.o(.text) for __aeabi_memcpy
    sdfatfs.o(i._ZN10SD_Manager11SD_ReadDiskEPhjh) refers to sdfatfs.o(i._ZN10SD_Manager18SD_ReadMultiBlocksEPhxtj) for SD_Manager::SD_ReadMultiBlocks(unsigned char*, long long, unsigned short, unsigned)
    sdfatfs.o(i._ZN10SD_Manager11SD_ReadDiskEPhjh) refers to sdfatfs.o(.bss) for .bss
    sdfatfs.o(i._ZN10SD_Manager12SD_ReadBlockEPhxt) refers to stm32f4xx_sdio.o(i.SDIO_DataConfig) for SDIO_DataConfig
    sdfatfs.o(i._ZN10SD_Manager12SD_ReadBlockEPhxt) refers to sdfatfs.o(i._ZN10SD_Manager34convert_from_bytes_to_power_of_twoEt) for SD_Manager::convert_from_bytes_to_power_of_two(unsigned short)
    sdfatfs.o(i._ZN10SD_Manager12SD_ReadBlockEPhxt) refers to stm32f4xx_sdio.o(i.SDIO_SendCommand) for SDIO_SendCommand
    sdfatfs.o(i._ZN10SD_Manager12SD_ReadBlockEPhxt) refers to sdfatfs.o(i._ZN10SD_Manager13CmdResp1ErrorEh) for SD_Manager::CmdResp1Error(unsigned char)
    sdfatfs.o(i._ZN10SD_Manager12SD_ReadBlockEPhxt) refers to sdfatfs.o(.emb_text) for _INTX_DISABLE
    sdfatfs.o(i._ZN10SD_Manager12SD_ReadBlockEPhxt) refers to stm32f4xx_sdio.o(i.SDIO_GetFlagStatus) for SDIO_GetFlagStatus
    sdfatfs.o(i._ZN10SD_Manager12SD_ReadBlockEPhxt) refers to stm32f4xx_sdio.o(i.SDIO_ClearFlag) for SDIO_ClearFlag
    sdfatfs.o(i._ZN10SD_Manager12SD_ReadBlockEPhxt) refers to sdfatfs.o(i._ZN10SD_Manager13SD_DMA_ConfigEPjjj) for SD_Manager::SD_DMA_Config(unsigned*, unsigned, unsigned)
    sdfatfs.o(i._ZN10SD_Manager12SD_WriteDiskEPhjh) refers to rt_memcpy_v6.o(.text) for __aeabi_memcpy
    sdfatfs.o(i._ZN10SD_Manager12SD_WriteDiskEPhjh) refers to sdfatfs.o(i._ZN10SD_Manager13SD_WriteBlockEPhxt) for SD_Manager::SD_WriteBlock(unsigned char*, long long, unsigned short)
    sdfatfs.o(i._ZN10SD_Manager12SD_WriteDiskEPhjh) refers to sdfatfs.o(i._ZN10SD_Manager19SD_WriteMultiBlocksEPhxtj) for SD_Manager::SD_WriteMultiBlocks(unsigned char*, long long, unsigned short, unsigned)
    sdfatfs.o(i._ZN10SD_Manager12SD_WriteDiskEPhjh) refers to sdfatfs.o(.bss) for .bss
    sdfatfs.o(i._ZN10SD_Manager13CmdResp1ErrorEh) refers to stm32f4xx_sdio.o(i.SDIO_GetFlagStatus) for SDIO_GetFlagStatus
    sdfatfs.o(i._ZN10SD_Manager13CmdResp1ErrorEh) refers to stm32f4xx_sdio.o(i.SDIO_ClearFlag) for SDIO_ClearFlag
    sdfatfs.o(i._ZN10SD_Manager13CmdResp2ErrorEv) refers to stm32f4xx_sdio.o(i.SDIO_GetFlagStatus) for SDIO_GetFlagStatus
    sdfatfs.o(i._ZN10SD_Manager13CmdResp2ErrorEv) refers to stm32f4xx_sdio.o(i.SDIO_ClearFlag) for SDIO_ClearFlag
    sdfatfs.o(i._ZN10SD_Manager13CmdResp3ErrorEv) refers to stm32f4xx_sdio.o(i.SDIO_GetFlagStatus) for SDIO_GetFlagStatus
    sdfatfs.o(i._ZN10SD_Manager13CmdResp3ErrorEv) refers to stm32f4xx_sdio.o(i.SDIO_ClearFlag) for SDIO_ClearFlag
    sdfatfs.o(i._ZN10SD_Manager13CmdResp6ErrorEhPt) refers to stm32f4xx_sdio.o(i.SDIO_GetFlagStatus) for SDIO_GetFlagStatus
    sdfatfs.o(i._ZN10SD_Manager13CmdResp6ErrorEhPt) refers to stm32f4xx_sdio.o(i.SDIO_ClearFlag) for SDIO_ClearFlag
    sdfatfs.o(i._ZN10SD_Manager13CmdResp7ErrorEv) refers to stm32f4xx_sdio.o(i.SDIO_ClearFlag) for SDIO_ClearFlag
    sdfatfs.o(i._ZN10SD_Manager13SD_DMA_ConfigEPjjj) refers to stm32f4xx_dma.o(i.DMA_GetCmdStatus) for DMA_GetCmdStatus
    sdfatfs.o(i._ZN10SD_Manager13SD_DMA_ConfigEPjjj) refers to stm32f4xx_dma.o(i.DMA_DeInit) for DMA_DeInit
    sdfatfs.o(i._ZN10SD_Manager13SD_DMA_ConfigEPjjj) refers to stm32f4xx_dma.o(i.DMA_Init) for DMA_Init
    sdfatfs.o(i._ZN10SD_Manager13SD_DMA_ConfigEPjjj) refers to stm32f4xx_dma.o(i.DMA_FlowControllerConfig) for DMA_FlowControllerConfig
    sdfatfs.o(i._ZN10SD_Manager13SD_DMA_ConfigEPjjj) refers to stm32f4xx_dma.o(i.DMA_Cmd) for DMA_Cmd
    sdfatfs.o(i._ZN10SD_Manager13SD_SendStatusEPj) refers to stm32f4xx_sdio.o(i.SDIO_SendCommand) for SDIO_SendCommand
    sdfatfs.o(i._ZN10SD_Manager13SD_SendStatusEPj) refers to sdfatfs.o(i._ZN10SD_Manager13CmdResp1ErrorEh) for SD_Manager::CmdResp1Error(unsigned char)
    sdfatfs.o(i._ZN10SD_Manager13SD_WriteBlockEPhxt) refers to stm32f4xx_sdio.o(i.SDIO_DataConfig) for SDIO_DataConfig
    sdfatfs.o(i._ZN10SD_Manager13SD_WriteBlockEPhxt) refers to sdfatfs.o(i._ZN10SD_Manager34convert_from_bytes_to_power_of_twoEt) for SD_Manager::convert_from_bytes_to_power_of_two(unsigned short)
    sdfatfs.o(i._ZN10SD_Manager13SD_WriteBlockEPhxt) refers to stm32f4xx_sdio.o(i.SDIO_SendCommand) for SDIO_SendCommand
    sdfatfs.o(i._ZN10SD_Manager13SD_WriteBlockEPhxt) refers to sdfatfs.o(i._ZN10SD_Manager13CmdResp1ErrorEh) for SD_Manager::CmdResp1Error(unsigned char)
    sdfatfs.o(i._ZN10SD_Manager13SD_WriteBlockEPhxt) refers to sdfatfs.o(.emb_text) for _INTX_DISABLE
    sdfatfs.o(i._ZN10SD_Manager13SD_WriteBlockEPhxt) refers to stm32f4xx_sdio.o(i.SDIO_GetFlagStatus) for SDIO_GetFlagStatus
    sdfatfs.o(i._ZN10SD_Manager13SD_WriteBlockEPhxt) refers to stm32f4xx_sdio.o(i.SDIO_ClearFlag) for SDIO_ClearFlag
    sdfatfs.o(i._ZN10SD_Manager13SD_WriteBlockEPhxt) refers to sdfatfs.o(i._ZN10SD_Manager13SD_DMA_ConfigEPjjj) for SD_Manager::SD_DMA_Config(unsigned*, unsigned, unsigned)
    sdfatfs.o(i._ZN10SD_Manager13SD_WriteBlockEPhxt) refers to sdfatfs.o(i._ZN10SD_Manager7SD_InitEv) for SD_Manager::SD_Init()
    sdfatfs.o(i._ZN10SD_Manager13SD_WriteBlockEPhxt) refers to sdfatfs.o(i._ZN10SD_Manager17IsCardProgrammingEPh) for SD_Manager::IsCardProgramming(unsigned char*)
    sdfatfs.o(i._ZN10SD_Manager16SD_ProcessIRQSrcEv) refers to stm32f4xx_sdio.o(i.SDIO_GetFlagStatus) for SDIO_GetFlagStatus
    sdfatfs.o(i._ZN10SD_Manager16SD_ProcessIRQSrcEv) refers to stm32f4xx_sdio.o(i.SDIO_SendCommand) for SDIO_SendCommand
    sdfatfs.o(i._ZN10SD_Manager16SD_ProcessIRQSrcEv) refers to sdfatfs.o(i._ZN10SD_Manager13CmdResp1ErrorEh) for SD_Manager::CmdResp1Error(unsigned char)
    sdfatfs.o(i._ZN10SD_Manager16SD_ProcessIRQSrcEv) refers to stm32f4xx_sdio.o(i.SDIO_ClearFlag) for SDIO_ClearFlag
    sdfatfs.o(i._ZN10SD_Manager17IsCardProgrammingEPh) refers to stm32f4xx_sdio.o(i.SDIO_SendCommand) for SDIO_SendCommand
    sdfatfs.o(i._ZN10SD_Manager17IsCardProgrammingEPh) refers to stm32f4xx_sdio.o(i.SDIO_GetFlagStatus) for SDIO_GetFlagStatus
    sdfatfs.o(i._ZN10SD_Manager17IsCardProgrammingEPh) refers to stm32f4xx_sdio.o(i.SDIO_ClearFlag) for SDIO_ClearFlag
    sdfatfs.o(i._ZN10SD_Manager17SD_SelectDeselectEj) refers to stm32f4xx_sdio.o(i.SDIO_SendCommand) for SDIO_SendCommand
    sdfatfs.o(i._ZN10SD_Manager17SD_SelectDeselectEj) refers to sdfatfs.o(i._ZN10SD_Manager13CmdResp1ErrorEh) for SD_Manager::CmdResp1Error(unsigned char)
    sdfatfs.o(i._ZN10SD_Manager18SD_InitializeCardsEv) refers to stm32f4xx_sdio.o(i.SDIO_GetPowerState) for SDIO_GetPowerState
    sdfatfs.o(i._ZN10SD_Manager18SD_InitializeCardsEv) refers to stm32f4xx_sdio.o(i.SDIO_SendCommand) for SDIO_SendCommand
    sdfatfs.o(i._ZN10SD_Manager18SD_InitializeCardsEv) refers to sdfatfs.o(i._ZN10SD_Manager13CmdResp2ErrorEv) for SD_Manager::CmdResp2Error()
    sdfatfs.o(i._ZN10SD_Manager18SD_InitializeCardsEv) refers to sdfatfs.o(i._ZN10SD_Manager13CmdResp6ErrorEhPt) for SD_Manager::CmdResp6Error(unsigned char, unsigned short*)
    sdfatfs.o(i._ZN10SD_Manager18SD_ReadMultiBlocksEPhxtj) refers to stm32f4xx_sdio.o(i.SDIO_DataConfig) for SDIO_DataConfig
    sdfatfs.o(i._ZN10SD_Manager18SD_ReadMultiBlocksEPhxtj) refers to sdfatfs.o(i._ZN10SD_Manager34convert_from_bytes_to_power_of_twoEt) for SD_Manager::convert_from_bytes_to_power_of_two(unsigned short)
    sdfatfs.o(i._ZN10SD_Manager18SD_ReadMultiBlocksEPhxtj) refers to stm32f4xx_sdio.o(i.SDIO_SendCommand) for SDIO_SendCommand
    sdfatfs.o(i._ZN10SD_Manager18SD_ReadMultiBlocksEPhxtj) refers to sdfatfs.o(i._ZN10SD_Manager13CmdResp1ErrorEh) for SD_Manager::CmdResp1Error(unsigned char)
    sdfatfs.o(i._ZN10SD_Manager18SD_ReadMultiBlocksEPhxtj) refers to sdfatfs.o(.emb_text) for _INTX_DISABLE
    sdfatfs.o(i._ZN10SD_Manager18SD_ReadMultiBlocksEPhxtj) refers to stm32f4xx_sdio.o(i.SDIO_GetFlagStatus) for SDIO_GetFlagStatus
    sdfatfs.o(i._ZN10SD_Manager18SD_ReadMultiBlocksEPhxtj) refers to stm32f4xx_sdio.o(i.SDIO_ClearFlag) for SDIO_ClearFlag
    sdfatfs.o(i._ZN10SD_Manager18SD_ReadMultiBlocksEPhxtj) refers to sdfatfs.o(i._ZN10SD_Manager13SD_DMA_ConfigEPjjj) for SD_Manager::SD_DMA_Config(unsigned*, unsigned, unsigned)
    sdfatfs.o(i._ZN10SD_Manager18SD_ReadMultiBlocksEPhxtj) refers to sdfatfs.o(.data) for .data
    sdfatfs.o(i._ZN10SD_Manager19SD_WriteMultiBlocksEPhxtj) refers to stm32f4xx_sdio.o(i.SDIO_DataConfig) for SDIO_DataConfig
    sdfatfs.o(i._ZN10SD_Manager19SD_WriteMultiBlocksEPhxtj) refers to sdfatfs.o(i._ZN10SD_Manager34convert_from_bytes_to_power_of_twoEt) for SD_Manager::convert_from_bytes_to_power_of_two(unsigned short)
    sdfatfs.o(i._ZN10SD_Manager19SD_WriteMultiBlocksEPhxtj) refers to stm32f4xx_sdio.o(i.SDIO_SendCommand) for SDIO_SendCommand
    sdfatfs.o(i._ZN10SD_Manager19SD_WriteMultiBlocksEPhxtj) refers to sdfatfs.o(i._ZN10SD_Manager13CmdResp1ErrorEh) for SD_Manager::CmdResp1Error(unsigned char)
    sdfatfs.o(i._ZN10SD_Manager19SD_WriteMultiBlocksEPhxtj) refers to sdfatfs.o(.emb_text) for _INTX_DISABLE
    sdfatfs.o(i._ZN10SD_Manager19SD_WriteMultiBlocksEPhxtj) refers to stm32f4xx_sdio.o(i.SDIO_GetFlagStatus) for SDIO_GetFlagStatus
    sdfatfs.o(i._ZN10SD_Manager19SD_WriteMultiBlocksEPhxtj) refers to stm32f4xx_sdio.o(i.SDIO_ClearFlag) for SDIO_ClearFlag
    sdfatfs.o(i._ZN10SD_Manager19SD_WriteMultiBlocksEPhxtj) refers to sdfatfs.o(i._ZN10SD_Manager13SD_DMA_ConfigEPjjj) for SD_Manager::SD_DMA_Config(unsigned*, unsigned, unsigned)
    sdfatfs.o(i._ZN10SD_Manager19SD_WriteMultiBlocksEPhxtj) refers to sdfatfs.o(i._ZN10SD_Manager7SD_InitEv) for SD_Manager::SD_Init()
    sdfatfs.o(i._ZN10SD_Manager19SD_WriteMultiBlocksEPhxtj) refers to sdfatfs.o(i._ZN10SD_Manager17IsCardProgrammingEPh) for SD_Manager::IsCardProgramming(unsigned char*)
    sdfatfs.o(i._ZN10SD_Manager25SD_EnableWideBusOperationEj) refers to sdfatfs.o(i._ZN10SD_Manager11SDEnWideBusEh) for SD_Manager::SDEnWideBus(unsigned char)
    sdfatfs.o(i._ZN10SD_Manager7FindSCREtPj) refers to stm32f4xx_sdio.o(i.SDIO_SendCommand) for SDIO_SendCommand
    sdfatfs.o(i._ZN10SD_Manager7FindSCREtPj) refers to sdfatfs.o(i._ZN10SD_Manager13CmdResp1ErrorEh) for SD_Manager::CmdResp1Error(unsigned char)
    sdfatfs.o(i._ZN10SD_Manager7FindSCREtPj) refers to stm32f4xx_sdio.o(i.SDIO_DataConfig) for SDIO_DataConfig
    sdfatfs.o(i._ZN10SD_Manager7FindSCREtPj) refers to stm32f4xx_sdio.o(i.SDIO_GetFlagStatus) for SDIO_GetFlagStatus
    sdfatfs.o(i._ZN10SD_Manager7FindSCREtPj) refers to stm32f4xx_sdio.o(i.SDIO_ClearFlag) for SDIO_ClearFlag
    sdfatfs.o(i._ZN10SD_Manager7SD_InitEv) refers to stm32f4xx_rcc.o(i.RCC_AHB1PeriphClockCmd) for RCC_AHB1PeriphClockCmd
    sdfatfs.o(i._ZN10SD_Manager7SD_InitEv) refers to stm32f4xx_rcc.o(i.RCC_APB2PeriphClockCmd) for RCC_APB2PeriphClockCmd
    sdfatfs.o(i._ZN10SD_Manager7SD_InitEv) refers to stm32f4xx_rcc.o(i.RCC_APB2PeriphResetCmd) for RCC_APB2PeriphResetCmd
    sdfatfs.o(i._ZN10SD_Manager7SD_InitEv) refers to arduino.o(i.pinMode) for pinMode
    sdfatfs.o(i._ZN10SD_Manager7SD_InitEv) refers to stm32f4xx_gpio.o(i.GPIO_PinAFConfig) for GPIO_PinAFConfig
    sdfatfs.o(i._ZN10SD_Manager7SD_InitEv) refers to sdfatfs.o(i._ZN10SD_Manager20SDIO_Register_DeinitEv) for SD_Manager::SDIO_Register_Deinit()
    sdfatfs.o(i._ZN10SD_Manager7SD_InitEv) refers to misc.o(i.NVIC_Init) for NVIC_Init
    sdfatfs.o(i._ZN10SD_Manager7SD_InitEv) refers to sdfatfs.o(i._ZN10SD_Manager10SD_PowerONEv) for SD_Manager::SD_PowerON()
    sdfatfs.o(i._ZN10SD_Manager7SD_InitEv) refers to sdfatfs.o(i._ZN10SD_Manager18SD_InitializeCardsEv) for SD_Manager::SD_InitializeCards()
    sdfatfs.o(i._ZN10SD_Manager7SD_InitEv) refers to sdfatfs.o(i._ZN10SD_Manager14SD_GetCardInfoEPNS_11SD_CardInfoE) for SD_Manager::SD_GetCardInfo(SD_Manager::SD_CardInfo*)
    sdfatfs.o(i._ZN10SD_Manager7SD_InitEv) refers to sdfatfs.o(i._ZN10SD_Manager17SD_SelectDeselectEj) for SD_Manager::SD_SelectDeselect(unsigned)
    sdfatfs.o(i._ZN10SD_Manager7SD_InitEv) refers to sdfatfs.o(i._ZN10SD_Manager25SD_EnableWideBusOperationEj) for SD_Manager::SD_EnableWideBusOperation(unsigned)
    sdfatfs.o(i._ZN10SD_Manager7SD_InitEv) refers to sdfatfs.o(i._ZN10SD_Manager14SDIO_Clock_SetEh) for SD_Manager::SDIO_Clock_Set(unsigned char)
    sdfatfs.o(i._ZN10SD_Manager7SD_InitEv) refers to sdfatfs.o(i._ZN10SD_Manager16SD_SetDeviceModeEj) for SD_Manager::SD_SetDeviceMode(unsigned)
    sdfatfs.o(i._ZN10SD_Manager8CmdErrorEv) refers to stm32f4xx_sdio.o(i.SDIO_GetFlagStatus) for SDIO_GetFlagStatus
    sdfatfs.o(i._ZN10SD_Manager8CmdErrorEv) refers to stm32f4xx_sdio.o(i.SDIO_ClearFlag) for SDIO_ClearFlag
    sdfatfs.o(i._ZN3HAL12SDfatfs_InitEv) refers to sdfatfs.o(i._ZN10SD_Manager7SD_InitEv) for SD_Manager::SD_Init()
    sdfatfs.o(i._ZN3HAL12SDfatfs_InitEv) refers to ff.o(i.f_mount) for f_mount
    sdfatfs.o(i._ZN3HAL12SDfatfs_InitEv) refers to piclib.o(i.piclib_init) for piclib_init
    sdfatfs.o(i._ZN3HAL12SDfatfs_InitEv) refers to sdfatfs.o(.bss) for .bss
    sdfatfs.o(i._ZN3HAL12SDfatfs_InitEv) refers to sdfatfs.o(.data) for .data
    sdfatfs.o(i.__sti___11_Sdfatfs_cpp_SD_PATH) refers to sdfatfs.o(i._ZN10SD_ManagerC1Ev) for SD_Manager::SD_Manager()
    sdfatfs.o(i.__sti___11_Sdfatfs_cpp_SD_PATH) refers to sdfatfs.o(.bss) for .bss
    sdfatfs.o(.ARM.exidx) refers to sdfatfs.o(i._ZN10SD_Manager13CmdResp1ErrorEh) for i._ZN10SD_Manager13CmdResp1ErrorEh
    sdfatfs.o(.ARM.exidx) refers to sdfatfs.o(i._ZN10SD_Manager16SD_ProcessIRQSrcEv) for i._ZN10SD_Manager16SD_ProcessIRQSrcEv
    sdfatfs.o(.ARM.exidx) refers to sdfatfs.o(i.SDIO_IRQHandler) for i.SDIO_IRQHandler
    sdfatfs.o(.ARM.exidx) refers to sdfatfs.o(i._ZN10SD_ManagerC1Ev) for i._ZN10SD_ManagerC1Ev
    sdfatfs.o(.ARM.exidx) refers to sdfatfs.o(i._ZN10SD_Manager16SD_SetDeviceModeEj) for i._ZN10SD_Manager16SD_SetDeviceModeEj
    sdfatfs.o(.ARM.exidx) refers to sdfatfs.o(i._ZN10SD_Manager14SDIO_Clock_SetEh) for i._ZN10SD_Manager14SDIO_Clock_SetEh
    sdfatfs.o(.ARM.exidx) refers to sdfatfs.o(i._ZN10SD_Manager7FindSCREtPj) for i._ZN10SD_Manager7FindSCREtPj
    sdfatfs.o(.ARM.exidx) refers to sdfatfs.o(i._ZN10SD_Manager11SDEnWideBusEh) for i._ZN10SD_Manager11SDEnWideBusEh
    sdfatfs.o(.ARM.exidx) refers to sdfatfs.o(i._ZN10SD_Manager25SD_EnableWideBusOperationEj) for i._ZN10SD_Manager25SD_EnableWideBusOperationEj
    sdfatfs.o(.ARM.exidx) refers to sdfatfs.o(i._ZN10SD_Manager17SD_SelectDeselectEj) for i._ZN10SD_Manager17SD_SelectDeselectEj
    sdfatfs.o(.ARM.exidx) refers to sdfatfs.o(i._ZN10SD_Manager14SD_GetCardInfoEPNS_11SD_CardInfoE) for i._ZN10SD_Manager14SD_GetCardInfoEPNS_11SD_CardInfoE
    sdfatfs.o(.ARM.exidx) refers to sdfatfs.o(i._ZN10SD_Manager13CmdResp2ErrorEv) for i._ZN10SD_Manager13CmdResp2ErrorEv
    sdfatfs.o(.ARM.exidx) refers to sdfatfs.o(i._ZN10SD_Manager13CmdResp6ErrorEhPt) for i._ZN10SD_Manager13CmdResp6ErrorEhPt
    sdfatfs.o(.ARM.exidx) refers to sdfatfs.o(i._ZN10SD_Manager18SD_InitializeCardsEv) for i._ZN10SD_Manager18SD_InitializeCardsEv
    sdfatfs.o(.ARM.exidx) refers to sdfatfs.o(i._ZN10SD_Manager13CmdResp3ErrorEv) for i._ZN10SD_Manager13CmdResp3ErrorEv
    sdfatfs.o(.ARM.exidx) refers to sdfatfs.o(i._ZN10SD_Manager13CmdResp7ErrorEv) for i._ZN10SD_Manager13CmdResp7ErrorEv
    sdfatfs.o(.ARM.exidx) refers to sdfatfs.o(i._ZN10SD_Manager8CmdErrorEv) for i._ZN10SD_Manager8CmdErrorEv
    sdfatfs.o(.ARM.exidx) refers to sdfatfs.o(i._ZN10SD_Manager10SD_PowerONEv) for i._ZN10SD_Manager10SD_PowerONEv
    sdfatfs.o(.ARM.exidx) refers to sdfatfs.o(i._ZN10SD_Manager20SDIO_Register_DeinitEv) for i._ZN10SD_Manager20SDIO_Register_DeinitEv
    sdfatfs.o(.ARM.exidx) refers to sdfatfs.o(i._ZN10SD_Manager7SD_InitEv) for i._ZN10SD_Manager7SD_InitEv
    sdfatfs.o(.ARM.exidx) refers to sdfatfs.o(i._ZN10SD_Manager11SD_PowerOFFEv) for i._ZN10SD_Manager11SD_PowerOFFEv
    sdfatfs.o(.ARM.exidx) refers to sdfatfs.o(i._ZN10SD_Manager13SD_SendStatusEPj) for i._ZN10SD_Manager13SD_SendStatusEPj
    sdfatfs.o(.ARM.exidx) refers to sdfatfs.o(i._ZN10SD_Manager11SD_GetStateEv) for i._ZN10SD_Manager11SD_GetStateEv
    sdfatfs.o(.ARM.exidx) refers to sdfatfs.o(i._ZN10SD_Manager13SD_DMA_ConfigEPjjj) for i._ZN10SD_Manager13SD_DMA_ConfigEPjjj
    sdfatfs.o(.ARM.exidx) refers to sdfatfs.o(i._ZN10SD_Manager34convert_from_bytes_to_power_of_twoEt) for i._ZN10SD_Manager34convert_from_bytes_to_power_of_twoEt
    sdfatfs.o(.ARM.exidx) refers to sdfatfs.o(i._ZN10SD_Manager12SD_ReadBlockEPhxt) for i._ZN10SD_Manager12SD_ReadBlockEPhxt
    sdfatfs.o(.ARM.exidx) refers to sdfatfs.o(i._ZN10SD_Manager18SD_ReadMultiBlocksEPhxtj) for i._ZN10SD_Manager18SD_ReadMultiBlocksEPhxtj
    sdfatfs.o(.ARM.exidx) refers to sdfatfs.o(i._ZN10SD_Manager17IsCardProgrammingEPh) for i._ZN10SD_Manager17IsCardProgrammingEPh
    sdfatfs.o(.ARM.exidx) refers to sdfatfs.o(i._ZN10SD_Manager13SD_WriteBlockEPhxt) for i._ZN10SD_Manager13SD_WriteBlockEPhxt
    sdfatfs.o(.ARM.exidx) refers to sdfatfs.o(i._ZN10SD_Manager19SD_WriteMultiBlocksEPhxtj) for i._ZN10SD_Manager19SD_WriteMultiBlocksEPhxtj
    sdfatfs.o(.ARM.exidx) refers to sdfatfs.o(i._ZN10SD_Manager11SD_ReadDiskEPhjh) for i._ZN10SD_Manager11SD_ReadDiskEPhjh
    sdfatfs.o(.ARM.exidx) refers to sdfatfs.o(i._ZN10SD_Manager12SD_WriteDiskEPhjh) for i._ZN10SD_Manager12SD_WriteDiskEPhjh
    sdfatfs.o(.ARM.exidx) refers to sdfatfs.o(i._ZN3HAL12SDfatfs_InitEv) for i._ZN3HAL12SDfatfs_InitEv
    sdfatfs.o(.ARM.exidx) refers to sdfatfs.o(i.__sti___11_Sdfatfs_cpp_SD_PATH) for i.__sti___11_Sdfatfs_cpp_SD_PATH
    sdfatfs.o(.data) refers to sdfatfs.o(.conststring) for .conststring
    sdfatfs.o(.init_array) refers to sdfatfs.o(i.__sti___11_Sdfatfs_cpp_SD_PATH) for __sti___11_Sdfatfs_cpp_SD_PATH
    sdfatfs.o(.init_array) refers to init_aeabi.o(.text) for __cpp_initialize__aeabi_
    button.o(i._Z15Button_CallBackP11ButtonEventi) refers to pagemanager.o(i._ZN11PageManager17PageEventTransmitEPvi) for PageManager::PageEventTransmit(void*, int)
    button.o(i._Z15Button_CallBackP11ButtonEventi) refers to display.o(.bss) for Display::page
    button.o(i._ZN3HAL11Button_InitEv) refers to arduino.o(i.pinMode) for pinMode
    button.o(i._ZN3HAL11Button_InitEv) refers to buttonevent.o(i._ZN11ButtonEvent11EventAttachEPFvPS_iE) for ButtonEvent::EventAttach(void(*)(ButtonEvent*, int))
    button.o(i._ZN3HAL11Button_InitEv) refers to button.o(i._Z15Button_CallBackP11ButtonEventi) for Button_CallBack(ButtonEvent*, int)
    button.o(i._ZN3HAL11Button_InitEv) refers to button.o(.bss) for .bss
    button.o(i._ZN3HAL11Button_ScanEv) refers to buttonevent.o(i._ZN11ButtonEvent12EventMonitorEb) for ButtonEvent::EventMonitor(bool)
    button.o(i._ZN3HAL11Button_ScanEv) refers to gpio.o(.constdata) for PIN_MAP
    button.o(i._ZN3HAL11Button_ScanEv) refers to button.o(.bss) for .bss
    button.o(i.__sti___10_Button_cpp_1974fa3d) refers to buttonevent.o(i._ZN11ButtonEventC1Ettt) for ButtonEvent::ButtonEvent(unsigned short, unsigned short, unsigned short)
    button.o(i.__sti___10_Button_cpp_1974fa3d) refers to button.o(.bss) for .bss
    button.o(.ARM.exidx) refers to button.o(i._Z15Button_CallBackP11ButtonEventi) for i._Z15Button_CallBackP11ButtonEventi
    button.o(.ARM.exidx) refers to button.o(i._ZN3HAL11Button_InitEv) for i._ZN3HAL11Button_InitEv
    button.o(.ARM.exidx) refers to button.o(i._ZN3HAL11Button_ScanEv) for i._ZN3HAL11Button_ScanEv
    button.o(.ARM.exidx) refers to button.o(i.__sti___10_Button_cpp_1974fa3d) for i.__sti___10_Button_cpp_1974fa3d
    button.o(.init_array) refers to button.o(i.__sti___10_Button_cpp_1974fa3d) for __sti___10_Button_cpp_1974fa3d
    button.o(.init_array) refers to init_aeabi.o(.text) for __cpp_initialize__aeabi_
    app_sdfatfs.o(i._ZN3APP10File_WriteEPKcPvj) refers to ff.o(i.f_open) for f_open
    app_sdfatfs.o(i._ZN3APP10File_WriteEPKcPvj) refers to ff.o(i.f_write) for f_write
    app_sdfatfs.o(i._ZN3APP10File_WriteEPKcPvj) refers to ff.o(i.f_close) for f_close
    app_sdfatfs.o(i._ZN3APP10File_WriteEPKcPvj) refers to sdfatfs.o(.bss) for HAL::f
    app_sdfatfs.o(i._ZN3APP10File_WriteEPKcPvj) refers to app_sdfatfs.o(.data) for .data
    app_sdfatfs.o(i._ZN3APP11RamSendToSdEPKcPv) refers to _printf_percent.o(.ARM.Collect$$_printf_percent$$00000000) for _printf_percent
    app_sdfatfs.o(i._ZN3APP11RamSendToSdEPKcPv) refers to _printf_d.o(.ARM.Collect$$_printf_percent$$00000009) for _printf_d
    app_sdfatfs.o(i._ZN3APP11RamSendToSdEPKcPv) refers to _printf_dec.o(.text) for _printf_int_dec
    app_sdfatfs.o(i._ZN3APP11RamSendToSdEPKcPv) refers to __2sprintf.o(.text) for __2sprintf
    app_sdfatfs.o(i._ZN3APP11RamSendToSdEPKcPv) refers to app_sdfatfs.o(i._ZN3APP10File_WriteEPKcPvj) for APP::File_Write(const char*, void*, unsigned)
    app_sdfatfs.o(i._ZN3APP11SdSendToRamEPKcPv) refers to app_sdfatfs.o(i._ZN3APP9File_ReadEPKcPhj) for APP::File_Read(const char*, unsigned char*, unsigned)
    app_sdfatfs.o(i._ZN3APP9File_ReadEPKcPhj) refers to ff.o(i.f_open) for f_open
    app_sdfatfs.o(i._ZN3APP9File_ReadEPKcPhj) refers to ff.o(i.f_read) for f_read
    app_sdfatfs.o(i._ZN3APP9File_ReadEPKcPhj) refers to ff.o(i.f_close) for f_close
    app_sdfatfs.o(i._ZN3APP9File_ReadEPKcPhj) refers to sdfatfs.o(.bss) for HAL::f
    app_sdfatfs.o(i._ZN3APP9File_ReadEPKcPhj) refers to app_sdfatfs.o(.data) for .data
    app_sdfatfs.o(.ARM.exidx) refers to app_sdfatfs.o(i._ZN3APP9File_ReadEPKcPhj) for i._ZN3APP9File_ReadEPKcPhj
    app_sdfatfs.o(.ARM.exidx) refers to app_sdfatfs.o(i._ZN3APP10File_WriteEPKcPvj) for i._ZN3APP10File_WriteEPKcPvj
    app_sdfatfs.o(.ARM.exidx) refers to app_sdfatfs.o(i._ZN3APP11SdSendToRamEPKcPv) for i._ZN3APP11SdSendToRamEPKcPv
    app_sdfatfs.o(.ARM.exidx) refers to app_sdfatfs.o(i._ZN3APP11RamSendToSdEPKcPv) for i._ZN3APP11RamSendToSdEPKcPv
    app_music.o(i._Z13Tone_Callbackjt) refers to app_music.o(i._ZN3APP9Buzz_ToneEji) for APP::Buzz_Tone(unsigned, int)
    app_music.o(i._ZN3APP10Audio_InitEv) refers to app_music.o(i._Z13Tone_Callbackjt) for Tone_Callback(unsigned, unsigned short)
    app_music.o(i._ZN3APP10Audio_InitEv) refers to app_music.o(.bss) for .bss
    app_music.o(i._ZN3APP12Audio_UpdateEv) refers to delay.o(i.millis) for millis
    app_music.o(i._ZN3APP12Audio_UpdateEv) refers to toneplayer.o(i._ZN10TonePlayer6UpdateEj) for TonePlayer::Update(unsigned)
    app_music.o(i._ZN3APP12Audio_UpdateEv) refers to app_music.o(.bss) for .bss
    app_music.o(i._ZN3APP14Buzz_SetEnableEb) refers to app_music.o(.data) for .data
    app_music.o(i._ZN3APP15Audio_PlayMusicEPKc) refers to strcmpv7m.o(.text) for strcmp
    app_music.o(i._ZN3APP15Audio_PlayMusicEPKc) refers to toneplayer.o(i._ZN10TonePlayer8SetMusicEPKNS_11MusicNode_tEt) for TonePlayer::SetMusic(const TonePlayer::MusicNode_t*, unsigned short)
    app_music.o(i._ZN3APP15Audio_PlayMusicEPKc) refers to toneplayer.o(i._ZN10TonePlayer4PlayEv) for TonePlayer::Play()
    app_music.o(i._ZN3APP15Audio_PlayMusicEPKc) refers to app_music.o(.constdata) for .constdata
    app_music.o(i._ZN3APP15Audio_PlayMusicEPKc) refers to app_music.o(.bss) for .bss
    app_music.o(i._ZN3APP9Buzz_ToneEji) refers to tone.o(i._Z4tonehjj) for tone(unsigned char, unsigned, unsigned)
    app_music.o(i._ZN3APP9Buzz_ToneEji) refers to tone.o(i._Z4tonehj) for tone(unsigned char, unsigned)
    app_music.o(i._ZN3APP9Buzz_ToneEji) refers to app_music.o(.data) for .data
    app_music.o(i._ZN3APP9Buzz_initEv) refers to arduino.o(i.pinMode) for pinMode
    app_music.o(i.__sti___13_APP_Music_cpp_6a466ea6) refers to toneplayer.o(i._ZN10TonePlayerC1Ev) for TonePlayer::TonePlayer()
    app_music.o(i.__sti___13_APP_Music_cpp_6a466ea6) refers to app_music.o(.bss) for .bss
    app_music.o(.ARM.exidx) refers to app_music.o(i._ZN3APP9Buzz_ToneEji) for i._ZN3APP9Buzz_ToneEji
    app_music.o(.ARM.exidx) refers to app_music.o(i._Z13Tone_Callbackjt) for i._Z13Tone_Callbackjt
    app_music.o(.ARM.exidx) refers to app_music.o(i._ZN3APP9Buzz_initEv) for i._ZN3APP9Buzz_initEv
    app_music.o(.ARM.exidx) refers to app_music.o(i._ZN3APP14Buzz_SetEnableEb) for i._ZN3APP14Buzz_SetEnableEb
    app_music.o(.ARM.exidx) refers to app_music.o(i._ZN3APP10Audio_InitEv) for i._ZN3APP10Audio_InitEv
    app_music.o(.ARM.exidx) refers to app_music.o(i._ZN3APP12Audio_UpdateEv) for i._ZN3APP12Audio_UpdateEv
    app_music.o(.ARM.exidx) refers to app_music.o(i._ZN3APP15Audio_PlayMusicEPKc) for i._ZN3APP15Audio_PlayMusicEPKc
    app_music.o(.ARM.exidx) refers to app_music.o(i.__sti___13_APP_Music_cpp_6a466ea6) for i.__sti___13_APP_Music_cpp_6a466ea6
    app_music.o(.constdata) refers to app_music.o(.constdata) for Music_Startup
    app_music.o(.constdata) refers to app_music.o(.conststring) for .conststring
    app_music.o(.constdata) refers to app_music.o(.constdata) for Music_Shutdown
    app_music.o(.constdata) refers to app_music.o(.constdata) for Music_Error
    app_music.o(.constdata) refers to app_music.o(.constdata) for Music_Connect
    app_music.o(.constdata) refers to app_music.o(.constdata) for Music_Disconnect
    app_music.o(.constdata) refers to app_music.o(.constdata) for Music_UnstableConnect
    app_music.o(.constdata) refers to app_music.o(.constdata) for Music_BattChargeStart
    app_music.o(.constdata) refers to app_music.o(.constdata) for Music_BattChargeEnd
    app_music.o(.constdata) refers to app_music.o(.constdata) for Music_DeviceInsert
    app_music.o(.constdata) refers to app_music.o(.constdata) for Music_DevicePullout
    app_music.o(.constdata) refers to app_music.o(.constdata) for Music_NoOperationWarning
    app_music.o(.constdata) refers to app_music.o(.constdata) for Music_SingleButton
    app_music.o(.init_array) refers to app_music.o(i.__sti___13_APP_Music_cpp_6a466ea6) for __sti___13_APP_Music_cpp_6a466ea6
    app_music.o(.init_array) refers to init_aeabi.o(.text) for __cpp_initialize__aeabi_
    display.o(i._Z9Draw_hookPKhiiii) refers to piclib.o(i.ai_load_picfile) for ai_load_picfile
    display.o(i._Z9Load_hookPKhPv) refers to app_sdfatfs.o(i._ZN3APP11SdSendToRamEPKcPv) for APP::SdSendToRam(const char*, void*)
    display.o(i._ZN7Display12Adjust_lightEbat) refers to arduino.o(i.analogWrite) for analogWrite
    display.o(i._ZN7Display12Adjust_lightEbat) refers to delay.o(i.delay_ms) for delay_ms
    display.o(i._ZN7Display12Adjust_lightEbat) refers to display.o(.data) for .data
    display.o(i._ZN7Display12Display_InitEv) refers to pwm.o(i.PWM_Init) for PWM_Init
    display.o(i._ZN7Display12Display_InitEv) refers to arduino.o(i.analogWrite) for analogWrite
    display.o(i._ZN7Display12Display_InitEv) refers to adafruit_st7789.o(i._ZN15Adafruit_ST77895beginEv) for Adafruit_ST7789::begin()
    display.o(i._ZN7Display12Display_InitEv) refers to adafruit_st7789.o(i._ZN15Adafruit_ST778910fillScreenEt) for Adafruit_ST7789::fillScreen(unsigned short)
    display.o(i._ZN7Display12Display_InitEv) refers to page_displate.o(i._Z21PageRegister_Displateh) for PageRegister_Displate(unsigned char)
    display.o(i._ZN7Display12Display_InitEv) refers to page_master.o(i._Z19PageRegister_Masterh) for PageRegister_Master(unsigned char)
    display.o(i._ZN7Display12Display_InitEv) refers to page_level.o(i._Z18PageRegister_Levelh) for PageRegister_Level(unsigned char)
    display.o(i._ZN7Display12Display_InitEv) refers to page_game.o(i._Z17PageRegister_Gameh) for PageRegister_Game(unsigned char)
    display.o(i._ZN7Display12Display_InitEv) refers to page_about.o(i._Z18PageRegister_Abouth) for PageRegister_About(unsigned char)
    display.o(i._ZN7Display12Display_InitEv) refers to pagemanager.o(i._ZN11PageManager8PagePushEh) for PageManager::PagePush(unsigned char)
    display.o(i._ZN7Display12Display_InitEv) refers to display.o(.bss) for .bss
    display.o(i._ZN7Display7RunningEv) refers to pagemanager.o(i._ZN11PageManager7RunningEv) for PageManager::Running()
    display.o(i._ZN7Display7RunningEv) refers to display.o(.bss) for .bss
    display.o(i.__sti___11_Display_cpp_1af8a7d1) refers to adafruit_st7789.o(i._ZN15Adafruit_ST7789C1Ehhh) for Adafruit_ST7789::Adafruit_ST7789(unsigned char, unsigned char, unsigned char)
    display.o(i.__sti___11_Display_cpp_1af8a7d1) refers to pagemanager.o(i._ZN11PageManagerC1Ehh) for PageManager::PageManager(unsigned char, unsigned char)
    display.o(i.__sti___11_Display_cpp_1af8a7d1) refers to aeabi_atexit.o(.text) for __aeabi_atexit
    display.o(i.__sti___11_Display_cpp_1af8a7d1) refers to display.o(.bss) for .bss
    display.o(i.__sti___11_Display_cpp_1af8a7d1) refers to pagemanager.o(i._ZN11PageManagerD1Ev) for PageManager::~PageManager()
    display.o(i.__sti___11_Display_cpp_1af8a7d1) refers to display.o(i._Z9Draw_hookPKhiiii) for Draw_hook(const unsigned char*, int, int, int, int)
    display.o(i.__sti___11_Display_cpp_1af8a7d1) refers to display.o(i._Z9Load_hookPKhPv) for Load_hook(const unsigned char*, void*)
    display.o(.ARM.exidx) refers to display.o(i._Z9Draw_hookPKhiiii) for i._Z9Draw_hookPKhiiii
    display.o(.ARM.exidx) refers to display.o(i._Z9Load_hookPKhPv) for i._Z9Load_hookPKhPv
    display.o(.ARM.exidx) refers to display.o(i._ZN7Display12Display_InitEv) for i._ZN7Display12Display_InitEv
    display.o(.ARM.exidx) refers to display.o(i._ZN7Display12Adjust_lightEbat) for i._ZN7Display12Adjust_lightEbat
    display.o(.ARM.exidx) refers to display.o(i._ZN7Display7RunningEv) for i._ZN7Display7RunningEv
    display.o(.ARM.exidx) refers to display.o(i.__sti___11_Display_cpp_1af8a7d1) for i.__sti___11_Display_cpp_1af8a7d1
    display.o(.init_array) refers to display.o(i.__sti___11_Display_cpp_1af8a7d1) for __sti___11_Display_cpp_1af8a7d1
    display.o(.init_array) refers to init_aeabi.o(.text) for __cpp_initialize__aeabi_
    page_displate.o(i._Z10Create_BariiittPKc) refers to adafruit_st7789.o(i._ZN15Adafruit_ST77899setCursorEss) for Adafruit_ST7789::setCursor(short, short)
    page_displate.o(i._Z10Create_BariiittPKc) refers to adafruit_gfx.o(i._ZN12Adafruit_GFX12setTextColorEt) for Adafruit_GFX::setTextColor(unsigned short)
    page_displate.o(i._Z10Create_BariiittPKc) refers to adafruit_gfx.o(i._ZN12Adafruit_GFX11setTextSizeEh) for Adafruit_GFX::setTextSize(unsigned char)
    page_displate.o(i._Z10Create_BariiittPKc) refers to print.o(i._ZN5Print7printlnEPKc) for Print::println(const char*)
    page_displate.o(i._Z10Create_BariiittPKc) refers to adafruit_gfx.o(i._ZN12Adafruit_GFX13fillRoundRectEssssst) for Adafruit_GFX::fillRoundRect(short, short, short, short, short, unsigned short)
    page_displate.o(i._Z10Create_BariiittPKc) refers to delay.o(i.delay_ms) for delay_ms
    page_displate.o(i._Z10Create_BariiittPKc) refers to display.o(.bss) for Display::lcd
    page_displate.o(i._Z21PageRegister_Displateh) refers to pagemanager.o(i._ZN11PageManager12PageRegisterEhPFvvES1_S1_PFvPviE) for PageManager::PageRegister(unsigned char, void(*)(), void(*)(), void(*)(), void(*)(void*, int))
    page_displate.o(i._Z21PageRegister_Displateh) refers to page_displate.o(i._Z5EventPvi) for Event(void*, int)
    page_displate.o(i._Z21PageRegister_Displateh) refers to page_displate.o(i._Z4Exitv) for Exit()
    page_displate.o(i._Z21PageRegister_Displateh) refers to page_displate.o(i._Z5Setupv) for Setup()
    page_displate.o(i._Z21PageRegister_Displateh) refers to display.o(.bss) for Display::page
    page_displate.o(i._Z4Exitv) refers to display.o(i._ZN7Display12Adjust_lightEbat) for Display::Adjust_light(bool, signed char, unsigned short)
    page_displate.o(i._Z4Exitv) refers to adafruit_st7789.o(i._ZN15Adafruit_ST778910fillScreenEt) for Adafruit_ST7789::fillScreen(unsigned short)
    page_displate.o(i._Z4Exitv) refers to display.o(.bss) for Display::lcd
    page_displate.o(i._Z5EventPvi) refers to app_music.o(i._ZN3APP15Audio_PlayMusicEPKc) for APP::Audio_PlayMusic(const char*)
    page_displate.o(i._Z5EventPvi) refers to pagemanager.o(i._ZN11PageManager8PagePushEh) for PageManager::PagePush(unsigned char)
    page_displate.o(i._Z5EventPvi) refers to button.o(.bss) for HAL::BTNSECL
    page_displate.o(i._Z5EventPvi) refers to display.o(.bss) for Display::page
    page_displate.o(i._Z5Setupv) refers to display.o(i._ZN7Display12Adjust_lightEbat) for Display::Adjust_light(bool, signed char, unsigned short)
    page_displate.o(i._Z5Setupv) refers to page_displate.o(i._Z10Create_BariiittPKc) for Create_Bar(int, int, int, unsigned short, unsigned short, const char*)
    page_displate.o(i._Z5Setupv) refers to piclib.o(i.ai_load_picfile) for ai_load_picfile
    page_displate.o(.ARM.exidx) refers to page_displate.o(i._Z5Setupv) for i._Z5Setupv
    page_displate.o(.ARM.exidx) refers to page_displate.o(i._Z4Exitv) for i._Z4Exitv
    page_displate.o(.ARM.exidx) refers to page_displate.o(i._Z5EventPvi) for i._Z5EventPvi
    page_displate.o(.ARM.exidx) refers to page_displate.o(i._Z21PageRegister_Displateh) for i._Z21PageRegister_Displateh
    page_displate.o(.ARM.exidx) refers to page_displate.o(i._Z10Create_BariiittPKc) for i._Z10Create_BariiittPKc
    page_master.o(i._Z13Create_Optionv) refers to piclib.o(i.ai_load_picfile) for ai_load_picfile
    page_master.o(i._Z13Create_Optionv) refers to page_master.o(.data) for .data
    page_master.o(i._Z13Update_Optionb) refers to adafruit_gfx.o(i._ZN12Adafruit_GFX8fillRectEsssst) for Adafruit_GFX::fillRect(short, short, short, short, unsigned short)
    page_master.o(i._Z13Update_Optionb) refers to page_master.o(i._Z13Create_Optionv) for Create_Option()
    page_master.o(i._Z13Update_Optionb) refers to page_master.o(.data) for .data
    page_master.o(i._Z13Update_Optionb) refers to display.o(.bss) for Display::lcd
    page_master.o(i._Z19PageRegister_Masterh) refers to pagemanager.o(i._ZN11PageManager12PageRegisterEhPFvvES1_S1_PFvPviE) for PageManager::PageRegister(unsigned char, void(*)(), void(*)(), void(*)(), void(*)(void*, int))
    page_master.o(i._Z19PageRegister_Masterh) refers to page_master.o(i._Z5EventPvi) for Event(void*, int)
    page_master.o(i._Z19PageRegister_Masterh) refers to page_master.o(i._Z4Exitv) for Exit()
    page_master.o(i._Z19PageRegister_Masterh) refers to page_master.o(i._Z5Setupv) for Setup()
    page_master.o(i._Z19PageRegister_Masterh) refers to display.o(.bss) for Display::page
    page_master.o(i._Z4Exitv) refers to display.o(i._ZN7Display12Adjust_lightEbat) for Display::Adjust_light(bool, signed char, unsigned short)
    page_master.o(i._Z4Exitv) refers to adafruit_st7789.o(i._ZN15Adafruit_ST778910fillScreenEt) for Adafruit_ST7789::fillScreen(unsigned short)
    page_master.o(i._Z4Exitv) refers to display.o(.bss) for Display::lcd
    page_master.o(i._Z5EventPvi) refers to app_music.o(i._ZN3APP15Audio_PlayMusicEPKc) for APP::Audio_PlayMusic(const char*)
    page_master.o(i._Z5EventPvi) refers to page_master.o(i._Z13Update_Optionb) for Update_Option(bool)
    page_master.o(i._Z5EventPvi) refers to pagemanager.o(i._ZN11PageManager8PagePushEh) for PageManager::PagePush(unsigned char)
    page_master.o(i._Z5EventPvi) refers to app_sdfatfs.o(i._ZN3APP9File_ReadEPKcPhj) for APP::File_Read(const char*, unsigned char*, unsigned)
    page_master.o(i._Z5EventPvi) refers to print.o(i._ZN5Print6printfEPKcz) for Print::printf(const char*, ...)
    page_master.o(i._Z5EventPvi) refers to button.o(.bss) for HAL::BTNUP
    page_master.o(i._Z5EventPvi) refers to page_master.o(.data) for .data
    page_master.o(i._Z5EventPvi) refers to display.o(.data) for Page_dat
    page_master.o(i._Z5EventPvi) refers to display.o(.bss) for Display::page
    page_master.o(i._Z5EventPvi) refers to hardwareserial.o(.bss) for Serial
    page_master.o(i._Z5Setupv) refers to piclib.o(i.ai_load_picfile) for ai_load_picfile
    page_master.o(i._Z5Setupv) refers to page_master.o(i._Z13Create_Optionv) for Create_Option()
    page_master.o(i._Z5Setupv) refers to display.o(i._ZN7Display12Adjust_lightEbat) for Display::Adjust_light(bool, signed char, unsigned short)
    page_master.o(i._Z5Setupv) refers to page_master.o(.data) for .data
    page_master.o(.ARM.exidx) refers to page_master.o(i._Z13Update_Optionb) for i._Z13Update_Optionb
    page_master.o(.ARM.exidx) refers to page_master.o(i._Z5Setupv) for i._Z5Setupv
    page_master.o(.ARM.exidx) refers to page_master.o(i._Z4Exitv) for i._Z4Exitv
    page_master.o(.ARM.exidx) refers to page_master.o(i._Z5EventPvi) for i._Z5EventPvi
    page_master.o(.ARM.exidx) refers to page_master.o(i._Z19PageRegister_Masterh) for i._Z19PageRegister_Masterh
    page_master.o(.ARM.exidx) refers to page_master.o(i._Z13Create_Optionv) for i._Z13Create_Optionv
    page_level.o(i._Z13Create_Optionv) refers to adafruit_gfx.o(i._ZN12Adafruit_GFX10drawCircleEssst) for Adafruit_GFX::drawCircle(short, short, short, unsigned short)
    page_level.o(i._Z13Create_Optionv) refers to page_level.o(.data) for .data
    page_level.o(i._Z13Create_Optionv) refers to display.o(.bss) for Display::lcd
    page_level.o(i._Z13Update_Optionh) refers to adafruit_gfx.o(i._ZN12Adafruit_GFX10drawCircleEssst) for Adafruit_GFX::drawCircle(short, short, short, unsigned short)
    page_level.o(i._Z13Update_Optionh) refers to page_level.o(i._Z13Create_Optionv) for Create_Option()
    page_level.o(i._Z13Update_Optionh) refers to page_level.o(.data) for .data
    page_level.o(i._Z13Update_Optionh) refers to display.o(.bss) for Display::lcd
    page_level.o(i._Z18PageRegister_Levelh) refers to pagemanager.o(i._ZN11PageManager12PageRegisterEhPFvvES1_S1_PFvPviE) for PageManager::PageRegister(unsigned char, void(*)(), void(*)(), void(*)(), void(*)(void*, int))
    page_level.o(i._Z18PageRegister_Levelh) refers to page_level.o(i._Z5EventPvi) for Event(void*, int)
    page_level.o(i._Z18PageRegister_Levelh) refers to page_level.o(i._Z4Exitv) for Exit()
    page_level.o(i._Z18PageRegister_Levelh) refers to page_level.o(i._Z5Setupv) for Setup()
    page_level.o(i._Z18PageRegister_Levelh) refers to display.o(.bss) for Display::page
    page_level.o(i._Z4Exitv) refers to display.o(i._ZN7Display12Adjust_lightEbat) for Display::Adjust_light(bool, signed char, unsigned short)
    page_level.o(i._Z4Exitv) refers to adafruit_st7789.o(i._ZN15Adafruit_ST778910fillScreenEt) for Adafruit_ST7789::fillScreen(unsigned short)
    page_level.o(i._Z4Exitv) refers to display.o(.bss) for Display::lcd
    page_level.o(i._Z5EventPvi) refers to app_music.o(i._ZN3APP15Audio_PlayMusicEPKc) for APP::Audio_PlayMusic(const char*)
    page_level.o(i._Z5EventPvi) refers to page_level.o(i._Z13Update_Optionh) for Update_Option(unsigned char)
    page_level.o(i._Z5EventPvi) refers to pagemanager.o(i._ZN11PageManager8PagePushEh) for PageManager::PagePush(unsigned char)
    page_level.o(i._Z5EventPvi) refers to button.o(.bss) for HAL::BTNUP
    page_level.o(i._Z5EventPvi) refers to display.o(.bss) for Display::page
    page_level.o(i._Z5EventPvi) refers to page_level.o(.data) for .data
    page_level.o(i._Z5EventPvi) refers to display.o(.data) for Page_dat
    page_level.o(i._Z5Setupv) refers to piclib.o(i.ai_load_picfile) for ai_load_picfile
    page_level.o(i._Z5Setupv) refers to adafruit_gfx.o(i._ZN12Adafruit_GFX10drawCircleEssst) for Adafruit_GFX::drawCircle(short, short, short, unsigned short)
    page_level.o(i._Z5Setupv) refers to page_level.o(i._Z13Create_Optionv) for Create_Option()
    page_level.o(i._Z5Setupv) refers to display.o(i._ZN7Display12Adjust_lightEbat) for Display::Adjust_light(bool, signed char, unsigned short)
    page_level.o(i._Z5Setupv) refers to page_level.o(.data) for .data
    page_level.o(i._Z5Setupv) refers to display.o(.bss) for Display::lcd
    page_level.o(.ARM.exidx) refers to page_level.o(i._Z13Update_Optionh) for i._Z13Update_Optionh
    page_level.o(.ARM.exidx) refers to page_level.o(i._Z5Setupv) for i._Z5Setupv
    page_level.o(.ARM.exidx) refers to page_level.o(i._Z4Exitv) for i._Z4Exitv
    page_level.o(.ARM.exidx) refers to page_level.o(i._Z5EventPvi) for i._Z5EventPvi
    page_level.o(.ARM.exidx) refers to page_level.o(i._Z18PageRegister_Levelh) for i._Z18PageRegister_Levelh
    page_level.o(.ARM.exidx) refers to page_level.o(i._Z13Create_Optionv) for i._Z13Create_Optionv
    page_about.o(i._Z10Backgroundv) refers to adafruit_st7789.o(i._ZN15Adafruit_ST778910fillScreenEt) for Adafruit_ST7789::fillScreen(unsigned short)
    page_about.o(i._Z10Backgroundv) refers to adafruit_gfx.o(i._ZN12Adafruit_GFX13fillRoundRectEssssst) for Adafruit_GFX::fillRoundRect(short, short, short, short, short, unsigned short)
    page_about.o(i._Z10Backgroundv) refers to adafruit_gfx.o(i._ZN12Adafruit_GFX12setTextColorEt) for Adafruit_GFX::setTextColor(unsigned short)
    page_about.o(i._Z10Backgroundv) refers to adafruit_gfx.o(i._ZN12Adafruit_GFX11setTextSizeEh) for Adafruit_GFX::setTextSize(unsigned char)
    page_about.o(i._Z10Backgroundv) refers to adafruit_st7789.o(i._ZN15Adafruit_ST77899setCursorEss) for Adafruit_ST7789::setCursor(short, short)
    page_about.o(i._Z10Backgroundv) refers to adafruit_gfx.o(i._ZN12Adafruit_GFX7setFontEPK7GFXfont) for Adafruit_GFX::setFont(const GFXfont*)
    page_about.o(i._Z10Backgroundv) refers to print.o(i._ZN5Print6printfEPKcz) for Print::printf(const char*, ...)
    page_about.o(i._Z10Backgroundv) refers to print.o(i._ZN5Print7printlnEPKc) for Print::println(const char*)
    page_about.o(i._Z10Backgroundv) refers to piclib.o(i.ai_load_picfile) for ai_load_picfile
    page_about.o(i._Z10Backgroundv) refers to adafruit_gfx.o(i._ZN12Adafruit_GFX8drawRectEsssst) for Adafruit_GFX::drawRect(short, short, short, short, unsigned short)
    page_about.o(i._Z10Backgroundv) refers to display.o(.bss) for Display::lcd
    page_about.o(i._Z10Backgroundv) refers to page_about.o(.constdata) for .constdata
    page_about.o(i._Z10Backgroundv) refers to page_about.o(.data) for .data
    page_about.o(i._Z18PageRegister_Abouth) refers to pagemanager.o(i._ZN11PageManager12PageRegisterEhPFvvES1_S1_PFvPviE) for PageManager::PageRegister(unsigned char, void(*)(), void(*)(), void(*)(), void(*)(void*, int))
    page_about.o(i._Z18PageRegister_Abouth) refers to page_about.o(i._Z5EventPvi) for Event(void*, int)
    page_about.o(i._Z18PageRegister_Abouth) refers to page_about.o(i._Z4Exitv) for Exit()
    page_about.o(i._Z18PageRegister_Abouth) refers to page_about.o(i._Z5Setupv) for Setup()
    page_about.o(i._Z18PageRegister_Abouth) refers to display.o(.bss) for Display::page
    page_about.o(i._Z4Exitv) refers to display.o(i._ZN7Display12Adjust_lightEbat) for Display::Adjust_light(bool, signed char, unsigned short)
    page_about.o(i._Z4Exitv) refers to adafruit_st7789.o(i._ZN15Adafruit_ST778910fillScreenEt) for Adafruit_ST7789::fillScreen(unsigned short)
    page_about.o(i._Z4Exitv) refers to display.o(.bss) for Display::lcd
    page_about.o(i._Z5EventPvi) refers to app_music.o(i._ZN3APP15Audio_PlayMusicEPKc) for APP::Audio_PlayMusic(const char*)
    page_about.o(i._Z5EventPvi) refers to pagemanager.o(i._ZN11PageManager7PagePopEv) for PageManager::PagePop()
    page_about.o(i._Z5EventPvi) refers to adafruit_gfx.o(i._ZN12Adafruit_GFX12setTextColorEt) for Adafruit_GFX::setTextColor(unsigned short)
    page_about.o(i._Z5EventPvi) refers to adafruit_gfx.o(i._ZN12Adafruit_GFX7setFontEPK7GFXfont) for Adafruit_GFX::setFont(const GFXfont*)
    page_about.o(i._Z5EventPvi) refers to adafruit_gfx.o(i._ZN12Adafruit_GFX11setTextSizeEh) for Adafruit_GFX::setTextSize(unsigned char)
    page_about.o(i._Z5EventPvi) refers to adafruit_st7789.o(i._ZN15Adafruit_ST77899setCursorEss) for Adafruit_ST7789::setCursor(short, short)
    page_about.o(i._Z5EventPvi) refers to adafruit_gfx.o(i._ZN12Adafruit_GFX8fillRectEsssst) for Adafruit_GFX::fillRect(short, short, short, short, unsigned short)
    page_about.o(i._Z5EventPvi) refers to print.o(i._ZN5Print6printfEPKcz) for Print::printf(const char*, ...)
    page_about.o(i._Z5EventPvi) refers to app_music.o(i._ZN3APP14Buzz_SetEnableEb) for APP::Buzz_SetEnable(bool)
    page_about.o(i._Z5EventPvi) refers to button.o(.bss) for HAL::BTNSECL
    page_about.o(i._Z5EventPvi) refers to page_about.o(.data) for .data
    page_about.o(i._Z5EventPvi) refers to display.o(.bss) for Display::page
    page_about.o(i._Z5EventPvi) refers to page_about.o(.constdata) for .constdata
    page_about.o(i._Z5Setupv) refers to page_about.o(i._Z10Backgroundv) for Background()
    page_about.o(i._Z5Setupv) refers to display.o(i._ZN7Display12Adjust_lightEbat) for Display::Adjust_light(bool, signed char, unsigned short)
    page_about.o(.ARM.exidx) refers to page_about.o(i._Z10Backgroundv) for i._Z10Backgroundv
    page_about.o(.ARM.exidx) refers to page_about.o(i._Z5Setupv) for i._Z5Setupv
    page_about.o(.ARM.exidx) refers to page_about.o(i._Z4Exitv) for i._Z4Exitv
    page_about.o(.ARM.exidx) refers to page_about.o(i._Z5EventPvi) for i._Z5EventPvi
    page_about.o(.ARM.exidx) refers to page_about.o(i._Z18PageRegister_Abouth) for i._Z18PageRegister_Abouth
    page_about.o(.constdata) refers to page_about.o(.constdata) for FreeMonoBold9pt7bBitmaps
    page_about.o(.constdata) refers to page_about.o(.constdata) for FreeMonoBold9pt7bGlyphs
    page_about.o(.constdata) refers to page_about.o(.constdata) for FreeMono9pt7bBitmaps
    page_about.o(.constdata) refers to page_about.o(.constdata) for FreeMono9pt7bGlyphs
    page_game.o(i._Z17PageRegister_Gameh) refers to pagemanager.o(i._ZN11PageManager12PageRegisterEhPFvvES1_S1_PFvPviE) for PageManager::PageRegister(unsigned char, void(*)(), void(*)(), void(*)(), void(*)(void*, int))
    page_game.o(i._Z17PageRegister_Gameh) refers to page_game.o(i._Z5EventPvi) for Event(void*, int)
    page_game.o(i._Z17PageRegister_Gameh) refers to page_game.o(i._Z4Exitv) for Exit()
    page_game.o(i._Z17PageRegister_Gameh) refers to page_game.o(i._Z4Loopv) for Loop()
    page_game.o(i._Z17PageRegister_Gameh) refers to page_game.o(i._Z5Setupv) for Setup()
    page_game.o(i._Z17PageRegister_Gameh) refers to display.o(.bss) for Display::page
    page_game.o(i._Z4Exitv) refers to display.o(i._ZN7Display12Adjust_lightEbat) for Display::Adjust_light(bool, signed char, unsigned short)
    page_game.o(i._Z4Exitv) refers to adafruit_st7789.o(i._ZN15Adafruit_ST778910fillScreenEt) for Adafruit_ST7789::fillScreen(unsigned short)
    page_game.o(i._Z4Exitv) refers to display.o(.bss) for Display::lcd
    page_game.o(i._Z4Loopv) refers to game_box.o(i._ZN13PTBox_Manager7RunningEv) for PTBox_Manager::Running()
    page_game.o(i._Z4Loopv) refers to print.o(i._ZN5Print6printfEPKcz) for Print::printf(const char*, ...)
    page_game.o(i._Z4Loopv) refers to display.o(i._ZN7Display12Adjust_lightEbat) for Display::Adjust_light(bool, signed char, unsigned short)
    page_game.o(i._Z4Loopv) refers to app_music.o(i._ZN3APP15Audio_PlayMusicEPKc) for APP::Audio_PlayMusic(const char*)
    page_game.o(i._Z4Loopv) refers to piclib.o(i.ai_load_picfile) for ai_load_picfile
    page_game.o(i._Z4Loopv) refers to game_box.o(i._ZN13PTBox_Manager4LoadE10_Level_ID_) for PTBox_Manager::Load(_Level_ID_)
    page_game.o(i._Z4Loopv) refers to page_game.o(.data) for .data
    page_game.o(i._Z4Loopv) refers to display.o(.bss) for Box
    page_game.o(i._Z4Loopv) refers to display.o(.data) for Page_dat
    page_game.o(i._Z4Loopv) refers to hardwareserial.o(.bss) for Serial
    page_game.o(i._Z5EventPvi) refers to app_music.o(i._ZN3APP15Audio_PlayMusicEPKc) for APP::Audio_PlayMusic(const char*)
    page_game.o(i._Z5EventPvi) refers to piclib.o(i.ai_load_picfile) for ai_load_picfile
    page_game.o(i._Z5EventPvi) refers to game_box.o(i._ZN13PTBox_Manager17Draw_Single_BlockEii) for PTBox_Manager::Draw_Single_Block(int, int)
    page_game.o(i._Z5EventPvi) refers to app_sdfatfs.o(i._ZN3APP10File_WriteEPKcPvj) for APP::File_Write(const char*, void*, unsigned)
    page_game.o(i._Z5EventPvi) refers to app_sdfatfs.o(i._ZN3APP11RamSendToSdEPKcPv) for APP::RamSendToSd(const char*, void*)
    page_game.o(i._Z5EventPvi) refers to pagemanager.o(i._ZN11PageManager8PagePushEh) for PageManager::PagePush(unsigned char)
    page_game.o(i._Z5EventPvi) refers to page_game.o(.data) for .data
    page_game.o(i._Z5EventPvi) refers to display.o(.bss) for Box
    page_game.o(i._Z5EventPvi) refers to button.o(.bss) for HAL::BTNUP
    page_game.o(i._Z5EventPvi) refers to display.o(.data) for Page_dat
    page_game.o(i._Z5Setupv) refers to game_box.o(i._ZN13PTBox_Manager4LoadE10_Level_ID_) for PTBox_Manager::Load(_Level_ID_)
    page_game.o(i._Z5Setupv) refers to display.o(i._ZN7Display12Adjust_lightEbat) for Display::Adjust_light(bool, signed char, unsigned short)
    page_game.o(i._Z5Setupv) refers to page_game.o(.data) for .data
    page_game.o(i._Z5Setupv) refers to display.o(.data) for Page_dat
    page_game.o(i._Z5Setupv) refers to display.o(.bss) for Box
    page_game.o(.ARM.exidx) refers to page_game.o(i._Z5Setupv) for i._Z5Setupv
    page_game.o(.ARM.exidx) refers to page_game.o(i._Z4Loopv) for i._Z4Loopv
    page_game.o(.ARM.exidx) refers to page_game.o(i._Z4Exitv) for i._Z4Exitv
    page_game.o(.ARM.exidx) refers to page_game.o(i._Z5EventPvi) for i._Z5EventPvi
    page_game.o(.ARM.exidx) refers to page_game.o(i._Z17PageRegister_Gameh) for i._Z17PageRegister_Gameh
    game_box.o(i._ZN13PTBox_Manager17Draw_Single_BlockEii) refers to game_box.o(.constdata) for .constdata
    game_box.o(i._ZN13PTBox_Manager4LoadE10_Level_ID_) refers to game_box.o(i._ZN13PTBox_Manager17Draw_Single_BlockEii) for PTBox_Manager::Draw_Single_Block(int, int)
    game_box.o(i._ZN13PTBox_Manager4LoadE10_Level_ID_) refers to game_box.o(.constdata) for .constdata
    game_box.o(i._ZN13PTBox_Manager7RunningEv) refers to game_box.o(i._ZN13PTBox_Manager17Draw_Single_BlockEii) for PTBox_Manager::Draw_Single_Block(int, int)
    game_box.o(.ARM.exidx) refers to game_box.o(i._ZN13PTBox_Manager17Draw_Single_BlockEii) for i._ZN13PTBox_Manager17Draw_Single_BlockEii
    game_box.o(.ARM.exidx) refers to game_box.o(i._ZN13PTBox_Manager7RunningEv) for i._ZN13PTBox_Manager7RunningEv
    game_box.o(.ARM.exidx) refers to game_box.o(i._ZN13PTBox_Manager4LoadE10_Level_ID_) for i._ZN13PTBox_Manager4LoadE10_Level_ID_
    game_box.o(.constdata) refers to game_box.o(.conststring) for .conststring
    arduino.o(i.analogRead) refers to adc.o(i.ADCx_GetValue) for ADCx_GetValue
    arduino.o(i.analogRead) refers to gpio.o(.constdata) for PIN_MAP
    arduino.o(i.analogRead_DMA) refers to adc.o(i.ADC_DMA_GetValue) for ADC_DMA_GetValue
    arduino.o(i.analogRead_DMA) refers to gpio.o(.constdata) for PIN_MAP
    arduino.o(i.analogWrite) refers to pwm.o(i.pwmWrite) for pwmWrite
    arduino.o(i.analogWrite) refers to gpio.o(.constdata) for PIN_MAP
    arduino.o(i.digitalRead) refers to gpio.o(.constdata) for PIN_MAP
    arduino.o(i.digitalWrite) refers to gpio.o(.constdata) for PIN_MAP
    arduino.o(i.fmap) refers to daddsub_clz.o(x$fpl$dsub) for __aeabi_dsub
    arduino.o(i.fmap) refers to dmul.o(x$fpl$dmul) for __aeabi_dmul
    arduino.o(i.fmap) refers to ddiv.o(x$fpl$ddiv) for __aeabi_ddiv
    arduino.o(i.fmap) refers to daddsub_clz.o(x$fpl$dadd) for __aeabi_dadd
    arduino.o(i.pinMode) refers to gpio.o(i.GPIOx_Init) for GPIOx_Init
    arduino.o(i.pinMode) refers to adc.o(i.ADC_DMA_Register) for ADC_DMA_Register
    arduino.o(i.pinMode) refers to pwm.o(i.PWM_Init) for PWM_Init
    arduino.o(i.pinMode) refers to gpio.o(.constdata) for PIN_MAP
    arduino.o(i.pulseIn) refers to lludivv7m.o(.text) for __aeabi_uldivmod
    arduino.o(i.pulseIn) refers to gpio.o(.constdata) for PIN_MAP
    arduino.o(i.pulseIn) refers to system_stm32f4xx.o(.data) for SystemCoreClock
    arduino.o(i.shiftIn) refers to arduino.o(i.digitalRead) for digitalRead
    arduino.o(i.shiftIn) refers to gpio.o(.constdata) for PIN_MAP
    arduino.o(i.shiftOut) refers to arduino.o(i.digitalWrite) for digitalWrite
    arduino.o(i.shiftOut) refers to gpio.o(.constdata) for PIN_MAP
    dtostrf.o(i.dtostrf) refers to _printf_percent.o(.ARM.Collect$$_printf_percent$$00000000) for _printf_percent
    dtostrf.o(i.dtostrf) refers to _printf_d.o(.ARM.Collect$$_printf_percent$$00000009) for _printf_d
    dtostrf.o(i.dtostrf) refers to _printf_dec.o(.text) for _printf_int_dec
    dtostrf.o(i.dtostrf) refers to _printf_pad.o(.text) for _printf_pre_padding
    dtostrf.o(i.dtostrf) refers to _printf_f.o(.ARM.Collect$$_printf_percent$$00000003) for _printf_f
    dtostrf.o(i.dtostrf) refers to _printf_e.o(.ARM.Collect$$_printf_percent$$00000004) for _printf_e
    dtostrf.o(i.dtostrf) refers to _printf_g.o(.ARM.Collect$$_printf_percent$$00000005) for _printf_g
    dtostrf.o(i.dtostrf) refers to _printf_a.o(.ARM.Collect$$_printf_percent$$00000006) for _printf_a
    dtostrf.o(i.dtostrf) refers to printf2.o(x$fpl$printf2) for _printf_fp_hex
    dtostrf.o(i.dtostrf) refers to printf1.o(x$fpl$printf1) for _printf_fp_dec
    dtostrf.o(i.dtostrf) refers to __2sprintf.o(.text) for __2sprintf
    hardwareserial.o(i.USART1_IRQHandler) refers to hardwareserial.o(i._ZN14HardwareSerial10IRQHandlerEv) for HardwareSerial::IRQHandler()
    hardwareserial.o(i.USART1_IRQHandler) refers to hardwareserial.o(.bss) for .bss
    hardwareserial.o(i.USART2_IRQHandler) refers to hardwareserial.o(i._ZN14HardwareSerial10IRQHandlerEv) for HardwareSerial::IRQHandler()
    hardwareserial.o(i.USART2_IRQHandler) refers to hardwareserial.o(.bss) for .bss
    hardwareserial.o(i.USART3_IRQHandler) refers to hardwareserial.o(i._ZN14HardwareSerial10IRQHandlerEv) for HardwareSerial::IRQHandler()
    hardwareserial.o(i.USART3_IRQHandler) refers to hardwareserial.o(.bss) for .bss
    hardwareserial.o(i._ZN14HardwareSerial10IRQHandlerEv) refers to stm32f4xx_usart.o(i.USART_GetITStatus) for USART_GetITStatus
    hardwareserial.o(i._ZN14HardwareSerial10IRQHandlerEv) refers to stm32f4xx_usart.o(i.USART_ReceiveData) for USART_ReceiveData
    hardwareserial.o(i._ZN14HardwareSerial10IRQHandlerEv) refers to stm32f4xx_usart.o(i.USART_ClearITPendingBit) for USART_ClearITPendingBit
    hardwareserial.o(i._ZN14HardwareSerial3endEv) refers to stm32f4xx_usart.o(i.USART_Cmd) for USART_Cmd
    hardwareserial.o(i._ZN14HardwareSerial5beginEj) refers to hardwareserial.o(i._ZN14HardwareSerial5beginEj13SERIAL_Config) for HardwareSerial::begin(unsigned, SERIAL_Config)
    hardwareserial.o(i._ZN14HardwareSerial5beginEj13SERIAL_Config) refers to hardwareserial.o(i._ZN14HardwareSerial5beginEj13SERIAL_Confighh) for HardwareSerial::begin(unsigned, SERIAL_Config, unsigned char, unsigned char)
    hardwareserial.o(i._ZN14HardwareSerial5beginEj13SERIAL_Confighh) refers to stm32f4xx_rcc.o(i.RCC_APB2PeriphClockCmd) for RCC_APB2PeriphClockCmd
    hardwareserial.o(i._ZN14HardwareSerial5beginEj13SERIAL_Confighh) refers to stm32f4xx_rcc.o(i.RCC_APB1PeriphClockCmd) for RCC_APB1PeriphClockCmd
    hardwareserial.o(i._ZN14HardwareSerial5beginEj13SERIAL_Confighh) refers to stm32f4xx_rcc.o(i.RCC_AHB1PeriphClockCmd) for RCC_AHB1PeriphClockCmd
    hardwareserial.o(i._ZN14HardwareSerial5beginEj13SERIAL_Confighh) refers to gpio.o(i.GPIO_GetPinSource) for GPIO_GetPinSource
    hardwareserial.o(i._ZN14HardwareSerial5beginEj13SERIAL_Confighh) refers to stm32f4xx_gpio.o(i.GPIO_PinAFConfig) for GPIO_PinAFConfig
    hardwareserial.o(i._ZN14HardwareSerial5beginEj13SERIAL_Confighh) refers to stm32f4xx_gpio.o(i.GPIO_Init) for GPIO_Init
    hardwareserial.o(i._ZN14HardwareSerial5beginEj13SERIAL_Confighh) refers to misc.o(i.NVIC_Init) for NVIC_Init
    hardwareserial.o(i._ZN14HardwareSerial5beginEj13SERIAL_Confighh) refers to stm32f4xx_usart.o(i.USART_Init) for USART_Init
    hardwareserial.o(i._ZN14HardwareSerial5beginEj13SERIAL_Confighh) refers to stm32f4xx_usart.o(i.USART_ITConfig) for USART_ITConfig
    hardwareserial.o(i._ZN14HardwareSerial5beginEj13SERIAL_Confighh) refers to stm32f4xx_usart.o(i.USART_Cmd) for USART_Cmd
    hardwareserial.o(i._ZN14HardwareSerial5writeEh) refers to stm32f4xx_usart.o(i.USART_GetFlagStatus) for USART_GetFlagStatus
    hardwareserial.o(i._ZN14HardwareSerial5writeEh) refers to stm32f4xx_usart.o(i.USART_SendData) for USART_SendData
    hardwareserial.o(i._ZN14HardwareSerialC1EP13USART_TypeDef) refers to hardwareserial.o(.constdata__ZTV14HardwareSerial) for vtable for HardwareSerial
    hardwareserial.o(i.__sti___18_HardwareSerial_cpp_cfa1b6a6) refers to hardwareserial.o(i._ZN14HardwareSerialC1EP13USART_TypeDef) for HardwareSerial::HardwareSerial(USART_TypeDef*)
    hardwareserial.o(i.__sti___18_HardwareSerial_cpp_cfa1b6a6) refers to hardwareserial.o(.bss) for .bss
    hardwareserial.o(.ARM.exidx) refers to hardwareserial.o(i._ZN14HardwareSerial10IRQHandlerEv) for i._ZN14HardwareSerial10IRQHandlerEv
    hardwareserial.o(.ARM.exidx) refers to hardwareserial.o(i.USART1_IRQHandler) for i.USART1_IRQHandler
    hardwareserial.o(.ARM.exidx) refers to hardwareserial.o(i.USART2_IRQHandler) for i.USART2_IRQHandler
    hardwareserial.o(.ARM.exidx) refers to hardwareserial.o(i.USART3_IRQHandler) for i.USART3_IRQHandler
    hardwareserial.o(.ARM.exidx) refers to hardwareserial.o(i._ZN14HardwareSerialC1EP13USART_TypeDef) for i._ZN14HardwareSerialC1EP13USART_TypeDef
    hardwareserial.o(.ARM.exidx) refers to hardwareserial.o(i._ZN14HardwareSerial5beginEj13SERIAL_Confighh) for i._ZN14HardwareSerial5beginEj13SERIAL_Confighh
    hardwareserial.o(.ARM.exidx) refers to hardwareserial.o(i._ZN14HardwareSerial5beginEj13SERIAL_Config) for i._ZN14HardwareSerial5beginEj13SERIAL_Config
    hardwareserial.o(.ARM.exidx) refers to hardwareserial.o(i._ZN14HardwareSerial5beginEj) for i._ZN14HardwareSerial5beginEj
    hardwareserial.o(.ARM.exidx) refers to hardwareserial.o(i._ZN14HardwareSerial3endEv) for i._ZN14HardwareSerial3endEv
    hardwareserial.o(.ARM.exidx) refers to hardwareserial.o(i._ZN14HardwareSerial15attachInterruptEPFvvE) for i._ZN14HardwareSerial15attachInterruptEPFvvE
    hardwareserial.o(.ARM.exidx) refers to hardwareserial.o(i._ZN14HardwareSerial9availableEv) for i._ZN14HardwareSerial9availableEv
    hardwareserial.o(.ARM.exidx) refers to hardwareserial.o(i._ZN14HardwareSerial4peekEv) for i._ZN14HardwareSerial4peekEv
    hardwareserial.o(.ARM.exidx) refers to hardwareserial.o(i._ZN14HardwareSerial4readEv) for i._ZN14HardwareSerial4readEv
    hardwareserial.o(.ARM.exidx) refers to hardwareserial.o(i._ZN14HardwareSerial5flushEv) for i._ZN14HardwareSerial5flushEv
    hardwareserial.o(.ARM.exidx) refers to hardwareserial.o(i._ZN14HardwareSerial5writeEh) for i._ZN14HardwareSerial5writeEh
    hardwareserial.o(.ARM.exidx) refers to hardwareserial.o(i.__sti___18_HardwareSerial_cpp_cfa1b6a6) for i.__sti___18_HardwareSerial_cpp_cfa1b6a6
    hardwareserial.o(.init_array) refers to hardwareserial.o(i.__sti___18_HardwareSerial_cpp_cfa1b6a6) for __sti___18_HardwareSerial_cpp_cfa1b6a6
    hardwareserial.o(.init_array) refers to init_aeabi.o(.text) for __cpp_initialize__aeabi_
    itoa.o(i.itoa) refers to itoa.o(i.ltoa) for ltoa
    itoa.o(i.utoa) refers to itoa.o(i.ultoa) for ultoa
    print.o(i._ZN5Print10printFloatEdh) refers to drleqf.o(x$fpl$drleqf) for __aeabi_cdrcmple
    print.o(i._ZN5Print10printFloatEdh) refers to basic.o(x$fpl$basic) for __aeabi_dneg
    print.o(i._ZN5Print10printFloatEdh) refers to dleqf.o(x$fpl$dleqf) for __aeabi_cdcmple
    print.o(i._ZN5Print10printFloatEdh) refers to print.o(i._ZN5Print5printEc) for Print::print(char)
    print.o(i._ZN5Print10printFloatEdh) refers to print.o(i._ZN5Print5printEPKc) for Print::print(const char*)
    print.o(i._ZN5Print10printFloatEdh) refers to ddiv.o(x$fpl$ddiv) for __aeabi_ddiv
    print.o(i._ZN5Print10printFloatEdh) refers to daddsub_clz.o(x$fpl$dadd) for __aeabi_dadd
    print.o(i._ZN5Print10printFloatEdh) refers to dfixll.o(x$fpl$llsfromd) for __aeabi_d2lz
    print.o(i._ZN5Print10printFloatEdh) refers to dfltll_clz.o(x$fpl$dfltll) for __aeabi_l2d
    print.o(i._ZN5Print10printFloatEdh) refers to daddsub_clz.o(x$fpl$drsb) for __aeabi_drsub
    print.o(i._ZN5Print10printFloatEdh) refers to print.o(i._ZN5Print5printExi) for Print::print(long long, int)
    print.o(i._ZN5Print10printFloatEdh) refers to dmul.o(x$fpl$dmul) for __aeabi_dmul
    print.o(i._ZN5Print10printFloatEdh) refers to dfix.o(x$fpl$dfix) for __aeabi_d2iz
    print.o(i._ZN5Print10printFloatEdh) refers to print.o(i._ZN5Print5printEii) for Print::print(int, int)
    print.o(i._ZN5Print10printFloatEdh) refers to dflt_clz.o(x$fpl$dflt) for __aeabi_i2d
    print.o(i._ZN5Print11printNumberEyh) refers to print.o(i._ZN5Print5printEc) for Print::print(char)
    print.o(i._ZN5Print11printNumberEyh) refers to lludivv7m.o(.text) for __aeabi_uldivmod
    print.o(i._ZN5Print5printEdi) refers to print.o(i._ZN5Print10printFloatEdh) for Print::printFloat(double, unsigned char)
    print.o(i._ZN5Print5printEhi) refers to print.o(i._ZN5Print5printEyi) for Print::print(unsigned long long, int)
    print.o(i._ZN5Print5printEii) refers to print.o(i._ZN5Print5printExi) for Print::print(long long, int)
    print.o(i._ZN5Print5printEji) refers to print.o(i._ZN5Print5printEyi) for Print::print(unsigned long long, int)
    print.o(i._ZN5Print5printEli) refers to print.o(i._ZN5Print5printExi) for Print::print(long long, int)
    print.o(i._ZN5Print5printEmi) refers to print.o(i._ZN5Print5printEyi) for Print::print(unsigned long long, int)
    print.o(i._ZN5Print5printExi) refers to print.o(i._ZN5Print5printEc) for Print::print(char)
    print.o(i._ZN5Print5printExi) refers to print.o(i._ZN5Print11printNumberEyh) for Print::printNumber(unsigned long long, unsigned char)
    print.o(i._ZN5Print5printEyi) refers to print.o(i._ZN5Print11printNumberEyh) for Print::printNumber(unsigned long long, unsigned char)
    print.o(i._ZN5Print6printfEPKcz) refers to c89vsnprintf.o(.text) for __c89vsnprintf
    print.o(i._ZN5Print6printfEPKcz) refers to print.o(i._ZN5Print5printEPKc) for Print::print(const char*)
    print.o(i._ZN5Print7printlnEPK19__FlashStringHelper) refers to print.o(i._ZN5Print5printEPK19__FlashStringHelper) for Print::print(const __FlashStringHelper*)
    print.o(i._ZN5Print7printlnEPK19__FlashStringHelper) refers to print.o(i._ZN5Print7printlnEv) for Print::println()
    print.o(i._ZN5Print7printlnEPKc) refers to print.o(i._ZN5Print5printEPKc) for Print::print(const char*)
    print.o(i._ZN5Print7printlnEPKc) refers to print.o(i._ZN5Print7printlnEv) for Print::println()
    print.o(i._ZN5Print7printlnERK6String) refers to print.o(i._ZN5Print5printERK6String) for Print::print(const String&)
    print.o(i._ZN5Print7printlnERK6String) refers to print.o(i._ZN5Print7printlnEv) for Print::println()
    print.o(i._ZN5Print7printlnERK9Printable) refers to print.o(i._ZN5Print5printERK9Printable) for Print::print(const Printable&)
    print.o(i._ZN5Print7printlnERK9Printable) refers to print.o(i._ZN5Print7printlnEv) for Print::println()
    print.o(i._ZN5Print7printlnEc) refers to print.o(i._ZN5Print5printEc) for Print::print(char)
    print.o(i._ZN5Print7printlnEc) refers to print.o(i._ZN5Print7printlnEv) for Print::println()
    print.o(i._ZN5Print7printlnEdi) refers to print.o(i._ZN5Print5printEdi) for Print::print(double, int)
    print.o(i._ZN5Print7printlnEdi) refers to print.o(i._ZN5Print7printlnEv) for Print::println()
    print.o(i._ZN5Print7printlnEhi) refers to print.o(i._ZN5Print5printEhi) for Print::print(unsigned char, int)
    print.o(i._ZN5Print7printlnEhi) refers to print.o(i._ZN5Print7printlnEv) for Print::println()
    print.o(i._ZN5Print7printlnEii) refers to print.o(i._ZN5Print5printEii) for Print::print(int, int)
    print.o(i._ZN5Print7printlnEii) refers to print.o(i._ZN5Print7printlnEv) for Print::println()
    print.o(i._ZN5Print7printlnEji) refers to print.o(i._ZN5Print5printEji) for Print::print(unsigned, int)
    print.o(i._ZN5Print7printlnEji) refers to print.o(i._ZN5Print7printlnEv) for Print::println()
    print.o(i._ZN5Print7printlnEli) refers to print.o(i._ZN5Print5printExi) for Print::print(long long, int)
    print.o(i._ZN5Print7printlnEli) refers to print.o(i._ZN5Print7printlnEv) for Print::println()
    print.o(i._ZN5Print7printlnEmi) refers to print.o(i._ZN5Print5printEyi) for Print::print(unsigned long long, int)
    print.o(i._ZN5Print7printlnEmi) refers to print.o(i._ZN5Print7printlnEv) for Print::println()
    print.o(i._ZN5Print7printlnEv) refers to print.o(i._ZN5Print5printEc) for Print::print(char)
    print.o(i._ZN5Print7printlnExi) refers to print.o(i._ZN5Print5printExi) for Print::print(long long, int)
    print.o(i._ZN5Print7printlnExi) refers to print.o(i._ZN5Print7printlnEv) for Print::println()
    print.o(i._ZN5Print7printlnEyi) refers to print.o(i._ZN5Print5printEyi) for Print::print(unsigned long long, int)
    print.o(i._ZN5Print7printlnEyi) refers to print.o(i._ZN5Print7printlnEv) for Print::println()
    print.o(.ARM.exidx) refers to print.o(i._ZN5Print5writeEPKc) for i._ZN5Print5writeEPKc
    print.o(.ARM.exidx) refers to print.o(i._ZN5Print5writeEPKvj) for i._ZN5Print5writeEPKvj
    print.o(.ARM.exidx) refers to print.o(i._ZN5Print5printERK6String) for i._ZN5Print5printERK6String
    print.o(.ARM.exidx) refers to print.o(i._ZN5Print5printEc) for i._ZN5Print5printEc
    print.o(.ARM.exidx) refers to print.o(i._ZN5Print5printEPKc) for i._ZN5Print5printEPKc
    print.o(.ARM.exidx) refers to print.o(i._ZN5Print11printNumberEyh) for i._ZN5Print11printNumberEyh
    print.o(.ARM.exidx) refers to print.o(i._ZN5Print5printEyi) for i._ZN5Print5printEyi
    print.o(.ARM.exidx) refers to print.o(i._ZN5Print5printEhi) for i._ZN5Print5printEhi
    print.o(.ARM.exidx) refers to print.o(i._ZN5Print5printExi) for i._ZN5Print5printExi
    print.o(.ARM.exidx) refers to print.o(i._ZN5Print5printEii) for i._ZN5Print5printEii
    print.o(.ARM.exidx) refers to print.o(i._ZN5Print5printEji) for i._ZN5Print5printEji
    print.o(.ARM.exidx) refers to print.o(i._ZN5Print5printEli) for i._ZN5Print5printEli
    print.o(.ARM.exidx) refers to print.o(i._ZN5Print5printEmi) for i._ZN5Print5printEmi
    print.o(.ARM.exidx) refers to print.o(i._ZN5Print10printFloatEdh) for i._ZN5Print10printFloatEdh
    print.o(.ARM.exidx) refers to print.o(i._ZN5Print5printEdi) for i._ZN5Print5printEdi
    print.o(.ARM.exidx) refers to print.o(i._ZN5Print5printEPK19__FlashStringHelper) for i._ZN5Print5printEPK19__FlashStringHelper
    print.o(.ARM.exidx) refers to print.o(i._ZN5Print5printERK9Printable) for i._ZN5Print5printERK9Printable
    print.o(.ARM.exidx) refers to print.o(i._ZN5Print7printlnEv) for i._ZN5Print7printlnEv
    print.o(.ARM.exidx) refers to print.o(i._ZN5Print7printlnERK6String) for i._ZN5Print7printlnERK6String
    print.o(.ARM.exidx) refers to print.o(i._ZN5Print7printlnEc) for i._ZN5Print7printlnEc
    print.o(.ARM.exidx) refers to print.o(i._ZN5Print7printlnEPKc) for i._ZN5Print7printlnEPKc
    print.o(.ARM.exidx) refers to print.o(i._ZN5Print7printlnEhi) for i._ZN5Print7printlnEhi
    print.o(.ARM.exidx) refers to print.o(i._ZN5Print7printlnEii) for i._ZN5Print7printlnEii
    print.o(.ARM.exidx) refers to print.o(i._ZN5Print7printlnEji) for i._ZN5Print7printlnEji
    print.o(.ARM.exidx) refers to print.o(i._ZN5Print7printlnEli) for i._ZN5Print7printlnEli
    print.o(.ARM.exidx) refers to print.o(i._ZN5Print7printlnEmi) for i._ZN5Print7printlnEmi
    print.o(.ARM.exidx) refers to print.o(i._ZN5Print7printlnExi) for i._ZN5Print7printlnExi
    print.o(.ARM.exidx) refers to print.o(i._ZN5Print7printlnEyi) for i._ZN5Print7printlnEyi
    print.o(.ARM.exidx) refers to print.o(i._ZN5Print7printlnEdi) for i._ZN5Print7printlnEdi
    print.o(.ARM.exidx) refers to print.o(i._ZN5Print7printlnEPK19__FlashStringHelper) for i._ZN5Print7printlnEPK19__FlashStringHelper
    print.o(.ARM.exidx) refers to print.o(i._ZN5Print7printlnERK9Printable) for i._ZN5Print7printlnERK9Printable
    print.o(.ARM.exidx) refers to print.o(i._ZN5Print6printfEPKcz) for i._ZN5Print6printfEPKcz
    spi.o(i._ZN8SPIClass10beginSlaveEv) refers to spi.o(i._ZN8SPIClass5beginEv) for SPIClass::begin()
    spi.o(i._ZN8SPIClass10beginSlaveEv) refers to spi.o(i._ZN8SPIClass12SPI_SettingsEP11SPI_TypeDeftttttt) for SPIClass::SPI_Settings(SPI_TypeDef*, unsigned short, unsigned short, unsigned short, unsigned short, unsigned short, unsigned short)
    spi.o(i._ZN8SPIClass10beginSlaveEv) refers to stm32f4xx_spi.o(i.SPI_Cmd) for SPI_Cmd
    spi.o(i._ZN8SPIClass11setBitOrderEt) refers to stm32f4xx_spi.o(i.SPI_Init) for SPI_Init
    spi.o(i._ZN8SPIClass11setBitOrderEt) refers to stm32f4xx_spi.o(i.SPI_Cmd) for SPI_Cmd
    spi.o(i._ZN8SPIClass11setDataModeEh) refers to stm32f4xx_spi.o(i.SPI_Cmd) for SPI_Cmd
    spi.o(i._ZN8SPIClass11setDataModeEh) refers to stm32f4xx_spi.o(i.SPI_Init) for SPI_Init
    spi.o(i._ZN8SPIClass11setDataSizeEt) refers to stm32f4xx_spi.o(i.SPI_Init) for SPI_Init
    spi.o(i._ZN8SPIClass11setDataSizeEt) refers to stm32f4xx_spi.o(i.SPI_Cmd) for SPI_Cmd
    spi.o(i._ZN8SPIClass12SPI_SettingsEP11SPI_TypeDeftttttt) refers to stm32f4xx_spi.o(i.SPI_Cmd) for SPI_Cmd
    spi.o(i._ZN8SPIClass12SPI_SettingsEP11SPI_TypeDeftttttt) refers to stm32f4xx_spi.o(i.SPI_Init) for SPI_Init
    spi.o(i._ZN8SPIClass14endTransactionEv) refers to stm32f4xx_spi.o(i.SPI_Cmd) for SPI_Cmd
    spi.o(i._ZN8SPIClass15setClockDividerEj) refers to spi.o(i._ZN8SPIClass8setClockEj) for SPIClass::setClock(unsigned)
    spi.o(i._ZN8SPIClass16beginTransactionE11SPISettings) refers to spi.o(i._ZN8SPIClass8setClockEj) for SPIClass::setClock(unsigned)
    spi.o(i._ZN8SPIClass16beginTransactionE11SPISettings) refers to spi.o(i._ZN8SPIClass11setBitOrderEt) for SPIClass::setBitOrder(unsigned short)
    spi.o(i._ZN8SPIClass16beginTransactionE11SPISettings) refers to spi.o(i._ZN8SPIClass11setDataModeEh) for SPIClass::setDataMode(unsigned char)
    spi.o(i._ZN8SPIClass16beginTransactionE11SPISettings) refers to spi.o(i._ZN8SPIClass11setDataSizeEt) for SPIClass::setDataSize(unsigned short)
    spi.o(i._ZN8SPIClass16beginTransactionE11SPISettings) refers to stm32f4xx_spi.o(i.SPI_Cmd) for SPI_Cmd
    spi.o(i._ZN8SPIClass21beginTransactionSlaveEv) refers to spi.o(i._ZN8SPIClass10beginSlaveEv) for SPIClass::beginSlave()
    spi.o(i._ZN8SPIClass3endEv) refers to stm32f4xx_spi.o(i.SPI_Cmd) for SPI_Cmd
    spi.o(i._ZN8SPIClass4recvEv) refers to spi.o(i._ZN8SPIClass4readEv) for SPIClass::read()
    spi.o(i._ZN8SPIClass4sendEPhj) refers to spi.o(i._ZN8SPIClass5writeEPKhj) for SPIClass::write(const unsigned char*, unsigned)
    spi.o(i._ZN8SPIClass4sendEh) refers to spi.o(i._ZN8SPIClass5writeEt) for SPIClass::write(unsigned short)
    spi.o(i._ZN8SPIClass5beginE11SPISettings) refers to spi.o(i._ZN8SPIClass5beginEv) for SPIClass::begin()
    spi.o(i._ZN8SPIClass5beginE11SPISettings) refers to spi.o(i._ZN8SPIClass8setClockEj) for SPIClass::setClock(unsigned)
    spi.o(i._ZN8SPIClass5beginE11SPISettings) refers to spi.o(i._ZN8SPIClass11setBitOrderEt) for SPIClass::setBitOrder(unsigned short)
    spi.o(i._ZN8SPIClass5beginE11SPISettings) refers to spi.o(i._ZN8SPIClass11setDataModeEh) for SPIClass::setDataMode(unsigned char)
    spi.o(i._ZN8SPIClass5beginE11SPISettings) refers to stm32f4xx_spi.o(i.SPI_Cmd) for SPI_Cmd
    spi.o(i._ZN8SPIClass5beginEjtt) refers to spi.o(i._ZN8SPIClass5beginEv) for SPIClass::begin()
    spi.o(i._ZN8SPIClass5beginEjtt) refers to spi.o(i._ZN8SPIClass8setClockEj) for SPIClass::setClock(unsigned)
    spi.o(i._ZN8SPIClass5beginEjtt) refers to spi.o(i._ZN8SPIClass11setBitOrderEt) for SPIClass::setBitOrder(unsigned short)
    spi.o(i._ZN8SPIClass5beginEjtt) refers to spi.o(i._ZN8SPIClass11setDataModeEh) for SPIClass::setDataMode(unsigned char)
    spi.o(i._ZN8SPIClass5beginEjtt) refers to stm32f4xx_spi.o(i.SPI_Cmd) for SPI_Cmd
    spi.o(i._ZN8SPIClass5beginEv) refers to stm32f4xx_rcc.o(i.RCC_APB2PeriphClockCmd) for RCC_APB2PeriphClockCmd
    spi.o(i._ZN8SPIClass5beginEv) refers to arduino.o(i.pinMode) for pinMode
    spi.o(i._ZN8SPIClass5beginEv) refers to stm32f4xx_gpio.o(i.GPIO_PinAFConfig) for GPIO_PinAFConfig
    spi.o(i._ZN8SPIClass5beginEv) refers to stm32f4xx_rcc.o(i.RCC_APB2PeriphResetCmd) for RCC_APB2PeriphResetCmd
    spi.o(i._ZN8SPIClass5beginEv) refers to stm32f4xx_rcc.o(i.RCC_APB1PeriphClockCmd) for RCC_APB1PeriphClockCmd
    spi.o(i._ZN8SPIClass5beginEv) refers to stm32f4xx_rcc.o(i.RCC_APB1PeriphResetCmd) for RCC_APB1PeriphResetCmd
    spi.o(i._ZN8SPIClass5beginEv) refers to spi.o(i._ZN8SPIClass12SPI_SettingsEP11SPI_TypeDeftttttt) for SPIClass::SPI_Settings(SPI_TypeDef*, unsigned short, unsigned short, unsigned short, unsigned short, unsigned short, unsigned short)
    spi.o(i._ZN8SPIClass5beginEv) refers to system_stm32f4xx.o(.data) for SystemCoreClock
    spi.o(i._ZN8SPIClass8setClockEj) refers to stm32f4xx_spi.o(i.SPI_Init) for SPI_Init
    spi.o(i._ZN8SPIClass8setClockEj) refers to stm32f4xx_spi.o(i.SPI_Cmd) for SPI_Cmd
    spi.o(i.__sti___7_SPI_cpp_ce5662b4) refers to spi.o(.bss) for .bss
    spi.o(.ARM.exidx) refers to spi.o(i._ZN8SPIClassC1EP11SPI_TypeDef) for i._ZN8SPIClassC1EP11SPI_TypeDef
    spi.o(.ARM.exidx) refers to spi.o(i._ZN8SPIClass12SPI_SettingsEP11SPI_TypeDeftttttt) for i._ZN8SPIClass12SPI_SettingsEP11SPI_TypeDeftttttt
    spi.o(.ARM.exidx) refers to spi.o(i._ZN8SPIClass5beginEv) for i._ZN8SPIClass5beginEv
    spi.o(.ARM.exidx) refers to spi.o(i._ZN8SPIClass11setDataModeEh) for i._ZN8SPIClass11setDataModeEh
    spi.o(.ARM.exidx) refers to spi.o(i._ZN8SPIClass11setBitOrderEt) for i._ZN8SPIClass11setBitOrderEt
    spi.o(.ARM.exidx) refers to spi.o(i._ZN8SPIClass8setClockEj) for i._ZN8SPIClass8setClockEj
    spi.o(.ARM.exidx) refers to spi.o(i._ZN8SPIClass5beginEjtt) for i._ZN8SPIClass5beginEjtt
    spi.o(.ARM.exidx) refers to spi.o(i._ZN8SPIClass5beginE11SPISettings) for i._ZN8SPIClass5beginE11SPISettings
    spi.o(.ARM.exidx) refers to spi.o(i._ZN8SPIClass10beginSlaveEv) for i._ZN8SPIClass10beginSlaveEv
    spi.o(.ARM.exidx) refers to spi.o(i._ZN8SPIClass21beginTransactionSlaveEv) for i._ZN8SPIClass21beginTransactionSlaveEv
    spi.o(.ARM.exidx) refers to spi.o(i._ZN8SPIClass11setDataSizeEt) for i._ZN8SPIClass11setDataSizeEt
    spi.o(.ARM.exidx) refers to spi.o(i._ZN8SPIClass16beginTransactionE11SPISettings) for i._ZN8SPIClass16beginTransactionE11SPISettings
    spi.o(.ARM.exidx) refers to spi.o(i._ZN8SPIClass14endTransactionEv) for i._ZN8SPIClass14endTransactionEv
    spi.o(.ARM.exidx) refers to spi.o(i._ZN8SPIClass3endEv) for i._ZN8SPIClass3endEv
    spi.o(.ARM.exidx) refers to spi.o(i._ZN8SPIClass15setClockDividerEj) for i._ZN8SPIClass15setClockDividerEj
    spi.o(.ARM.exidx) refers to spi.o(i._ZN8SPIClass4readEv) for i._ZN8SPIClass4readEv
    spi.o(.ARM.exidx) refers to spi.o(i._ZN8SPIClass4readEPhj) for i._ZN8SPIClass4readEPhj
    spi.o(.ARM.exidx) refers to spi.o(i._ZN8SPIClass5writeEt) for i._ZN8SPIClass5writeEt
    spi.o(.ARM.exidx) refers to spi.o(i._ZN8SPIClass5writeEtj) for i._ZN8SPIClass5writeEtj
    spi.o(.ARM.exidx) refers to spi.o(i._ZN8SPIClass5writeEPKhj) for i._ZN8SPIClass5writeEPKhj
    spi.o(.ARM.exidx) refers to spi.o(i._ZN8SPIClass5writeEPKtj) for i._ZN8SPIClass5writeEPKtj
    spi.o(.ARM.exidx) refers to spi.o(i._ZNK8SPIClass8transferEh) for i._ZNK8SPIClass8transferEh
    spi.o(.ARM.exidx) refers to spi.o(i._ZNK8SPIClass10transfer16Et) for i._ZNK8SPIClass10transfer16Et
    spi.o(.ARM.exidx) refers to spi.o(i._ZN8SPIClass4sendEh) for i._ZN8SPIClass4sendEh
    spi.o(.ARM.exidx) refers to spi.o(i._ZN8SPIClass4sendEPhj) for i._ZN8SPIClass4sendEPhj
    spi.o(.ARM.exidx) refers to spi.o(i._ZN8SPIClass4recvEv) for i._ZN8SPIClass4recvEv
    spi.o(.ARM.exidx) refers to spi.o(i.__sti___7_SPI_cpp_ce5662b4) for i.__sti___7_SPI_cpp_ce5662b4
    spi.o(.init_array) refers to spi.o(i.__sti___7_SPI_cpp_ce5662b4) for __sti___7_SPI_cpp_ce5662b4
    spi.o(.init_array) refers to init_aeabi.o(.text) for __cpp_initialize__aeabi_
    stream.o(i._ZN6Stream10parseFloatEc) refers to stream.o(i._ZN6Stream13peekNextDigitEv) for Stream::peekNextDigit()
    stream.o(i._ZN6Stream10parseFloatEc) refers to stream.o(i._ZN6Stream9timedPeekEv) for Stream::timedPeek()
    stream.o(i._ZN6Stream10parseFloatEv) refers to stream.o(i._ZN6Stream10parseFloatEc) for Stream::parseFloat(char)
    stream.o(i._ZN6Stream10readStringEv) refers to wstring.o(i._ZN6StringC1EPKc) for String::String(const char*)
    stream.o(i._ZN6Stream10readStringEv) refers to wstring.o(i._ZN6String6concatEc) for String::concat(char)
    stream.o(i._ZN6Stream10readStringEv) refers to stream.o(i._ZN6Stream9timedReadEv) for Stream::timedRead()
    stream.o(i._ZN6Stream13peekNextDigitEv) refers to stream.o(i._ZN6Stream9timedPeekEv) for Stream::timedPeek()
    stream.o(i._ZN6Stream14readBytesUntilEcPcj) refers to stream.o(i._ZN6Stream9timedReadEv) for Stream::timedRead()
    stream.o(i._ZN6Stream15readStringUntilEc) refers to wstring.o(i._ZN6StringC1EPKc) for String::String(const char*)
    stream.o(i._ZN6Stream15readStringUntilEc) refers to wstring.o(i._ZN6String6concatEc) for String::concat(char)
    stream.o(i._ZN6Stream15readStringUntilEc) refers to stream.o(i._ZN6Stream9timedReadEv) for Stream::timedRead()
    stream.o(i._ZN6Stream4findEPc) refers to strlen.o(.text) for strlen
    stream.o(i._ZN6Stream4findEPc) refers to stream.o(i._ZN6Stream9findUntilEPcjS0_j) for Stream::findUntil(char*, unsigned, char*, unsigned)
    stream.o(i._ZN6Stream4findEPcj) refers to stream.o(i._ZN6Stream9findUntilEPcjS0_j) for Stream::findUntil(char*, unsigned, char*, unsigned)
    stream.o(i._ZN6Stream8parseIntEc) refers to stream.o(i._ZN6Stream13peekNextDigitEv) for Stream::peekNextDigit()
    stream.o(i._ZN6Stream8parseIntEc) refers to stream.o(i._ZN6Stream9timedPeekEv) for Stream::timedPeek()
    stream.o(i._ZN6Stream8parseIntEv) refers to stream.o(i._ZN6Stream8parseIntEc) for Stream::parseInt(char)
    stream.o(i._ZN6Stream9findMultiEPNS_11MultiTargetEi) refers to stream.o(i._ZN6Stream9timedReadEv) for Stream::timedRead()
    stream.o(i._ZN6Stream9findUntilEPcS0_) refers to strlen.o(.text) for strlen
    stream.o(i._ZN6Stream9findUntilEPcS0_) refers to stream.o(i._ZN6Stream9findUntilEPcjS0_j) for Stream::findUntil(char*, unsigned, char*, unsigned)
    stream.o(i._ZN6Stream9findUntilEPcjS0_j) refers to stream.o(i._ZN6Stream9timedReadEv) for Stream::timedRead()
    stream.o(i._ZN6Stream9readBytesEPcj) refers to stream.o(i._ZN6Stream9timedReadEv) for Stream::timedRead()
    stream.o(i._ZN6Stream9timedPeekEv) refers to delay.o(i.millis) for millis
    stream.o(i._ZN6Stream9timedReadEv) refers to delay.o(i.millis) for millis
    stream.o(.ARM.exidx) refers to stream.o(i._ZN6Stream9timedReadEv) for i._ZN6Stream9timedReadEv
    stream.o(.ARM.exidx) refers to stream.o(i._ZN6Stream9timedPeekEv) for i._ZN6Stream9timedPeekEv
    stream.o(.ARM.exidx) refers to stream.o(i._ZN6Stream13peekNextDigitEv) for i._ZN6Stream13peekNextDigitEv
    stream.o(.ARM.exidx) refers to stream.o(i._ZN6Stream10setTimeoutEm) for i._ZN6Stream10setTimeoutEm
    stream.o(.ARM.exidx) refers to stream.o(i._ZN6Stream9findUntilEPcjS0_j) for i._ZN6Stream9findUntilEPcjS0_j
    stream.o(.ARM.exidx) refers to stream.o(i._ZN6Stream4findEPc) for i._ZN6Stream4findEPc
    stream.o(.ARM.exidx) refers to stream.o(i._ZN6Stream4findEPcj) for i._ZN6Stream4findEPcj
    stream.o(.ARM.exidx) refers to stream.o(i._ZN6Stream9findUntilEPcS0_) for i._ZN6Stream9findUntilEPcS0_
    stream.o(.ARM.exidx) refers to stream.o(i._ZN6Stream8parseIntEc) for i._ZN6Stream8parseIntEc
    stream.o(.ARM.exidx) refers to stream.o(i._ZN6Stream8parseIntEv) for i._ZN6Stream8parseIntEv
    stream.o(.ARM.exidx) refers to stream.o(i._ZN6Stream10parseFloatEc) for i._ZN6Stream10parseFloatEc
    stream.o(.ARM.exidx) refers to stream.o(i._ZN6Stream10parseFloatEv) for i._ZN6Stream10parseFloatEv
    stream.o(.ARM.exidx) refers to stream.o(i._ZN6Stream9readBytesEPcj) for i._ZN6Stream9readBytesEPcj
    stream.o(.ARM.exidx) refers to stream.o(i._ZN6Stream14readBytesUntilEcPcj) for i._ZN6Stream14readBytesUntilEcPcj
    stream.o(.ARM.exidx) refers to stream.o(i._ZN6Stream10readStringEv) for i._ZN6Stream10readStringEv
    stream.o(.ARM.exidx) refers to stream.o(i._ZN6Stream15readStringUntilEc) for i._ZN6Stream15readStringUntilEc
    stream.o(.ARM.exidx) refers to stream.o(i._ZN6Stream9findMultiEPNS_11MultiTargetEi) for i._ZN6Stream9findMultiEPNS_11MultiTargetEi
    tone.o(i._Z12toneSetTimerP11TIM_TypeDef) refers to tone.o(.data) for .data
    tone.o(i._Z16toneBlock_Volumnhjjj) refers to delay.o(i.millis) for millis
    tone.o(i._Z16toneBlock_Volumnhjjj) refers to delay.o(i.delay_us) for delay_us
    tone.o(i._Z16toneBlock_Volumnhjjj) refers to gpio.o(.constdata) for PIN_MAP
    tone.o(i._Z17tone_TimerHandlerv) refers to delay.o(i.millis) for millis
    tone.o(i._Z17tone_TimerHandlerv) refers to tone.o(i._Z6noToneh) for noTone(unsigned char)
    tone.o(i._Z17tone_TimerHandlerv) refers to gpio.o(.constdata) for PIN_MAP
    tone.o(i._Z17tone_TimerHandlerv) refers to tone.o(.data) for .data
    tone.o(i._Z19toneBlock_Volumn_ushjjj) refers to delay.o(i.micros) for micros
    tone.o(i._Z19toneBlock_Volumn_ushjjj) refers to delay.o(i.delay_us) for delay_us
    tone.o(i._Z19toneBlock_Volumn_ushjjj) refers to gpio.o(.constdata) for PIN_MAP
    tone.o(i._Z4tonehj) refers to tone.o(i._Z6noToneh) for noTone(unsigned char)
    tone.o(i._Z4tonehj) refers to timer.o(i.Timer_SetInterruptBase) for Timer_SetInterruptBase
    tone.o(i._Z4tonehj) refers to timer.o(i.Timer_SetInterruptTimeUpdate) for Timer_SetInterruptTimeUpdate
    tone.o(i._Z4tonehj) refers to stm32f4xx_tim.o(i.TIM_Cmd) for TIM_Cmd
    tone.o(i._Z4tonehj) refers to tone.o(.data) for .data
    tone.o(i._Z4tonehj) refers to tone.o(i._Z17tone_TimerHandlerv) for tone_TimerHandler()
    tone.o(i._Z4tonehjj) refers to tone.o(i._Z6noToneh) for noTone(unsigned char)
    tone.o(i._Z4tonehjj) refers to tone.o(i._Z4tonehj) for tone(unsigned char, unsigned)
    tone.o(i._Z4tonehjj) refers to delay.o(i.millis) for millis
    tone.o(i._Z4tonehjj) refers to tone.o(.data) for .data
    tone.o(i._Z6noToneh) refers to stm32f4xx_tim.o(i.TIM_Cmd) for TIM_Cmd
    tone.o(i._Z6noToneh) refers to arduino.o(i.digitalWrite) for digitalWrite
    tone.o(i._Z6noToneh) refers to tone.o(.data) for .data
    tone.o(i._Z9toneBlockhjj) refers to delay.o(i.millis) for millis
    tone.o(i._Z9toneBlockhjj) refers to delay.o(i.delay_us) for delay_us
    tone.o(i._Z9toneBlockhjj) refers to gpio.o(.constdata) for PIN_MAP
    tone.o(.ARM.exidx) refers to tone.o(i._Z6noToneh) for i._Z6noToneh
    tone.o(.ARM.exidx) refers to tone.o(i._Z17tone_TimerHandlerv) for i._Z17tone_TimerHandlerv
    tone.o(.ARM.exidx) refers to tone.o(i._Z12toneSetTimerP11TIM_TypeDef) for i._Z12toneSetTimerP11TIM_TypeDef
    tone.o(.ARM.exidx) refers to tone.o(i._Z4tonehj) for i._Z4tonehj
    tone.o(.ARM.exidx) refers to tone.o(i._Z4tonehjj) for i._Z4tonehjj
    tone.o(.ARM.exidx) refers to tone.o(i._Z9toneBlockhjj) for i._Z9toneBlockhjj
    tone.o(.ARM.exidx) refers to tone.o(i._Z16toneBlock_Volumnhjjj) for i._Z16toneBlock_Volumnhjjj
    tone.o(.ARM.exidx) refers to tone.o(i._Z19toneBlock_Volumn_ushjjj) for i._Z19toneBlock_Volumn_ushjjj
    wire.o(i._ZN7TwoWire11i2c_get_ackEv) refers to wire.o(i._ZN7TwoWire7set_sclEb) for TwoWire::set_scl(bool)
    wire.o(i._ZN7TwoWire11i2c_get_ackEv) refers to wire.o(i._ZN7TwoWire7set_sdaEb) for TwoWire::set_sda(bool)
    wire.o(i._ZN7TwoWire11i2c_get_ackEv) refers to arduino.o(i.digitalRead) for digitalRead
    wire.o(i._ZN7TwoWire12i2c_send_ackEv) refers to wire.o(i._ZN7TwoWire7set_sdaEb) for TwoWire::set_sda(bool)
    wire.o(i._ZN7TwoWire12i2c_send_ackEv) refers to wire.o(i._ZN7TwoWire7set_sclEb) for TwoWire::set_scl(bool)
    wire.o(i._ZN7TwoWire12i2c_shift_inEv) refers to wire.o(i._ZN7TwoWire7set_sdaEb) for TwoWire::set_sda(bool)
    wire.o(i._ZN7TwoWire12i2c_shift_inEv) refers to wire.o(i._ZN7TwoWire7set_sclEb) for TwoWire::set_scl(bool)
    wire.o(i._ZN7TwoWire12i2c_shift_inEv) refers to arduino.o(i.digitalRead) for digitalRead
    wire.o(i._ZN7TwoWire13i2c_send_nackEv) refers to wire.o(i._ZN7TwoWire7set_sdaEb) for TwoWire::set_sda(bool)
    wire.o(i._ZN7TwoWire13i2c_send_nackEv) refers to wire.o(i._ZN7TwoWire7set_sclEb) for TwoWire::set_scl(bool)
    wire.o(i._ZN7TwoWire13i2c_shift_outEh) refers to wire.o(i._ZN7TwoWire7set_sdaEb) for TwoWire::set_sda(bool)
    wire.o(i._ZN7TwoWire13i2c_shift_outEh) refers to wire.o(i._ZN7TwoWire7set_sclEb) for TwoWire::set_scl(bool)
    wire.o(i._ZN7TwoWire5beginEh) refers to arduino.o(i.pinMode) for pinMode
    wire.o(i._ZN7TwoWire5beginEh) refers to wire.o(i._ZN7TwoWire7set_sclEb) for TwoWire::set_scl(bool)
    wire.o(i._ZN7TwoWire5beginEh) refers to wire.o(i._ZN7TwoWire7set_sdaEb) for TwoWire::set_sda(bool)
    wire.o(i._ZN7TwoWire7processEv) refers to wire.o(i._ZN7TwoWire9i2c_startEv) for TwoWire::i2c_start()
    wire.o(i._ZN7TwoWire7processEv) refers to wire.o(i._ZN7TwoWire13i2c_shift_outEh) for TwoWire::i2c_shift_out(unsigned char)
    wire.o(i._ZN7TwoWire7processEv) refers to wire.o(i._ZN7TwoWire11i2c_get_ackEv) for TwoWire::i2c_get_ack()
    wire.o(i._ZN7TwoWire7processEv) refers to wire.o(i._ZN7TwoWire8i2c_stopEv) for TwoWire::i2c_stop()
    wire.o(i._ZN7TwoWire7processEv) refers to wire.o(i._ZN7TwoWire12i2c_shift_inEv) for TwoWire::i2c_shift_in()
    wire.o(i._ZN7TwoWire7processEv) refers to wire.o(i._ZN7TwoWire12i2c_send_ackEv) for TwoWire::i2c_send_ack()
    wire.o(i._ZN7TwoWire7processEv) refers to wire.o(i._ZN7TwoWire13i2c_send_nackEv) for TwoWire::i2c_send_nack()
    wire.o(i._ZN7TwoWire7set_sclEb) refers to delay.o(i.delay_us) for delay_us
    wire.o(i._ZN7TwoWire7set_sclEb) refers to arduino.o(i.digitalWrite) for digitalWrite
    wire.o(i._ZN7TwoWire7set_sclEb) refers to arduino.o(i.digitalRead) for digitalRead
    wire.o(i._ZN7TwoWire7set_sdaEb) refers to delay.o(i.delay_us) for delay_us
    wire.o(i._ZN7TwoWire7set_sdaEb) refers to arduino.o(i.digitalWrite) for digitalWrite
    wire.o(i._ZN7TwoWire8i2c_stopEv) refers to wire.o(i._ZN7TwoWire7set_sdaEb) for TwoWire::set_sda(bool)
    wire.o(i._ZN7TwoWire8i2c_stopEv) refers to wire.o(i._ZN7TwoWire7set_sclEb) for TwoWire::set_scl(bool)
    wire.o(i._ZN7TwoWire9i2c_startEv) refers to wire.o(i._ZN7TwoWire7set_sdaEb) for TwoWire::set_sda(bool)
    wire.o(i._ZN7TwoWire9i2c_startEv) refers to wire.o(i._ZN7TwoWire7set_sclEb) for TwoWire::set_scl(bool)
    wire.o(i._ZN7TwoWireC1Ehhh) refers to wire.o(.constdata__ZTV7TwoWire) for vtable for TwoWire
    wire.o(i._ZN7TwoWireD1Ev) refers to wire.o(.constdata__ZTV7TwoWire) for vtable for TwoWire
    wire.o(i.__sti___8_Wire_cpp_928ee5ff) refers to wire.o(i._ZN7TwoWireC1Ehhh) for TwoWire::TwoWire(unsigned char, unsigned char, unsigned char)
    wire.o(i.__sti___8_Wire_cpp_928ee5ff) refers to aeabi_atexit.o(.text) for __aeabi_atexit
    wire.o(i.__sti___8_Wire_cpp_928ee5ff) refers to wire.o(.bss) for .bss
    wire.o(i.__sti___8_Wire_cpp_928ee5ff) refers to wire.o(i._ZN7TwoWireD1Ev) for TwoWire::~TwoWire()
    wire.o(.ARM.exidx) refers to wire.o(i._ZN7TwoWire7set_sclEb) for i._ZN7TwoWire7set_sclEb
    wire.o(.ARM.exidx) refers to wire.o(i._ZN7TwoWire7set_sdaEb) for i._ZN7TwoWire7set_sdaEb
    wire.o(.ARM.exidx) refers to wire.o(i._ZN7TwoWire9i2c_startEv) for i._ZN7TwoWire9i2c_startEv
    wire.o(.ARM.exidx) refers to wire.o(i._ZN7TwoWire8i2c_stopEv) for i._ZN7TwoWire8i2c_stopEv
    wire.o(.ARM.exidx) refers to wire.o(i._ZN7TwoWire11i2c_get_ackEv) for i._ZN7TwoWire11i2c_get_ackEv
    wire.o(.ARM.exidx) refers to wire.o(i._ZN7TwoWire12i2c_send_ackEv) for i._ZN7TwoWire12i2c_send_ackEv
    wire.o(.ARM.exidx) refers to wire.o(i._ZN7TwoWire13i2c_send_nackEv) for i._ZN7TwoWire13i2c_send_nackEv
    wire.o(.ARM.exidx) refers to wire.o(i._ZN7TwoWire12i2c_shift_inEv) for i._ZN7TwoWire12i2c_shift_inEv
    wire.o(.ARM.exidx) refers to wire.o(i._ZN7TwoWire13i2c_shift_outEh) for i._ZN7TwoWire13i2c_shift_outEh
    wire.o(.ARM.exidx) refers to wire.o(i._ZN7TwoWire7processEv) for i._ZN7TwoWire7processEv
    wire.o(.ARM.exidx) refers to wire.o(i._ZN7TwoWireC1Ehhh) for i._ZN7TwoWireC1Ehhh
    wire.o(.ARM.exidx) refers to wire.o(i._ZN7TwoWire5beginEh) for i._ZN7TwoWire5beginEh
    wire.o(.ARM.exidx) refers to wire.o(i._ZN7TwoWireD1Ev) for i._ZN7TwoWireD1Ev
    wire.o(.ARM.exidx) refers to wire.o(i.__sti___8_Wire_cpp_928ee5ff) for i.__sti___8_Wire_cpp_928ee5ff
    wire.o(.init_array) refers to wire.o(i.__sti___8_Wire_cpp_928ee5ff) for __sti___8_Wire_cpp_928ee5ff
    wire.o(.init_array) refers to init_aeabi.o(.text) for __cpp_initialize__aeabi_
    wirebase.o(i._ZN8WireBase11requestFromEii) refers to wirebase.o(i._ZN8WireBase11requestFromEhi) for WireBase::requestFrom(unsigned char, int)
    wirebase.o(i._ZN8WireBase17beginTransmissionEi) refers to wirebase.o(i._ZN8WireBase17beginTransmissionEh) for WireBase::beginTransmission(unsigned char)
    wirebase.o(i._ZN8WireBase5writeEPc) refers to wirebase.o(i._ZN8WireBase5writeEh) for WireBase::write(unsigned char)
    wirebase.o(i._ZN8WireBase5writeEPhi) refers to wirebase.o(i._ZN8WireBase5writeEh) for WireBase::write(unsigned char)
    wirebase.o(i._ZN8WireBase5writeEPii) refers to wirebase.o(i._ZN8WireBase5writeEPhi) for WireBase::write(unsigned char*, int)
    wirebase.o(i._ZN8WireBase5writeEi) refers to wirebase.o(i._ZN8WireBase5writeEh) for WireBase::write(unsigned char)
    wirebase.o(.ARM.exidx) refers to wirebase.o(i._ZN8WireBase5beginEh) for i._ZN8WireBase5beginEh
    wirebase.o(.ARM.exidx) refers to wirebase.o(i._ZN8WireBase8setClockEj) for i._ZN8WireBase8setClockEj
    wirebase.o(.ARM.exidx) refers to wirebase.o(i._ZN8WireBase17beginTransmissionEh) for i._ZN8WireBase17beginTransmissionEh
    wirebase.o(.ARM.exidx) refers to wirebase.o(i._ZN8WireBase17beginTransmissionEi) for i._ZN8WireBase17beginTransmissionEi
    wirebase.o(.ARM.exidx) refers to wirebase.o(i._ZN8WireBase15endTransmissionEv) for i._ZN8WireBase15endTransmissionEv
    wirebase.o(.ARM.exidx) refers to wirebase.o(i._ZN8WireBase11requestFromEhi) for i._ZN8WireBase11requestFromEhi
    wirebase.o(.ARM.exidx) refers to wirebase.o(i._ZN8WireBase11requestFromEii) for i._ZN8WireBase11requestFromEii
    wirebase.o(.ARM.exidx) refers to wirebase.o(i._ZN8WireBase5writeEh) for i._ZN8WireBase5writeEh
    wirebase.o(.ARM.exidx) refers to wirebase.o(i._ZN8WireBase5writeEPhi) for i._ZN8WireBase5writeEPhi
    wirebase.o(.ARM.exidx) refers to wirebase.o(i._ZN8WireBase5writeEi) for i._ZN8WireBase5writeEi
    wirebase.o(.ARM.exidx) refers to wirebase.o(i._ZN8WireBase5writeEPii) for i._ZN8WireBase5writeEPii
    wirebase.o(.ARM.exidx) refers to wirebase.o(i._ZN8WireBase5writeEPc) for i._ZN8WireBase5writeEPc
    wirebase.o(.ARM.exidx) refers to wirebase.o(i._ZN8WireBase9availableEv) for i._ZN8WireBase9availableEv
    wirebase.o(.ARM.exidx) refers to wirebase.o(i._ZN8WireBase4readEv) for i._ZN8WireBase4readEv
    wmath.o(i._Z10randomSeedm) refers to rand.o(.text) for srand
    wmath.o(i._Z6randoml) refers to rand.o(.emb_text) for rand
    wmath.o(i._Z6randomll) refers to wmath.o(i._Z6randoml) for random(long)
    wmath.o(.ARM.exidx) refers to wmath.o(i._Z10randomSeedm) for i._Z10randomSeedm
    wmath.o(.ARM.exidx) refers to wmath.o(i._Z6randoml) for i._Z6randoml
    wmath.o(.ARM.exidx) refers to wmath.o(i._Z6randomll) for i._Z6randomll
    wmath.o(.ARM.exidx) refers to wmath.o(i._Z8makeWordj) for i._Z8makeWordj
    wmath.o(.ARM.exidx) refers to wmath.o(i._Z8makeWordhh) for i._Z8makeWordhh
    wstring.o(i._ZN6String10invalidateEv) refers to h1_free.o(.text) for free
    wstring.o(i._ZN6String11toLowerCaseEv) refers to tolower.o(.text) for tolower
    wstring.o(i._ZN6String11toUpperCaseEv) refers to toupper.o(.text) for toupper
    wstring.o(i._ZN6String12changeBufferEj) refers to h1_realloc.o(.text) for realloc
    wstring.o(i._ZN6String4copyEPK19__FlashStringHelperj) refers to wstring.o(i._ZN6String7reserveEj) for String::reserve(unsigned)
    wstring.o(i._ZN6String4copyEPK19__FlashStringHelperj) refers to strcpy.o(.text) for strcpy
    wstring.o(i._ZN6String4copyEPK19__FlashStringHelperj) refers to wstring.o(i._ZN6String10invalidateEv) for String::invalidate()
    wstring.o(i._ZN6String4copyEPKcj) refers to wstring.o(i._ZN6String7reserveEj) for String::reserve(unsigned)
    wstring.o(i._ZN6String4copyEPKcj) refers to strcpy.o(.text) for strcpy
    wstring.o(i._ZN6String4copyEPKcj) refers to wstring.o(i._ZN6String10invalidateEv) for String::invalidate()
    wstring.o(i._ZN6String4trimEv) refers to rt_ctype_table.o(.text) for __rt_ctype_table
    wstring.o(i._ZN6String4trimEv) refers to rt_memcpy_v6.o(.text) for __aeabi_memcpy
    wstring.o(i._ZN6String6concatEPK19__FlashStringHelper) refers to strlen.o(.text) for strlen
    wstring.o(i._ZN6String6concatEPK19__FlashStringHelper) refers to wstring.o(i._ZN6String7reserveEj) for String::reserve(unsigned)
    wstring.o(i._ZN6String6concatEPK19__FlashStringHelper) refers to strcpy.o(.text) for strcpy
    wstring.o(i._ZN6String6concatEPKc) refers to strlen.o(.text) for strlen
    wstring.o(i._ZN6String6concatEPKc) refers to wstring.o(i._ZN6String6concatEPKcj) for String::concat(const char*, unsigned)
    wstring.o(i._ZN6String6concatEPKcj) refers to wstring.o(i._ZN6String7reserveEj) for String::reserve(unsigned)
    wstring.o(i._ZN6String6concatEPKcj) refers to strcpy.o(.text) for strcpy
    wstring.o(i._ZN6String6concatERKS_) refers to wstring.o(i._ZN6String6concatEPKcj) for String::concat(const char*, unsigned)
    wstring.o(i._ZN6String6concatEc) refers to wstring.o(i._ZN6String6concatEPKcj) for String::concat(const char*, unsigned)
    wstring.o(i._ZN6String6concatEd) refers to dtostrf.o(i.dtostrf) for dtostrf
    wstring.o(i._ZN6String6concatEd) refers to strlen.o(.text) for strlen
    wstring.o(i._ZN6String6concatEd) refers to wstring.o(i._ZN6String6concatEPKcj) for String::concat(const char*, unsigned)
    wstring.o(i._ZN6String6concatEf) refers to f2d.o(x$fpl$f2d) for __aeabi_f2d
    wstring.o(i._ZN6String6concatEf) refers to dtostrf.o(i.dtostrf) for dtostrf
    wstring.o(i._ZN6String6concatEf) refers to strlen.o(.text) for strlen
    wstring.o(i._ZN6String6concatEf) refers to wstring.o(i._ZN6String6concatEPKcj) for String::concat(const char*, unsigned)
    wstring.o(i._ZN6String6concatEh) refers to itoa.o(i.itoa) for itoa
    wstring.o(i._ZN6String6concatEh) refers to strlen.o(.text) for strlen
    wstring.o(i._ZN6String6concatEh) refers to wstring.o(i._ZN6String6concatEPKcj) for String::concat(const char*, unsigned)
    wstring.o(i._ZN6String6concatEi) refers to itoa.o(i.itoa) for itoa
    wstring.o(i._ZN6String6concatEi) refers to strlen.o(.text) for strlen
    wstring.o(i._ZN6String6concatEi) refers to wstring.o(i._ZN6String6concatEPKcj) for String::concat(const char*, unsigned)
    wstring.o(i._ZN6String6concatEj) refers to itoa.o(i.utoa) for utoa
    wstring.o(i._ZN6String6concatEj) refers to strlen.o(.text) for strlen
    wstring.o(i._ZN6String6concatEj) refers to wstring.o(i._ZN6String6concatEPKcj) for String::concat(const char*, unsigned)
    wstring.o(i._ZN6String6concatEl) refers to itoa.o(i.ltoa) for ltoa
    wstring.o(i._ZN6String6concatEl) refers to strlen.o(.text) for strlen
    wstring.o(i._ZN6String6concatEl) refers to wstring.o(i._ZN6String6concatEPKcj) for String::concat(const char*, unsigned)
    wstring.o(i._ZN6String6concatEm) refers to itoa.o(i.ultoa) for ultoa
    wstring.o(i._ZN6String6concatEm) refers to strlen.o(.text) for strlen
    wstring.o(i._ZN6String6concatEm) refers to wstring.o(i._ZN6String6concatEPKcj) for String::concat(const char*, unsigned)
    wstring.o(i._ZN6String6removeEj) refers to wstring.o(i._ZN6String6removeEjj) for String::remove(unsigned, unsigned)
    wstring.o(i._ZN6String6removeEjj) refers to strncpy.o(.text) for strncpy
    wstring.o(i._ZN6String7replaceERKS_S1_) refers to rt_memcpy_v6.o(.text) for __aeabi_memcpy
    wstring.o(i._ZN6String7replaceERKS_S1_) refers to wstring.o(i._ZSt6strstrPcPKc) for std::strstr(char*, const char*)
    wstring.o(i._ZN6String7replaceERKS_S1_) refers to strcpy.o(.text) for strcpy
    wstring.o(i._ZN6String7replaceERKS_S1_) refers to wstring.o(i._ZN6String12changeBufferEj) for String::changeBuffer(unsigned)
    wstring.o(i._ZN6String7replaceERKS_S1_) refers to rt_memmove_v6.o(.text) for __aeabi_memmove
    wstring.o(i._ZN6String7replaceERKS_S1_) refers to wstring.o(i._ZNK6String11lastIndexOfERKS_j) for String::lastIndexOf(const String&, unsigned) const
    wstring.o(i._ZN6String7reserveEj) refers to wstring.o(i._ZN6String12changeBufferEj) for String::changeBuffer(unsigned)
    wstring.o(i._ZN6String7sprintfEPKcz) refers to c89vsnprintf.o(.text) for __c89vsnprintf
    wstring.o(i._ZN6String7sprintfEPKcz) refers to strlen.o(.text) for strlen
    wstring.o(i._ZN6String7sprintfEPKcz) refers to wstring.o(i._ZN6String4copyEPKcj) for String::copy(const char*, unsigned)
    wstring.o(i._ZN6StringC1EPK19__FlashStringHelper) refers to wstring.o(i._ZN6String4initEv) for String::init()
    wstring.o(i._ZN6StringC1EPK19__FlashStringHelper) refers to wstring.o(i._ZN6StringaSEPK19__FlashStringHelper) for String::operator =(const __FlashStringHelper*)
    wstring.o(i._ZN6StringC1EPKc) refers to wstring.o(i._ZN6String4initEv) for String::init()
    wstring.o(i._ZN6StringC1EPKc) refers to strlen.o(.text) for strlen
    wstring.o(i._ZN6StringC1EPKc) refers to wstring.o(i._ZN6String4copyEPKcj) for String::copy(const char*, unsigned)
    wstring.o(i._ZN6StringC1ERKS_) refers to wstring.o(i._ZN6String4initEv) for String::init()
    wstring.o(i._ZN6StringC1ERKS_) refers to wstring.o(i._ZN6StringaSERKS_) for String::operator =(const String&)
    wstring.o(i._ZN6StringC1Ec) refers to wstring.o(i._ZN6String4initEv) for String::init()
    wstring.o(i._ZN6StringC1Ec) refers to wstring.o(i._ZN6StringaSEPKc) for String::operator =(const char*)
    wstring.o(i._ZN6StringC1Edh) refers to wstring.o(i._ZN6String4initEv) for String::init()
    wstring.o(i._ZN6StringC1Edh) refers to dtostrf.o(i.dtostrf) for dtostrf
    wstring.o(i._ZN6StringC1Edh) refers to wstring.o(i._ZN6StringaSEPKc) for String::operator =(const char*)
    wstring.o(i._ZN6StringC1Efh) refers to wstring.o(i._ZN6String4initEv) for String::init()
    wstring.o(i._ZN6StringC1Efh) refers to f2d.o(x$fpl$f2d) for __aeabi_f2d
    wstring.o(i._ZN6StringC1Efh) refers to dtostrf.o(i.dtostrf) for dtostrf
    wstring.o(i._ZN6StringC1Efh) refers to wstring.o(i._ZN6StringaSEPKc) for String::operator =(const char*)
    wstring.o(i._ZN6StringC1Ehh) refers to wstring.o(i._ZN6String4initEv) for String::init()
    wstring.o(i._ZN6StringC1Ehh) refers to itoa.o(i.utoa) for utoa
    wstring.o(i._ZN6StringC1Ehh) refers to wstring.o(i._ZN6StringaSEPKc) for String::operator =(const char*)
    wstring.o(i._ZN6StringC1Eih) refers to wstring.o(i._ZN6String4initEv) for String::init()
    wstring.o(i._ZN6StringC1Eih) refers to itoa.o(i.itoa) for itoa
    wstring.o(i._ZN6StringC1Eih) refers to wstring.o(i._ZN6StringaSEPKc) for String::operator =(const char*)
    wstring.o(i._ZN6StringC1Ejh) refers to wstring.o(i._ZN6String4initEv) for String::init()
    wstring.o(i._ZN6StringC1Ejh) refers to itoa.o(i.utoa) for utoa
    wstring.o(i._ZN6StringC1Ejh) refers to wstring.o(i._ZN6StringaSEPKc) for String::operator =(const char*)
    wstring.o(i._ZN6StringC1Elh) refers to wstring.o(i._ZN6String4initEv) for String::init()
    wstring.o(i._ZN6StringC1Elh) refers to itoa.o(i.ltoa) for ltoa
    wstring.o(i._ZN6StringC1Elh) refers to wstring.o(i._ZN6StringaSEPKc) for String::operator =(const char*)
    wstring.o(i._ZN6StringC1Emh) refers to wstring.o(i._ZN6String4initEv) for String::init()
    wstring.o(i._ZN6StringC1Emh) refers to itoa.o(i.ultoa) for ultoa
    wstring.o(i._ZN6StringC1Emh) refers to wstring.o(i._ZN6StringaSEPKc) for String::operator =(const char*)
    wstring.o(i._ZN6StringD1Ev) refers to h1_free.o(.text) for free
    wstring.o(i._ZN6StringaSEPK19__FlashStringHelper) refers to strlen.o(.text) for strlen
    wstring.o(i._ZN6StringaSEPK19__FlashStringHelper) refers to wstring.o(i._ZN6String4copyEPK19__FlashStringHelperj) for String::copy(const __FlashStringHelper*, unsigned)
    wstring.o(i._ZN6StringaSEPK19__FlashStringHelper) refers to wstring.o(i._ZN6String10invalidateEv) for String::invalidate()
    wstring.o(i._ZN6StringaSEPKc) refers to strlen.o(.text) for strlen
    wstring.o(i._ZN6StringaSEPKc) refers to wstring.o(i._ZN6String4copyEPKcj) for String::copy(const char*, unsigned)
    wstring.o(i._ZN6StringaSEPKc) refers to wstring.o(i._ZN6String10invalidateEv) for String::invalidate()
    wstring.o(i._ZN6StringaSERKS_) refers to wstring.o(i._ZN6String4copyEPKcj) for String::copy(const char*, unsigned)
    wstring.o(i._ZN6StringaSERKS_) refers to wstring.o(i._ZN6String10invalidateEv) for String::invalidate()
    wstring.o(i._ZN6StringixEj) refers to wstring.o(.data) for .data
    wstring.o(i._ZNK6String10startsWithERKS_) refers to wstring.o(i._ZNK6String10startsWithERKS_j) for String::startsWith(const String&, unsigned) const
    wstring.o(i._ZNK6String10startsWithERKS_j) refers to strncmp.o(.text) for strncmp
    wstring.o(i._ZNK6String11lastIndexOfERKS_) refers to wstring.o(i._ZNK6String11lastIndexOfERKS_j) for String::lastIndexOf(const String&, unsigned) const
    wstring.o(i._ZNK6String11lastIndexOfERKS_j) refers to wstring.o(i._ZSt6strstrPcPKc) for std::strstr(char*, const char*)
    wstring.o(i._ZNK6String11lastIndexOfEc) refers to wstring.o(i._ZNK6String11lastIndexOfEcj) for String::lastIndexOf(char, unsigned) const
    wstring.o(i._ZNK6String11lastIndexOfEcj) refers to strrchr.o(.text) for strrchr
    wstring.o(i._ZNK6String16equalsIgnoreCaseERKS_) refers to tolower.o(.text) for tolower
    wstring.o(i._ZNK6String5toIntEv) refers to atol.o(.text) for atol
    wstring.o(i._ZNK6String6charAtEj) refers to wstring.o(i._ZNK6StringixEj) for String::operator [](unsigned) const
    wstring.o(i._ZNK6String6equalsEPKc) refers to strcmpv7m.o(.text) for strcmp
    wstring.o(i._ZNK6String6equalsERKS_) refers to wstring.o(i._ZNK6String9compareToERKS_) for String::compareTo(const String&) const
    wstring.o(i._ZNK6String7indexOfERKS_) refers to wstring.o(i._ZNK6String7indexOfERKS_j) for String::indexOf(const String&, unsigned) const
    wstring.o(i._ZNK6String7indexOfERKS_j) refers to wstring.o(i._ZSt6strstrPcPKc) for std::strstr(char*, const char*)
    wstring.o(i._ZNK6String7indexOfEc) refers to wstring.o(i._ZNK6String7indexOfEcj) for String::indexOf(char, unsigned) const
    wstring.o(i._ZNK6String7indexOfEcj) refers to strchr.o(.text) for strchr
    wstring.o(i._ZNK6String7toFloatEv) refers to atof.o(i.__hardfp_atof) for __hardfp_atof
    wstring.o(i._ZNK6String7toFloatEv) refers to d2f.o(x$fpl$d2f) for __aeabi_d2f
    wstring.o(i._ZNK6String8endsWithERKS_) refers to strcmpv7m.o(.text) for strcmp
    wstring.o(i._ZNK6String8getBytesEPhjj) refers to strncpy.o(.text) for strncpy
    wstring.o(i._ZNK6String9compareToERKS_) refers to strcmpv7m.o(.text) for strcmp
    wstring.o(i._ZNK6String9substringEjj) refers to wstring.o(i._ZN6StringC1EPKc) for String::String(const char*)
    wstring.o(i._ZNK6String9substringEjj) refers to wstring.o(i._ZN6StringaSEPKc) for String::operator =(const char*)
    wstring.o(i._ZNK6StringgeERKS_) refers to wstring.o(i._ZNK6String9compareToERKS_) for String::compareTo(const String&) const
    wstring.o(i._ZNK6StringgtERKS_) refers to wstring.o(i._ZNK6String9compareToERKS_) for String::compareTo(const String&) const
    wstring.o(i._ZNK6StringleERKS_) refers to wstring.o(i._ZNK6String9compareToERKS_) for String::compareTo(const String&) const
    wstring.o(i._ZNK6StringltERKS_) refers to wstring.o(i._ZNK6String9compareToERKS_) for String::compareTo(const String&) const
    wstring.o(i._ZplRK15StringSumHelperPK19__FlashStringHelper) refers to wstring.o(i._ZN6String6concatEPK19__FlashStringHelper) for String::concat(const __FlashStringHelper*)
    wstring.o(i._ZplRK15StringSumHelperPK19__FlashStringHelper) refers to wstring.o(i._ZN6String10invalidateEv) for String::invalidate()
    wstring.o(i._ZplRK15StringSumHelperPKc) refers to strlen.o(.text) for strlen
    wstring.o(i._ZplRK15StringSumHelperPKc) refers to wstring.o(i._ZN6String6concatEPKcj) for String::concat(const char*, unsigned)
    wstring.o(i._ZplRK15StringSumHelperPKc) refers to wstring.o(i._ZN6String10invalidateEv) for String::invalidate()
    wstring.o(i._ZplRK15StringSumHelperRK6String) refers to wstring.o(i._ZN6String6concatEPKcj) for String::concat(const char*, unsigned)
    wstring.o(i._ZplRK15StringSumHelperRK6String) refers to wstring.o(i._ZN6String10invalidateEv) for String::invalidate()
    wstring.o(i._ZplRK15StringSumHelperc) refers to wstring.o(i._ZN6String6concatEc) for String::concat(char)
    wstring.o(i._ZplRK15StringSumHelperc) refers to wstring.o(i._ZN6String10invalidateEv) for String::invalidate()
    wstring.o(i._ZplRK15StringSumHelperd) refers to wstring.o(i._ZN6String6concatEd) for String::concat(double)
    wstring.o(i._ZplRK15StringSumHelperd) refers to wstring.o(i._ZN6String10invalidateEv) for String::invalidate()
    wstring.o(i._ZplRK15StringSumHelperf) refers to wstring.o(i._ZN6String6concatEf) for String::concat(float)
    wstring.o(i._ZplRK15StringSumHelperf) refers to wstring.o(i._ZN6String10invalidateEv) for String::invalidate()
    wstring.o(i._ZplRK15StringSumHelperh) refers to wstring.o(i._ZN6String6concatEh) for String::concat(unsigned char)
    wstring.o(i._ZplRK15StringSumHelperh) refers to wstring.o(i._ZN6String10invalidateEv) for String::invalidate()
    wstring.o(i._ZplRK15StringSumHelperi) refers to wstring.o(i._ZN6String6concatEi) for String::concat(int)
    wstring.o(i._ZplRK15StringSumHelperi) refers to wstring.o(i._ZN6String10invalidateEv) for String::invalidate()
    wstring.o(i._ZplRK15StringSumHelperj) refers to wstring.o(i._ZN6String6concatEj) for String::concat(unsigned)
    wstring.o(i._ZplRK15StringSumHelperj) refers to wstring.o(i._ZN6String10invalidateEv) for String::invalidate()
    wstring.o(i._ZplRK15StringSumHelperl) refers to wstring.o(i._ZN6String6concatEl) for String::concat(long)
    wstring.o(i._ZplRK15StringSumHelperl) refers to wstring.o(i._ZN6String10invalidateEv) for String::invalidate()
    wstring.o(i._ZplRK15StringSumHelperm) refers to wstring.o(i._ZN6String6concatEm) for String::concat(unsigned long)
    wstring.o(i._ZplRK15StringSumHelperm) refers to wstring.o(i._ZN6String10invalidateEv) for String::invalidate()
    wstring.o(.ARM.exidx) refers to wstring.o(i._ZN6String10invalidateEv) for i._ZN6String10invalidateEv
    wstring.o(.ARM.exidx) refers to wstring.o(i._ZN6String12changeBufferEj) for i._ZN6String12changeBufferEj
    wstring.o(.ARM.exidx) refers to wstring.o(i._ZN6String7reserveEj) for i._ZN6String7reserveEj
    wstring.o(.ARM.exidx) refers to wstring.o(i._ZN6String6concatEPKcj) for i._ZN6String6concatEPKcj
    wstring.o(.ARM.exidx) refers to wstring.o(i._ZplRK15StringSumHelperRK6String) for i._ZplRK15StringSumHelperRK6String
    wstring.o(.ARM.exidx) refers to wstring.o(i._ZplRK15StringSumHelperPKc) for i._ZplRK15StringSumHelperPKc
    wstring.o(.ARM.exidx) refers to wstring.o(i._ZN6String6concatEc) for i._ZN6String6concatEc
    wstring.o(.ARM.exidx) refers to wstring.o(i._ZplRK15StringSumHelperc) for i._ZplRK15StringSumHelperc
    wstring.o(.ARM.exidx) refers to wstring.o(i._ZN6String6concatEh) for i._ZN6String6concatEh
    wstring.o(.ARM.exidx) refers to wstring.o(i._ZplRK15StringSumHelperh) for i._ZplRK15StringSumHelperh
    wstring.o(.ARM.exidx) refers to wstring.o(i._ZN6String6concatEi) for i._ZN6String6concatEi
    wstring.o(.ARM.exidx) refers to wstring.o(i._ZplRK15StringSumHelperi) for i._ZplRK15StringSumHelperi
    wstring.o(.ARM.exidx) refers to wstring.o(i._ZN6String6concatEj) for i._ZN6String6concatEj
    wstring.o(.ARM.exidx) refers to wstring.o(i._ZplRK15StringSumHelperj) for i._ZplRK15StringSumHelperj
    wstring.o(.ARM.exidx) refers to wstring.o(i._ZN6String6concatEl) for i._ZN6String6concatEl
    wstring.o(.ARM.exidx) refers to wstring.o(i._ZplRK15StringSumHelperl) for i._ZplRK15StringSumHelperl
    wstring.o(.ARM.exidx) refers to wstring.o(i._ZN6String6concatEm) for i._ZN6String6concatEm
    wstring.o(.ARM.exidx) refers to wstring.o(i._ZplRK15StringSumHelperm) for i._ZplRK15StringSumHelperm
    wstring.o(.ARM.exidx) refers to wstring.o(i._ZN6String6concatEf) for i._ZN6String6concatEf
    wstring.o(.ARM.exidx) refers to wstring.o(i._ZplRK15StringSumHelperf) for i._ZplRK15StringSumHelperf
    wstring.o(.ARM.exidx) refers to wstring.o(i._ZN6String6concatEd) for i._ZN6String6concatEd
    wstring.o(.ARM.exidx) refers to wstring.o(i._ZplRK15StringSumHelperd) for i._ZplRK15StringSumHelperd
    wstring.o(.ARM.exidx) refers to wstring.o(i._ZN6String6concatEPK19__FlashStringHelper) for i._ZN6String6concatEPK19__FlashStringHelper
    wstring.o(.ARM.exidx) refers to wstring.o(i._ZplRK15StringSumHelperPK19__FlashStringHelper) for i._ZplRK15StringSumHelperPK19__FlashStringHelper
    wstring.o(.ARM.exidx) refers to wstring.o(i._ZN6String4copyEPKcj) for i._ZN6String4copyEPKcj
    wstring.o(.ARM.exidx) refers to wstring.o(i._ZN6StringC1EPKc) for i._ZN6StringC1EPKc
    wstring.o(.ARM.exidx) refers to wstring.o(i._ZN6StringaSERKS_) for i._ZN6StringaSERKS_
    wstring.o(.ARM.exidx) refers to wstring.o(i._ZN6StringC1ERKS_) for i._ZN6StringC1ERKS_
    wstring.o(.ARM.exidx) refers to wstring.o(i._ZN6String4copyEPK19__FlashStringHelperj) for i._ZN6String4copyEPK19__FlashStringHelperj
    wstring.o(.ARM.exidx) refers to wstring.o(i._ZN6StringaSEPK19__FlashStringHelper) for i._ZN6StringaSEPK19__FlashStringHelper
    wstring.o(.ARM.exidx) refers to wstring.o(i._ZN6StringC1EPK19__FlashStringHelper) for i._ZN6StringC1EPK19__FlashStringHelper
    wstring.o(.ARM.exidx) refers to wstring.o(i._ZN6StringaSEPKc) for i._ZN6StringaSEPKc
    wstring.o(.ARM.exidx) refers to wstring.o(i._ZN6StringC1Ec) for i._ZN6StringC1Ec
    wstring.o(.ARM.exidx) refers to wstring.o(i._ZN6StringC1Ehh) for i._ZN6StringC1Ehh
    wstring.o(.ARM.exidx) refers to wstring.o(i._ZN6StringC1Eih) for i._ZN6StringC1Eih
    wstring.o(.ARM.exidx) refers to wstring.o(i._ZN6StringC1Ejh) for i._ZN6StringC1Ejh
    wstring.o(.ARM.exidx) refers to wstring.o(i._ZN6StringC1Elh) for i._ZN6StringC1Elh
    wstring.o(.ARM.exidx) refers to wstring.o(i._ZN6StringC1Emh) for i._ZN6StringC1Emh
    wstring.o(.ARM.exidx) refers to wstring.o(i._ZN6StringC1Efh) for i._ZN6StringC1Efh
    wstring.o(.ARM.exidx) refers to wstring.o(i._ZN6StringC1Edh) for i._ZN6StringC1Edh
    wstring.o(.ARM.exidx) refers to wstring.o(i._ZN6StringD1Ev) for i._ZN6StringD1Ev
    wstring.o(.ARM.exidx) refers to wstring.o(i._ZN6String6concatERKS_) for i._ZN6String6concatERKS_
    wstring.o(.ARM.exidx) refers to wstring.o(i._ZN6String6concatEPKc) for i._ZN6String6concatEPKc
    wstring.o(.ARM.exidx) refers to wstring.o(i._ZNK6String9compareToERKS_) for i._ZNK6String9compareToERKS_
    wstring.o(.ARM.exidx) refers to wstring.o(i._ZNK6String6equalsERKS_) for i._ZNK6String6equalsERKS_
    wstring.o(.ARM.exidx) refers to wstring.o(i._ZNK6String6equalsEPKc) for i._ZNK6String6equalsEPKc
    wstring.o(.ARM.exidx) refers to wstring.o(i._ZNK6StringltERKS_) for i._ZNK6StringltERKS_
    wstring.o(.ARM.exidx) refers to wstring.o(i._ZNK6StringgtERKS_) for i._ZNK6StringgtERKS_
    wstring.o(.ARM.exidx) refers to wstring.o(i._ZNK6StringleERKS_) for i._ZNK6StringleERKS_
    wstring.o(.ARM.exidx) refers to wstring.o(i._ZNK6StringgeERKS_) for i._ZNK6StringgeERKS_
    wstring.o(.ARM.exidx) refers to wstring.o(i._ZNK6String16equalsIgnoreCaseERKS_) for i._ZNK6String16equalsIgnoreCaseERKS_
    wstring.o(.ARM.exidx) refers to wstring.o(i._ZNK6String10startsWithERKS_j) for i._ZNK6String10startsWithERKS_j
    wstring.o(.ARM.exidx) refers to wstring.o(i._ZNK6String10startsWithERKS_) for i._ZNK6String10startsWithERKS_
    wstring.o(.ARM.exidx) refers to wstring.o(i._ZNK6String8endsWithERKS_) for i._ZNK6String8endsWithERKS_
    wstring.o(.ARM.exidx) refers to wstring.o(i._ZNK6StringixEj) for i._ZNK6StringixEj
    wstring.o(.ARM.exidx) refers to wstring.o(i._ZNK6String6charAtEj) for i._ZNK6String6charAtEj
    wstring.o(.ARM.exidx) refers to wstring.o(i._ZN6String9setCharAtEjc) for i._ZN6String9setCharAtEjc
    wstring.o(.ARM.exidx) refers to wstring.o(i._ZN6StringixEj) for i._ZN6StringixEj
    wstring.o(.ARM.exidx) refers to wstring.o(i._ZNK6String8getBytesEPhjj) for i._ZNK6String8getBytesEPhjj
    wstring.o(.ARM.exidx) refers to wstring.o(i._ZNK6String7indexOfEcj) for i._ZNK6String7indexOfEcj
    wstring.o(.ARM.exidx) refers to wstring.o(i._ZNK6String7indexOfEc) for i._ZNK6String7indexOfEc
    wstring.o(.ARM.exidx) refers to wstring.o(i._ZNK6String7indexOfERKS_j) for i._ZNK6String7indexOfERKS_j
    wstring.o(.ARM.exidx) refers to wstring.o(i._ZNK6String7indexOfERKS_) for i._ZNK6String7indexOfERKS_
    wstring.o(.ARM.exidx) refers to wstring.o(i._ZNK6String11lastIndexOfEcj) for i._ZNK6String11lastIndexOfEcj
    wstring.o(.ARM.exidx) refers to wstring.o(i._ZNK6String11lastIndexOfEc) for i._ZNK6String11lastIndexOfEc
    wstring.o(.ARM.exidx) refers to wstring.o(i._ZNK6String11lastIndexOfERKS_j) for i._ZNK6String11lastIndexOfERKS_j
    wstring.o(.ARM.exidx) refers to wstring.o(i._ZNK6String11lastIndexOfERKS_) for i._ZNK6String11lastIndexOfERKS_
    wstring.o(.ARM.exidx) refers to wstring.o(i._ZNK6String9substringEjj) for i._ZNK6String9substringEjj
    wstring.o(.ARM.exidx) refers to wstring.o(i._ZN6String7replaceEcc) for i._ZN6String7replaceEcc
    wstring.o(.ARM.exidx) refers to wstring.o(i._ZN6String7replaceERKS_S1_) for i._ZN6String7replaceERKS_S1_
    wstring.o(.ARM.exidx) refers to wstring.o(i._ZN6String6removeEjj) for i._ZN6String6removeEjj
    wstring.o(.ARM.exidx) refers to wstring.o(i._ZN6String6removeEj) for i._ZN6String6removeEj
    wstring.o(.ARM.exidx) refers to wstring.o(i._ZN6String11toLowerCaseEv) for i._ZN6String11toLowerCaseEv
    wstring.o(.ARM.exidx) refers to wstring.o(i._ZN6String11toUpperCaseEv) for i._ZN6String11toUpperCaseEv
    wstring.o(.ARM.exidx) refers to wstring.o(i._ZN6String4trimEv) for i._ZN6String4trimEv
    wstring.o(.ARM.exidx) refers to wstring.o(i._ZNK6String5toIntEv) for i._ZNK6String5toIntEv
    wstring.o(.ARM.exidx) refers to wstring.o(i._ZNK6String7toFloatEv) for i._ZNK6String7toFloatEv
    wstring.o(.ARM.exidx) refers to wstring.o(i._ZN6String7sprintfEPKcz) for i._ZN6String7sprintfEPKcz
    stm32f4xx_adc.o(i.ADC_DeInit) refers to stm32f4xx_rcc.o(i.RCC_APB2PeriphResetCmd) for RCC_APB2PeriphResetCmd
    stm32f4xx_can.o(i.CAN_DeInit) refers to stm32f4xx_rcc.o(i.RCC_APB1PeriphResetCmd) for RCC_APB1PeriphResetCmd
    stm32f4xx_can.o(i.CAN_GetITStatus) refers to stm32f4xx_can.o(i.CheckITStatus) for CheckITStatus
    stm32f4xx_cryp.o(i.CRYP_DeInit) refers to stm32f4xx_rcc.o(i.RCC_AHB2PeriphResetCmd) for RCC_AHB2PeriphResetCmd
    stm32f4xx_cryp_aes.o(i.CRYP_AES_CBC) refers to stm32f4xx_cryp.o(i.CRYP_KeyStructInit) for CRYP_KeyStructInit
    stm32f4xx_cryp_aes.o(i.CRYP_AES_CBC) refers to stm32f4xx_cryp.o(i.CRYP_KeyInit) for CRYP_KeyInit
    stm32f4xx_cryp_aes.o(i.CRYP_AES_CBC) refers to stm32f4xx_cryp.o(i.CRYP_Init) for CRYP_Init
    stm32f4xx_cryp_aes.o(i.CRYP_AES_CBC) refers to stm32f4xx_cryp.o(i.CRYP_IVInit) for CRYP_IVInit
    stm32f4xx_cryp_aes.o(i.CRYP_AES_CBC) refers to stm32f4xx_cryp.o(i.CRYP_FIFOFlush) for CRYP_FIFOFlush
    stm32f4xx_cryp_aes.o(i.CRYP_AES_CBC) refers to stm32f4xx_cryp.o(i.CRYP_Cmd) for CRYP_Cmd
    stm32f4xx_cryp_aes.o(i.CRYP_AES_CBC) refers to stm32f4xx_cryp.o(i.CRYP_GetCmdStatus) for CRYP_GetCmdStatus
    stm32f4xx_cryp_aes.o(i.CRYP_AES_CBC) refers to stm32f4xx_cryp.o(i.CRYP_GetFlagStatus) for CRYP_GetFlagStatus
    stm32f4xx_cryp_aes.o(i.CRYP_AES_CBC) refers to stm32f4xx_cryp.o(i.CRYP_DataIn) for CRYP_DataIn
    stm32f4xx_cryp_aes.o(i.CRYP_AES_CBC) refers to stm32f4xx_cryp.o(i.CRYP_DataOut) for CRYP_DataOut
    stm32f4xx_cryp_aes.o(i.CRYP_AES_CCM) refers to stm32f4xx_cryp.o(i.CRYP_KeyStructInit) for CRYP_KeyStructInit
    stm32f4xx_cryp_aes.o(i.CRYP_AES_CCM) refers to stm32f4xx_cryp.o(i.CRYP_FIFOFlush) for CRYP_FIFOFlush
    stm32f4xx_cryp_aes.o(i.CRYP_AES_CCM) refers to stm32f4xx_cryp.o(i.CRYP_KeyInit) for CRYP_KeyInit
    stm32f4xx_cryp_aes.o(i.CRYP_AES_CCM) refers to stm32f4xx_cryp.o(i.CRYP_IVInit) for CRYP_IVInit
    stm32f4xx_cryp_aes.o(i.CRYP_AES_CCM) refers to stm32f4xx_cryp.o(i.CRYP_Init) for CRYP_Init
    stm32f4xx_cryp_aes.o(i.CRYP_AES_CCM) refers to stm32f4xx_cryp.o(i.CRYP_PhaseConfig) for CRYP_PhaseConfig
    stm32f4xx_cryp_aes.o(i.CRYP_AES_CCM) refers to stm32f4xx_cryp.o(i.CRYP_DataIn) for CRYP_DataIn
    stm32f4xx_cryp_aes.o(i.CRYP_AES_CCM) refers to stm32f4xx_cryp.o(i.CRYP_Cmd) for CRYP_Cmd
    stm32f4xx_cryp_aes.o(i.CRYP_AES_CCM) refers to stm32f4xx_cryp.o(i.CRYP_GetCmdStatus) for CRYP_GetCmdStatus
    stm32f4xx_cryp_aes.o(i.CRYP_AES_CCM) refers to stm32f4xx_cryp.o(i.CRYP_GetFlagStatus) for CRYP_GetFlagStatus
    stm32f4xx_cryp_aes.o(i.CRYP_AES_CCM) refers to stm32f4xx_cryp.o(i.CRYP_DataOut) for CRYP_DataOut
    stm32f4xx_cryp_aes.o(i.CRYP_AES_CTR) refers to stm32f4xx_cryp.o(i.CRYP_KeyStructInit) for CRYP_KeyStructInit
    stm32f4xx_cryp_aes.o(i.CRYP_AES_CTR) refers to stm32f4xx_cryp.o(i.CRYP_KeyInit) for CRYP_KeyInit
    stm32f4xx_cryp_aes.o(i.CRYP_AES_CTR) refers to stm32f4xx_cryp.o(i.CRYP_Init) for CRYP_Init
    stm32f4xx_cryp_aes.o(i.CRYP_AES_CTR) refers to stm32f4xx_cryp.o(i.CRYP_IVInit) for CRYP_IVInit
    stm32f4xx_cryp_aes.o(i.CRYP_AES_CTR) refers to stm32f4xx_cryp.o(i.CRYP_FIFOFlush) for CRYP_FIFOFlush
    stm32f4xx_cryp_aes.o(i.CRYP_AES_CTR) refers to stm32f4xx_cryp.o(i.CRYP_Cmd) for CRYP_Cmd
    stm32f4xx_cryp_aes.o(i.CRYP_AES_CTR) refers to stm32f4xx_cryp.o(i.CRYP_GetCmdStatus) for CRYP_GetCmdStatus
    stm32f4xx_cryp_aes.o(i.CRYP_AES_CTR) refers to stm32f4xx_cryp.o(i.CRYP_DataIn) for CRYP_DataIn
    stm32f4xx_cryp_aes.o(i.CRYP_AES_CTR) refers to stm32f4xx_cryp.o(i.CRYP_GetFlagStatus) for CRYP_GetFlagStatus
    stm32f4xx_cryp_aes.o(i.CRYP_AES_CTR) refers to stm32f4xx_cryp.o(i.CRYP_DataOut) for CRYP_DataOut
    stm32f4xx_cryp_aes.o(i.CRYP_AES_ECB) refers to stm32f4xx_cryp.o(i.CRYP_KeyStructInit) for CRYP_KeyStructInit
    stm32f4xx_cryp_aes.o(i.CRYP_AES_ECB) refers to stm32f4xx_cryp.o(i.CRYP_KeyInit) for CRYP_KeyInit
    stm32f4xx_cryp_aes.o(i.CRYP_AES_ECB) refers to stm32f4xx_cryp.o(i.CRYP_Init) for CRYP_Init
    stm32f4xx_cryp_aes.o(i.CRYP_AES_ECB) refers to stm32f4xx_cryp.o(i.CRYP_FIFOFlush) for CRYP_FIFOFlush
    stm32f4xx_cryp_aes.o(i.CRYP_AES_ECB) refers to stm32f4xx_cryp.o(i.CRYP_Cmd) for CRYP_Cmd
    stm32f4xx_cryp_aes.o(i.CRYP_AES_ECB) refers to stm32f4xx_cryp.o(i.CRYP_GetCmdStatus) for CRYP_GetCmdStatus
    stm32f4xx_cryp_aes.o(i.CRYP_AES_ECB) refers to stm32f4xx_cryp.o(i.CRYP_GetFlagStatus) for CRYP_GetFlagStatus
    stm32f4xx_cryp_aes.o(i.CRYP_AES_ECB) refers to stm32f4xx_cryp.o(i.CRYP_DataIn) for CRYP_DataIn
    stm32f4xx_cryp_aes.o(i.CRYP_AES_ECB) refers to stm32f4xx_cryp.o(i.CRYP_DataOut) for CRYP_DataOut
    stm32f4xx_cryp_aes.o(i.CRYP_AES_GCM) refers to stm32f4xx_cryp.o(i.CRYP_KeyStructInit) for CRYP_KeyStructInit
    stm32f4xx_cryp_aes.o(i.CRYP_AES_GCM) refers to stm32f4xx_cryp.o(i.CRYP_FIFOFlush) for CRYP_FIFOFlush
    stm32f4xx_cryp_aes.o(i.CRYP_AES_GCM) refers to stm32f4xx_cryp.o(i.CRYP_KeyInit) for CRYP_KeyInit
    stm32f4xx_cryp_aes.o(i.CRYP_AES_GCM) refers to stm32f4xx_cryp.o(i.CRYP_IVInit) for CRYP_IVInit
    stm32f4xx_cryp_aes.o(i.CRYP_AES_GCM) refers to stm32f4xx_cryp.o(i.CRYP_Init) for CRYP_Init
    stm32f4xx_cryp_aes.o(i.CRYP_AES_GCM) refers to stm32f4xx_cryp.o(i.CRYP_PhaseConfig) for CRYP_PhaseConfig
    stm32f4xx_cryp_aes.o(i.CRYP_AES_GCM) refers to stm32f4xx_cryp.o(i.CRYP_Cmd) for CRYP_Cmd
    stm32f4xx_cryp_aes.o(i.CRYP_AES_GCM) refers to stm32f4xx_cryp.o(i.CRYP_GetCmdStatus) for CRYP_GetCmdStatus
    stm32f4xx_cryp_aes.o(i.CRYP_AES_GCM) refers to stm32f4xx_cryp.o(i.CRYP_GetFlagStatus) for CRYP_GetFlagStatus
    stm32f4xx_cryp_aes.o(i.CRYP_AES_GCM) refers to stm32f4xx_cryp.o(i.CRYP_DataIn) for CRYP_DataIn
    stm32f4xx_cryp_aes.o(i.CRYP_AES_GCM) refers to stm32f4xx_cryp.o(i.CRYP_DataOut) for CRYP_DataOut
    stm32f4xx_cryp_des.o(i.CRYP_DES_CBC) refers to stm32f4xx_cryp.o(i.CRYP_KeyStructInit) for CRYP_KeyStructInit
    stm32f4xx_cryp_des.o(i.CRYP_DES_CBC) refers to stm32f4xx_cryp.o(i.CRYP_Init) for CRYP_Init
    stm32f4xx_cryp_des.o(i.CRYP_DES_CBC) refers to stm32f4xx_cryp.o(i.CRYP_KeyInit) for CRYP_KeyInit
    stm32f4xx_cryp_des.o(i.CRYP_DES_CBC) refers to stm32f4xx_cryp.o(i.CRYP_IVInit) for CRYP_IVInit
    stm32f4xx_cryp_des.o(i.CRYP_DES_CBC) refers to stm32f4xx_cryp.o(i.CRYP_FIFOFlush) for CRYP_FIFOFlush
    stm32f4xx_cryp_des.o(i.CRYP_DES_CBC) refers to stm32f4xx_cryp.o(i.CRYP_Cmd) for CRYP_Cmd
    stm32f4xx_cryp_des.o(i.CRYP_DES_CBC) refers to stm32f4xx_cryp.o(i.CRYP_GetCmdStatus) for CRYP_GetCmdStatus
    stm32f4xx_cryp_des.o(i.CRYP_DES_CBC) refers to stm32f4xx_cryp.o(i.CRYP_DataIn) for CRYP_DataIn
    stm32f4xx_cryp_des.o(i.CRYP_DES_CBC) refers to stm32f4xx_cryp.o(i.CRYP_GetFlagStatus) for CRYP_GetFlagStatus
    stm32f4xx_cryp_des.o(i.CRYP_DES_CBC) refers to stm32f4xx_cryp.o(i.CRYP_DataOut) for CRYP_DataOut
    stm32f4xx_cryp_des.o(i.CRYP_DES_ECB) refers to stm32f4xx_cryp.o(i.CRYP_KeyStructInit) for CRYP_KeyStructInit
    stm32f4xx_cryp_des.o(i.CRYP_DES_ECB) refers to stm32f4xx_cryp.o(i.CRYP_Init) for CRYP_Init
    stm32f4xx_cryp_des.o(i.CRYP_DES_ECB) refers to stm32f4xx_cryp.o(i.CRYP_KeyInit) for CRYP_KeyInit
    stm32f4xx_cryp_des.o(i.CRYP_DES_ECB) refers to stm32f4xx_cryp.o(i.CRYP_FIFOFlush) for CRYP_FIFOFlush
    stm32f4xx_cryp_des.o(i.CRYP_DES_ECB) refers to stm32f4xx_cryp.o(i.CRYP_Cmd) for CRYP_Cmd
    stm32f4xx_cryp_des.o(i.CRYP_DES_ECB) refers to stm32f4xx_cryp.o(i.CRYP_GetCmdStatus) for CRYP_GetCmdStatus
    stm32f4xx_cryp_des.o(i.CRYP_DES_ECB) refers to stm32f4xx_cryp.o(i.CRYP_DataIn) for CRYP_DataIn
    stm32f4xx_cryp_des.o(i.CRYP_DES_ECB) refers to stm32f4xx_cryp.o(i.CRYP_GetFlagStatus) for CRYP_GetFlagStatus
    stm32f4xx_cryp_des.o(i.CRYP_DES_ECB) refers to stm32f4xx_cryp.o(i.CRYP_DataOut) for CRYP_DataOut
    stm32f4xx_cryp_tdes.o(i.CRYP_TDES_CBC) refers to stm32f4xx_cryp.o(i.CRYP_KeyStructInit) for CRYP_KeyStructInit
    stm32f4xx_cryp_tdes.o(i.CRYP_TDES_CBC) refers to stm32f4xx_cryp.o(i.CRYP_Init) for CRYP_Init
    stm32f4xx_cryp_tdes.o(i.CRYP_TDES_CBC) refers to stm32f4xx_cryp.o(i.CRYP_KeyInit) for CRYP_KeyInit
    stm32f4xx_cryp_tdes.o(i.CRYP_TDES_CBC) refers to stm32f4xx_cryp.o(i.CRYP_IVInit) for CRYP_IVInit
    stm32f4xx_cryp_tdes.o(i.CRYP_TDES_CBC) refers to stm32f4xx_cryp.o(i.CRYP_FIFOFlush) for CRYP_FIFOFlush
    stm32f4xx_cryp_tdes.o(i.CRYP_TDES_CBC) refers to stm32f4xx_cryp.o(i.CRYP_Cmd) for CRYP_Cmd
    stm32f4xx_cryp_tdes.o(i.CRYP_TDES_CBC) refers to stm32f4xx_cryp.o(i.CRYP_GetCmdStatus) for CRYP_GetCmdStatus
    stm32f4xx_cryp_tdes.o(i.CRYP_TDES_CBC) refers to stm32f4xx_cryp.o(i.CRYP_DataIn) for CRYP_DataIn
    stm32f4xx_cryp_tdes.o(i.CRYP_TDES_CBC) refers to stm32f4xx_cryp.o(i.CRYP_GetFlagStatus) for CRYP_GetFlagStatus
    stm32f4xx_cryp_tdes.o(i.CRYP_TDES_CBC) refers to stm32f4xx_cryp.o(i.CRYP_DataOut) for CRYP_DataOut
    stm32f4xx_cryp_tdes.o(i.CRYP_TDES_ECB) refers to stm32f4xx_cryp.o(i.CRYP_KeyStructInit) for CRYP_KeyStructInit
    stm32f4xx_cryp_tdes.o(i.CRYP_TDES_ECB) refers to stm32f4xx_cryp.o(i.CRYP_Init) for CRYP_Init
    stm32f4xx_cryp_tdes.o(i.CRYP_TDES_ECB) refers to stm32f4xx_cryp.o(i.CRYP_KeyInit) for CRYP_KeyInit
    stm32f4xx_cryp_tdes.o(i.CRYP_TDES_ECB) refers to stm32f4xx_cryp.o(i.CRYP_FIFOFlush) for CRYP_FIFOFlush
    stm32f4xx_cryp_tdes.o(i.CRYP_TDES_ECB) refers to stm32f4xx_cryp.o(i.CRYP_Cmd) for CRYP_Cmd
    stm32f4xx_cryp_tdes.o(i.CRYP_TDES_ECB) refers to stm32f4xx_cryp.o(i.CRYP_GetCmdStatus) for CRYP_GetCmdStatus
    stm32f4xx_cryp_tdes.o(i.CRYP_TDES_ECB) refers to stm32f4xx_cryp.o(i.CRYP_DataIn) for CRYP_DataIn
    stm32f4xx_cryp_tdes.o(i.CRYP_TDES_ECB) refers to stm32f4xx_cryp.o(i.CRYP_GetFlagStatus) for CRYP_GetFlagStatus
    stm32f4xx_cryp_tdes.o(i.CRYP_TDES_ECB) refers to stm32f4xx_cryp.o(i.CRYP_DataOut) for CRYP_DataOut
    stm32f4xx_dac.o(i.DAC_DeInit) refers to stm32f4xx_rcc.o(i.RCC_APB1PeriphResetCmd) for RCC_APB1PeriphResetCmd
    stm32f4xx_dma2d.o(i.DMA2D_DeInit) refers to stm32f4xx_rcc.o(i.RCC_AHB1PeriphResetCmd) for RCC_AHB1PeriphResetCmd
    stm32f4xx_flash.o(i.FLASH_EraseAllBank1Sectors) refers to stm32f4xx_flash.o(i.FLASH_WaitForLastOperation) for FLASH_WaitForLastOperation
    stm32f4xx_flash.o(i.FLASH_EraseAllBank2Sectors) refers to stm32f4xx_flash.o(i.FLASH_WaitForLastOperation) for FLASH_WaitForLastOperation
    stm32f4xx_flash.o(i.FLASH_EraseAllSectors) refers to stm32f4xx_flash.o(i.FLASH_WaitForLastOperation) for FLASH_WaitForLastOperation
    stm32f4xx_flash.o(i.FLASH_EraseSector) refers to stm32f4xx_flash.o(i.FLASH_WaitForLastOperation) for FLASH_WaitForLastOperation
    stm32f4xx_flash.o(i.FLASH_OB_Launch) refers to stm32f4xx_flash.o(i.FLASH_WaitForLastOperation) for FLASH_WaitForLastOperation
    stm32f4xx_flash.o(i.FLASH_OB_PCROP1Config) refers to stm32f4xx_flash.o(i.FLASH_WaitForLastOperation) for FLASH_WaitForLastOperation
    stm32f4xx_flash.o(i.FLASH_OB_PCROPConfig) refers to stm32f4xx_flash.o(i.FLASH_WaitForLastOperation) for FLASH_WaitForLastOperation
    stm32f4xx_flash.o(i.FLASH_OB_RDPConfig) refers to stm32f4xx_flash.o(i.FLASH_WaitForLastOperation) for FLASH_WaitForLastOperation
    stm32f4xx_flash.o(i.FLASH_OB_UserConfig) refers to stm32f4xx_flash.o(i.FLASH_WaitForLastOperation) for FLASH_WaitForLastOperation
    stm32f4xx_flash.o(i.FLASH_OB_WRP1Config) refers to stm32f4xx_flash.o(i.FLASH_WaitForLastOperation) for FLASH_WaitForLastOperation
    stm32f4xx_flash.o(i.FLASH_OB_WRPConfig) refers to stm32f4xx_flash.o(i.FLASH_WaitForLastOperation) for FLASH_WaitForLastOperation
    stm32f4xx_flash.o(i.FLASH_ProgramByte) refers to stm32f4xx_flash.o(i.FLASH_WaitForLastOperation) for FLASH_WaitForLastOperation
    stm32f4xx_flash.o(i.FLASH_ProgramDoubleWord) refers to stm32f4xx_flash.o(i.FLASH_WaitForLastOperation) for FLASH_WaitForLastOperation
    stm32f4xx_flash.o(i.FLASH_ProgramHalfWord) refers to stm32f4xx_flash.o(i.FLASH_WaitForLastOperation) for FLASH_WaitForLastOperation
    stm32f4xx_flash.o(i.FLASH_ProgramWord) refers to stm32f4xx_flash.o(i.FLASH_WaitForLastOperation) for FLASH_WaitForLastOperation
    stm32f4xx_flash.o(i.FLASH_WaitForLastOperation) refers to stm32f4xx_flash.o(i.FLASH_GetStatus) for FLASH_GetStatus
    stm32f4xx_fsmc.o(i.FSMC_NORSRAMStructInit) refers to stm32f4xx_fsmc.o(.constdata) for .constdata
    stm32f4xx_gpio.o(i.GPIO_DeInit) refers to stm32f4xx_rcc.o(i.RCC_AHB1PeriphResetCmd) for RCC_AHB1PeriphResetCmd
    stm32f4xx_hash.o(i.HASH_DeInit) refers to stm32f4xx_rcc.o(i.RCC_AHB2PeriphResetCmd) for RCC_AHB2PeriphResetCmd
    stm32f4xx_hash_md5.o(i.HASH_MD5) refers to stm32f4xx_hash.o(i.HASH_DeInit) for HASH_DeInit
    stm32f4xx_hash_md5.o(i.HASH_MD5) refers to stm32f4xx_hash.o(i.HASH_Init) for HASH_Init
    stm32f4xx_hash_md5.o(i.HASH_MD5) refers to stm32f4xx_hash.o(i.HASH_SetLastWordValidBitsNbr) for HASH_SetLastWordValidBitsNbr
    stm32f4xx_hash_md5.o(i.HASH_MD5) refers to stm32f4xx_hash.o(i.HASH_DataIn) for HASH_DataIn
    stm32f4xx_hash_md5.o(i.HASH_MD5) refers to stm32f4xx_hash.o(i.HASH_StartDigest) for HASH_StartDigest
    stm32f4xx_hash_md5.o(i.HASH_MD5) refers to stm32f4xx_hash.o(i.HASH_GetFlagStatus) for HASH_GetFlagStatus
    stm32f4xx_hash_md5.o(i.HASH_MD5) refers to stm32f4xx_hash.o(i.HASH_GetDigest) for HASH_GetDigest
    stm32f4xx_hash_md5.o(i.HMAC_MD5) refers to stm32f4xx_hash.o(i.HASH_DeInit) for HASH_DeInit
    stm32f4xx_hash_md5.o(i.HMAC_MD5) refers to stm32f4xx_hash.o(i.HASH_Init) for HASH_Init
    stm32f4xx_hash_md5.o(i.HMAC_MD5) refers to stm32f4xx_hash.o(i.HASH_SetLastWordValidBitsNbr) for HASH_SetLastWordValidBitsNbr
    stm32f4xx_hash_md5.o(i.HMAC_MD5) refers to stm32f4xx_hash.o(i.HASH_DataIn) for HASH_DataIn
    stm32f4xx_hash_md5.o(i.HMAC_MD5) refers to stm32f4xx_hash.o(i.HASH_StartDigest) for HASH_StartDigest
    stm32f4xx_hash_md5.o(i.HMAC_MD5) refers to stm32f4xx_hash.o(i.HASH_GetFlagStatus) for HASH_GetFlagStatus
    stm32f4xx_hash_md5.o(i.HMAC_MD5) refers to stm32f4xx_hash.o(i.HASH_GetDigest) for HASH_GetDigest
    stm32f4xx_hash_sha1.o(i.HASH_SHA1) refers to stm32f4xx_hash.o(i.HASH_DeInit) for HASH_DeInit
    stm32f4xx_hash_sha1.o(i.HASH_SHA1) refers to stm32f4xx_hash.o(i.HASH_Init) for HASH_Init
    stm32f4xx_hash_sha1.o(i.HASH_SHA1) refers to stm32f4xx_hash.o(i.HASH_SetLastWordValidBitsNbr) for HASH_SetLastWordValidBitsNbr
    stm32f4xx_hash_sha1.o(i.HASH_SHA1) refers to stm32f4xx_hash.o(i.HASH_DataIn) for HASH_DataIn
    stm32f4xx_hash_sha1.o(i.HASH_SHA1) refers to stm32f4xx_hash.o(i.HASH_StartDigest) for HASH_StartDigest
    stm32f4xx_hash_sha1.o(i.HASH_SHA1) refers to stm32f4xx_hash.o(i.HASH_GetFlagStatus) for HASH_GetFlagStatus
    stm32f4xx_hash_sha1.o(i.HASH_SHA1) refers to stm32f4xx_hash.o(i.HASH_GetDigest) for HASH_GetDigest
    stm32f4xx_hash_sha1.o(i.HMAC_SHA1) refers to stm32f4xx_hash.o(i.HASH_DeInit) for HASH_DeInit
    stm32f4xx_hash_sha1.o(i.HMAC_SHA1) refers to stm32f4xx_hash.o(i.HASH_Init) for HASH_Init
    stm32f4xx_hash_sha1.o(i.HMAC_SHA1) refers to stm32f4xx_hash.o(i.HASH_SetLastWordValidBitsNbr) for HASH_SetLastWordValidBitsNbr
    stm32f4xx_hash_sha1.o(i.HMAC_SHA1) refers to stm32f4xx_hash.o(i.HASH_DataIn) for HASH_DataIn
    stm32f4xx_hash_sha1.o(i.HMAC_SHA1) refers to stm32f4xx_hash.o(i.HASH_StartDigest) for HASH_StartDigest
    stm32f4xx_hash_sha1.o(i.HMAC_SHA1) refers to stm32f4xx_hash.o(i.HASH_GetFlagStatus) for HASH_GetFlagStatus
    stm32f4xx_hash_sha1.o(i.HMAC_SHA1) refers to stm32f4xx_hash.o(i.HASH_GetDigest) for HASH_GetDigest
    stm32f4xx_i2c.o(i.I2C_DeInit) refers to stm32f4xx_rcc.o(i.RCC_APB1PeriphResetCmd) for RCC_APB1PeriphResetCmd
    stm32f4xx_i2c.o(i.I2C_Init) refers to stm32f4xx_rcc.o(i.RCC_GetClocksFreq) for RCC_GetClocksFreq
    stm32f4xx_ltdc.o(i.LTDC_DeInit) refers to stm32f4xx_rcc.o(i.RCC_APB2PeriphResetCmd) for RCC_APB2PeriphResetCmd
    stm32f4xx_pwr.o(i.PWR_DeInit) refers to stm32f4xx_rcc.o(i.RCC_APB1PeriphResetCmd) for RCC_APB1PeriphResetCmd
    stm32f4xx_rcc.o(i.RCC_GetClocksFreq) refers to stm32f4xx_rcc.o(.data) for .data
    stm32f4xx_rcc.o(i.RCC_WaitForHSEStartUp) refers to stm32f4xx_rcc.o(i.RCC_GetFlagStatus) for RCC_GetFlagStatus
    stm32f4xx_rng.o(i.RNG_DeInit) refers to stm32f4xx_rcc.o(i.RCC_AHB2PeriphResetCmd) for RCC_AHB2PeriphResetCmd
    stm32f4xx_rtc.o(i.RTC_CoarseCalibCmd) refers to stm32f4xx_rtc.o(i.RTC_EnterInitMode) for RTC_EnterInitMode
    stm32f4xx_rtc.o(i.RTC_CoarseCalibCmd) refers to stm32f4xx_rtc.o(i.RTC_ExitInitMode) for RTC_ExitInitMode
    stm32f4xx_rtc.o(i.RTC_CoarseCalibConfig) refers to stm32f4xx_rtc.o(i.RTC_EnterInitMode) for RTC_EnterInitMode
    stm32f4xx_rtc.o(i.RTC_CoarseCalibConfig) refers to stm32f4xx_rtc.o(i.RTC_ExitInitMode) for RTC_ExitInitMode
    stm32f4xx_rtc.o(i.RTC_DeInit) refers to stm32f4xx_rtc.o(i.RTC_EnterInitMode) for RTC_EnterInitMode
    stm32f4xx_rtc.o(i.RTC_DeInit) refers to stm32f4xx_rtc.o(i.RTC_WaitForSynchro) for RTC_WaitForSynchro
    stm32f4xx_rtc.o(i.RTC_GetAlarm) refers to stm32f4xx_rtc.o(i.RTC_Bcd2ToByte) for RTC_Bcd2ToByte
    stm32f4xx_rtc.o(i.RTC_GetDate) refers to stm32f4xx_rtc.o(i.RTC_Bcd2ToByte) for RTC_Bcd2ToByte
    stm32f4xx_rtc.o(i.RTC_GetTime) refers to stm32f4xx_rtc.o(i.RTC_Bcd2ToByte) for RTC_Bcd2ToByte
    stm32f4xx_rtc.o(i.RTC_GetTimeStamp) refers to stm32f4xx_rtc.o(i.RTC_Bcd2ToByte) for RTC_Bcd2ToByte
    stm32f4xx_rtc.o(i.RTC_Init) refers to stm32f4xx_rtc.o(i.RTC_EnterInitMode) for RTC_EnterInitMode
    stm32f4xx_rtc.o(i.RTC_Init) refers to stm32f4xx_rtc.o(i.RTC_ExitInitMode) for RTC_ExitInitMode
    stm32f4xx_rtc.o(i.RTC_RefClockCmd) refers to stm32f4xx_rtc.o(i.RTC_EnterInitMode) for RTC_EnterInitMode
    stm32f4xx_rtc.o(i.RTC_RefClockCmd) refers to stm32f4xx_rtc.o(i.RTC_ExitInitMode) for RTC_ExitInitMode
    stm32f4xx_rtc.o(i.RTC_SetAlarm) refers to stm32f4xx_rtc.o(i.RTC_Bcd2ToByte) for RTC_Bcd2ToByte
    stm32f4xx_rtc.o(i.RTC_SetAlarm) refers to stm32f4xx_rtc.o(i.RTC_ByteToBcd2) for RTC_ByteToBcd2
    stm32f4xx_rtc.o(i.RTC_SetDate) refers to stm32f4xx_rtc.o(i.RTC_Bcd2ToByte) for RTC_Bcd2ToByte
    stm32f4xx_rtc.o(i.RTC_SetDate) refers to stm32f4xx_rtc.o(i.RTC_EnterInitMode) for RTC_EnterInitMode
    stm32f4xx_rtc.o(i.RTC_SetDate) refers to stm32f4xx_rtc.o(i.RTC_ExitInitMode) for RTC_ExitInitMode
    stm32f4xx_rtc.o(i.RTC_SetDate) refers to stm32f4xx_rtc.o(i.RTC_WaitForSynchro) for RTC_WaitForSynchro
    stm32f4xx_rtc.o(i.RTC_SetDate) refers to stm32f4xx_rtc.o(i.RTC_ByteToBcd2) for RTC_ByteToBcd2
    stm32f4xx_rtc.o(i.RTC_SetTime) refers to stm32f4xx_rtc.o(i.RTC_Bcd2ToByte) for RTC_Bcd2ToByte
    stm32f4xx_rtc.o(i.RTC_SetTime) refers to stm32f4xx_rtc.o(i.RTC_ByteToBcd2) for RTC_ByteToBcd2
    stm32f4xx_rtc.o(i.RTC_SetTime) refers to stm32f4xx_rtc.o(i.RTC_EnterInitMode) for RTC_EnterInitMode
    stm32f4xx_rtc.o(i.RTC_SetTime) refers to stm32f4xx_rtc.o(i.RTC_ExitInitMode) for RTC_ExitInitMode
    stm32f4xx_rtc.o(i.RTC_SetTime) refers to stm32f4xx_rtc.o(i.RTC_WaitForSynchro) for RTC_WaitForSynchro
    stm32f4xx_rtc.o(i.RTC_SynchroShiftConfig) refers to stm32f4xx_rtc.o(i.RTC_WaitForSynchro) for RTC_WaitForSynchro
    stm32f4xx_sai.o(i.SAI_DeInit) refers to stm32f4xx_rcc.o(i.RCC_APB2PeriphResetCmd) for RCC_APB2PeriphResetCmd
    stm32f4xx_sdio.o(i.SDIO_DeInit) refers to stm32f4xx_rcc.o(i.RCC_APB2PeriphResetCmd) for RCC_APB2PeriphResetCmd
    stm32f4xx_spi.o(i.SPI_I2S_DeInit) refers to stm32f4xx_rcc.o(i.RCC_APB1PeriphResetCmd) for RCC_APB1PeriphResetCmd
    stm32f4xx_spi.o(i.SPI_I2S_DeInit) refers to stm32f4xx_rcc.o(i.RCC_APB2PeriphResetCmd) for RCC_APB2PeriphResetCmd
    stm32f4xx_syscfg.o(i.SYSCFG_DeInit) refers to stm32f4xx_rcc.o(i.RCC_APB2PeriphResetCmd) for RCC_APB2PeriphResetCmd
    stm32f4xx_tim.o(i.TIM_DeInit) refers to stm32f4xx_rcc.o(i.RCC_APB2PeriphResetCmd) for RCC_APB2PeriphResetCmd
    stm32f4xx_tim.o(i.TIM_DeInit) refers to stm32f4xx_rcc.o(i.RCC_APB1PeriphResetCmd) for RCC_APB1PeriphResetCmd
    stm32f4xx_tim.o(i.TIM_ETRClockMode1Config) refers to stm32f4xx_tim.o(i.TIM_ETRConfig) for TIM_ETRConfig
    stm32f4xx_tim.o(i.TIM_ETRClockMode2Config) refers to stm32f4xx_tim.o(i.TIM_ETRConfig) for TIM_ETRConfig
    stm32f4xx_tim.o(i.TIM_ICInit) refers to stm32f4xx_tim.o(i.TIM_SetIC4Prescaler) for TIM_SetIC4Prescaler
    stm32f4xx_tim.o(i.TIM_ICInit) refers to stm32f4xx_tim.o(i.TI1_Config) for TI1_Config
    stm32f4xx_tim.o(i.TIM_ICInit) refers to stm32f4xx_tim.o(i.TIM_SetIC1Prescaler) for TIM_SetIC1Prescaler
    stm32f4xx_tim.o(i.TIM_ICInit) refers to stm32f4xx_tim.o(i.TI2_Config) for TI2_Config
    stm32f4xx_tim.o(i.TIM_ICInit) refers to stm32f4xx_tim.o(i.TIM_SetIC2Prescaler) for TIM_SetIC2Prescaler
    stm32f4xx_tim.o(i.TIM_ICInit) refers to stm32f4xx_tim.o(i.TIM_SetIC3Prescaler) for TIM_SetIC3Prescaler
    stm32f4xx_tim.o(i.TIM_ITRxExternalClockConfig) refers to stm32f4xx_tim.o(i.TIM_SelectInputTrigger) for TIM_SelectInputTrigger
    stm32f4xx_tim.o(i.TIM_PWMIConfig) refers to stm32f4xx_tim.o(i.TI2_Config) for TI2_Config
    stm32f4xx_tim.o(i.TIM_PWMIConfig) refers to stm32f4xx_tim.o(i.TIM_SetIC2Prescaler) for TIM_SetIC2Prescaler
    stm32f4xx_tim.o(i.TIM_PWMIConfig) refers to stm32f4xx_tim.o(i.TI1_Config) for TI1_Config
    stm32f4xx_tim.o(i.TIM_PWMIConfig) refers to stm32f4xx_tim.o(i.TIM_SetIC1Prescaler) for TIM_SetIC1Prescaler
    stm32f4xx_tim.o(i.TIM_TIxExternalClockConfig) refers to stm32f4xx_tim.o(i.TI1_Config) for TI1_Config
    stm32f4xx_tim.o(i.TIM_TIxExternalClockConfig) refers to stm32f4xx_tim.o(i.TIM_SelectInputTrigger) for TIM_SelectInputTrigger
    stm32f4xx_tim.o(i.TIM_TIxExternalClockConfig) refers to stm32f4xx_tim.o(i.TI2_Config) for TI2_Config
    stm32f4xx_usart.o(i.USART_DeInit) refers to stm32f4xx_rcc.o(i.RCC_APB2PeriphResetCmd) for RCC_APB2PeriphResetCmd
    stm32f4xx_usart.o(i.USART_DeInit) refers to stm32f4xx_rcc.o(i.RCC_APB1PeriphResetCmd) for RCC_APB1PeriphResetCmd
    stm32f4xx_usart.o(i.USART_Init) refers to stm32f4xx_rcc.o(i.RCC_GetClocksFreq) for RCC_GetClocksFreq
    stm32f4xx_wwdg.o(i.WWDG_DeInit) refers to stm32f4xx_rcc.o(i.RCC_APB1PeriphResetCmd) for RCC_APB1PeriphResetCmd
    startup_stm32f40_41xxx.o(STACK) refers (Special) to heapauxi.o(.text) for __use_two_region_memory
    startup_stm32f40_41xxx.o(HEAP) refers (Special) to heapauxi.o(.text) for __use_two_region_memory
    startup_stm32f40_41xxx.o(RESET) refers (Special) to heapauxi.o(.text) for __use_two_region_memory
    startup_stm32f40_41xxx.o(RESET) refers to startup_stm32f40_41xxx.o(STACK) for __initial_sp
    startup_stm32f40_41xxx.o(RESET) refers to startup_stm32f40_41xxx.o(.text) for Reset_Handler
    startup_stm32f40_41xxx.o(RESET) refers to delay.o(i.SysTick_Handler) for SysTick_Handler
    startup_stm32f40_41xxx.o(RESET) refers to exti.o(i.EXTI0_IRQHandler) for EXTI0_IRQHandler
    startup_stm32f40_41xxx.o(RESET) refers to exti.o(i.EXTI1_IRQHandler) for EXTI1_IRQHandler
    startup_stm32f40_41xxx.o(RESET) refers to exti.o(i.EXTI2_IRQHandler) for EXTI2_IRQHandler
    startup_stm32f40_41xxx.o(RESET) refers to exti.o(i.EXTI3_IRQHandler) for EXTI3_IRQHandler
    startup_stm32f40_41xxx.o(RESET) refers to exti.o(i.EXTI4_IRQHandler) for EXTI4_IRQHandler
    startup_stm32f40_41xxx.o(RESET) refers to exti.o(i.EXTI9_5_IRQHandler) for EXTI9_5_IRQHandler
    startup_stm32f40_41xxx.o(RESET) refers to timer.o(i.TIM1_UP_TIM10_IRQHandler) for TIM1_UP_TIM10_IRQHandler
    startup_stm32f40_41xxx.o(RESET) refers to timer.o(i.TIM2_IRQHandler) for TIM2_IRQHandler
    startup_stm32f40_41xxx.o(RESET) refers to timer.o(i.TIM3_IRQHandler) for TIM3_IRQHandler
    startup_stm32f40_41xxx.o(RESET) refers to timer.o(i.TIM4_IRQHandler) for TIM4_IRQHandler
    startup_stm32f40_41xxx.o(RESET) refers to hardwareserial.o(i.USART1_IRQHandler) for USART1_IRQHandler
    startup_stm32f40_41xxx.o(RESET) refers to hardwareserial.o(i.USART2_IRQHandler) for USART2_IRQHandler
    startup_stm32f40_41xxx.o(RESET) refers to hardwareserial.o(i.USART3_IRQHandler) for USART3_IRQHandler
    startup_stm32f40_41xxx.o(RESET) refers to exti.o(i.EXTI15_10_IRQHandler) for EXTI15_10_IRQHandler
    startup_stm32f40_41xxx.o(RESET) refers to timer.o(i.TIM8_UP_TIM13_IRQHandler) for TIM8_UP_TIM13_IRQHandler
    startup_stm32f40_41xxx.o(RESET) refers to sdfatfs.o(i.SDIO_IRQHandler) for SDIO_IRQHandler
    startup_stm32f40_41xxx.o(RESET) refers to timer.o(i.TIM5_IRQHandler) for TIM5_IRQHandler
    startup_stm32f40_41xxx.o(RESET) refers to timer.o(i.TIM6_DAC_IRQHandler) for TIM6_DAC_IRQHandler
    startup_stm32f40_41xxx.o(RESET) refers to timer.o(i.TIM7_IRQHandler) for TIM7_IRQHandler
    startup_stm32f40_41xxx.o(.text) refers (Special) to heapauxi.o(.text) for __use_two_region_memory
    startup_stm32f40_41xxx.o(.text) refers to system_stm32f4xx.o(i.SystemInit) for SystemInit
    startup_stm32f40_41xxx.o(.text) refers to __main.o(!!!main) for __main
    startup_stm32f40_41xxx.o(.text) refers to startup_stm32f40_41xxx.o(HEAP) for Heap_Mem
    startup_stm32f40_41xxx.o(.text) refers to startup_stm32f40_41xxx.o(STACK) for Stack_Mem
    system_stm32f4xx.o(i.SystemCoreClockUpdate) refers to system_stm32f4xx.o(.data) for .data
    system_stm32f4xx.o(i.SystemInit) refers to system_stm32f4xx.o(i.SetSysClock) for SetSysClock
    adc.o(i.ADC_DMA_Config) refers to stm32f4xx_dma.o(i.DMA_DeInit) for DMA_DeInit
    adc.o(i.ADC_DMA_Config) refers to stm32f4xx_rcc.o(i.RCC_AHB1PeriphClockCmd) for RCC_AHB1PeriphClockCmd
    adc.o(i.ADC_DMA_Config) refers to stm32f4xx_dma.o(i.DMA_GetCmdStatus) for DMA_GetCmdStatus
    adc.o(i.ADC_DMA_Config) refers to stm32f4xx_dma.o(i.DMA_Init) for DMA_Init
    adc.o(i.ADC_DMA_Config) refers to stm32f4xx_dma.o(i.DMA_Cmd) for DMA_Cmd
    adc.o(i.ADC_DMA_Config) refers to adc.o(.bss) for .bss
    adc.o(i.ADC_DMA_Config) refers to adc.o(.data) for .data
    adc.o(i.ADC_DMA_GetValue) refers to adc.o(i.ADC_DMA_SearchChannel) for ADC_DMA_SearchChannel
    adc.o(i.ADC_DMA_GetValue) refers to adc.o(.bss) for .bss
    adc.o(i.ADC_DMA_Init) refers to stm32f4xx_rcc.o(i.RCC_APB2PeriphClockCmd) for RCC_APB2PeriphClockCmd
    adc.o(i.ADC_DMA_Init) refers to adc.o(i.ADC_DMA_Config) for ADC_DMA_Config
    adc.o(i.ADC_DMA_Init) refers to stm32f4xx_adc.o(i.ADC_DeInit) for ADC_DeInit
    adc.o(i.ADC_DMA_Init) refers to stm32f4xx_adc.o(i.ADC_CommonInit) for ADC_CommonInit
    adc.o(i.ADC_DMA_Init) refers to stm32f4xx_adc.o(i.ADC_Init) for ADC_Init
    adc.o(i.ADC_DMA_Init) refers to stm32f4xx_adc.o(i.ADC_Cmd) for ADC_Cmd
    adc.o(i.ADC_DMA_Init) refers to stm32f4xx_adc.o(i.ADC_RegularChannelConfig) for ADC_RegularChannelConfig
    adc.o(i.ADC_DMA_Init) refers to stm32f4xx_adc.o(i.ADC_TempSensorVrefintCmd) for ADC_TempSensorVrefintCmd
    adc.o(i.ADC_DMA_Init) refers to stm32f4xx_adc.o(i.ADC_DMARequestAfterLastTransferCmd) for ADC_DMARequestAfterLastTransferCmd
    adc.o(i.ADC_DMA_Init) refers to stm32f4xx_adc.o(i.ADC_DMACmd) for ADC_DMACmd
    adc.o(i.ADC_DMA_Init) refers to stm32f4xx_adc.o(i.ADC_SoftwareStartConv) for ADC_SoftwareStartConv
    adc.o(i.ADC_DMA_Init) refers to adc.o(.data) for .data
    adc.o(i.ADC_DMA_Init) refers to adc.o(.bss) for .bss
    adc.o(i.ADC_DMA_Register) refers to adc.o(i.ADC_DMA_SearchChannel) for ADC_DMA_SearchChannel
    adc.o(i.ADC_DMA_Register) refers to adc.o(.data) for .data
    adc.o(i.ADC_DMA_Register) refers to adc.o(.bss) for .bss
    adc.o(i.ADC_DMA_SearchChannel) refers to adc.o(.bss) for .bss
    adc.o(i.ADC_DMA_SearchChannel) refers to adc.o(.data) for .data
    adc.o(i.ADCx_GetValue) refers to stm32f4xx_adc.o(i.ADC_RegularChannelConfig) for ADC_RegularChannelConfig
    adc.o(i.ADCx_GetValue) refers to stm32f4xx_adc.o(i.ADC_SoftwareStartConv) for ADC_SoftwareStartConv
    adc.o(i.ADCx_GetValue) refers to stm32f4xx_adc.o(i.ADC_GetFlagStatus) for ADC_GetFlagStatus
    adc.o(i.ADCx_GetValue) refers to stm32f4xx_adc.o(i.ADC_GetConversionValue) for ADC_GetConversionValue
    adc.o(i.ADCx_Init) refers to stm32f4xx_rcc.o(i.RCC_APB2PeriphResetCmd) for RCC_APB2PeriphResetCmd
    adc.o(i.ADCx_Init) refers to stm32f4xx_rcc.o(i.RCC_APB2PeriphClockCmd) for RCC_APB2PeriphClockCmd
    adc.o(i.ADCx_Init) refers to stm32f4xx_adc.o(i.ADC_CommonInit) for ADC_CommonInit
    adc.o(i.ADCx_Init) refers to stm32f4xx_adc.o(i.ADC_Init) for ADC_Init
    adc.o(i.ADCx_Init) refers to stm32f4xx_adc.o(i.ADC_Cmd) for ADC_Cmd
    delay.o(i.Delay_Init) refers to system_stm32f4xx.o(i.SystemCoreClockUpdate) for SystemCoreClockUpdate
    delay.o(i.Delay_Init) refers to delay.o(i.NVIC_SetPriority) for NVIC_SetPriority
    delay.o(i.Delay_Init) refers to system_stm32f4xx.o(.data) for SystemCoreClock
    delay.o(i.SysTick_Handler) refers to delay.o(.data) for .data
    delay.o(i.delay_ms) refers to delay.o(.data) for .data
    delay.o(i.delay_us) refers to system_stm32f4xx.o(.data) for SystemCoreClock
    delay.o(i.micros) refers to system_stm32f4xx.o(.data) for SystemCoreClock
    delay.o(i.micros) refers to delay.o(.data) for .data
    delay.o(i.millis) refers to delay.o(.data) for .data
    exti.o(i.EXTI0_IRQHandler) refers to stm32f4xx_exti.o(i.EXTI_GetITStatus) for EXTI_GetITStatus
    exti.o(i.EXTI0_IRQHandler) refers to stm32f4xx_exti.o(i.EXTI_ClearITPendingBit) for EXTI_ClearITPendingBit
    exti.o(i.EXTI0_IRQHandler) refers to exti.o(.bss) for .bss
    exti.o(i.EXTI15_10_IRQHandler) refers to stm32f4xx_exti.o(i.EXTI_GetITStatus) for EXTI_GetITStatus
    exti.o(i.EXTI15_10_IRQHandler) refers to stm32f4xx_exti.o(i.EXTI_ClearITPendingBit) for EXTI_ClearITPendingBit
    exti.o(i.EXTI15_10_IRQHandler) refers to exti.o(.bss) for .bss
    exti.o(i.EXTI1_IRQHandler) refers to stm32f4xx_exti.o(i.EXTI_GetITStatus) for EXTI_GetITStatus
    exti.o(i.EXTI1_IRQHandler) refers to stm32f4xx_exti.o(i.EXTI_ClearITPendingBit) for EXTI_ClearITPendingBit
    exti.o(i.EXTI1_IRQHandler) refers to exti.o(.bss) for .bss
    exti.o(i.EXTI2_IRQHandler) refers to stm32f4xx_exti.o(i.EXTI_GetITStatus) for EXTI_GetITStatus
    exti.o(i.EXTI2_IRQHandler) refers to stm32f4xx_exti.o(i.EXTI_ClearITPendingBit) for EXTI_ClearITPendingBit
    exti.o(i.EXTI2_IRQHandler) refers to exti.o(.bss) for .bss
    exti.o(i.EXTI3_IRQHandler) refers to stm32f4xx_exti.o(i.EXTI_GetITStatus) for EXTI_GetITStatus
    exti.o(i.EXTI3_IRQHandler) refers to stm32f4xx_exti.o(i.EXTI_ClearITPendingBit) for EXTI_ClearITPendingBit
    exti.o(i.EXTI3_IRQHandler) refers to exti.o(.bss) for .bss
    exti.o(i.EXTI4_IRQHandler) refers to stm32f4xx_exti.o(i.EXTI_GetITStatus) for EXTI_GetITStatus
    exti.o(i.EXTI4_IRQHandler) refers to stm32f4xx_exti.o(i.EXTI_ClearITPendingBit) for EXTI_ClearITPendingBit
    exti.o(i.EXTI4_IRQHandler) refers to exti.o(.bss) for .bss
    exti.o(i.EXTI9_5_IRQHandler) refers to stm32f4xx_exti.o(i.EXTI_GetITStatus) for EXTI_GetITStatus
    exti.o(i.EXTI9_5_IRQHandler) refers to stm32f4xx_exti.o(i.EXTI_ClearITPendingBit) for EXTI_ClearITPendingBit
    exti.o(i.EXTI9_5_IRQHandler) refers to exti.o(.bss) for .bss
    exti.o(i.EXTI_GetIRQn) refers to gpio.o(i.GPIO_GetPinNum) for GPIO_GetPinNum
    exti.o(i.EXTIx_Init) refers to gpio.o(i.GPIO_GetPinNum) for GPIO_GetPinNum
    exti.o(i.EXTIx_Init) refers to stm32f4xx_rcc.o(i.RCC_APB2PeriphClockCmd) for RCC_APB2PeriphClockCmd
    exti.o(i.EXTIx_Init) refers to gpio.o(i.GPIO_GetPortNum) for GPIO_GetPortNum
    exti.o(i.EXTIx_Init) refers to stm32f4xx_syscfg.o(i.SYSCFG_EXTILineConfig) for SYSCFG_EXTILineConfig
    exti.o(i.EXTIx_Init) refers to stm32f4xx_exti.o(i.EXTI_Init) for EXTI_Init
    exti.o(i.EXTIx_Init) refers to exti.o(i.EXTI_GetIRQn) for EXTI_GetIRQn
    exti.o(i.EXTIx_Init) refers to misc.o(i.NVIC_Init) for NVIC_Init
    exti.o(i.EXTIx_Init) refers to exti.o(.bss) for .bss
    exti.o(i.attachInterrupt) refers to exti.o(i.EXTIx_Init) for EXTIx_Init
    exti.o(i.detachInterrupt) refers to exti.o(i.EXTI_GetIRQn) for EXTI_GetIRQn
    flash.o(i.Flash_WriteHalfWord) refers to flash.o(i.Flash_ReadHalfWord) for Flash_ReadHalfWord
    flash.o(i.Flash_WriteHalfWord) refers to flash.o(i.Flash_WriteHalfWord_Buf) for Flash_WriteHalfWord_Buf
    flash.o(i.Flash_WriteHalfWord) refers to flash.o(.data) for .data
    flash.o(i.Flash_WriteHalfWord) refers to flash.o(.bss) for .bss
    flash.o(i.Flash_WriteHalfWord_Buf) refers to stm32f4xx_flash.o(i.FLASH_Unlock) for FLASH_Unlock
    flash.o(i.Flash_WriteHalfWord_Buf) refers to stm32f4xx_flash.o(i.FLASH_DataCacheCmd) for FLASH_DataCacheCmd
    flash.o(i.Flash_WriteHalfWord_Buf) refers to flash.o(i.Flash_ReadHalfWord) for Flash_ReadHalfWord
    flash.o(i.Flash_WriteHalfWord_Buf) refers to flash.o(i.GetSector) for GetSector
    flash.o(i.Flash_WriteHalfWord_Buf) refers to stm32f4xx_flash.o(i.FLASH_EraseSector) for FLASH_EraseSector
    flash.o(i.Flash_WriteHalfWord_Buf) refers to stm32f4xx_flash.o(i.FLASH_ProgramHalfWord) for FLASH_ProgramHalfWord
    flash.o(i.Flash_WriteHalfWord_Buf) refers to stm32f4xx_flash.o(i.FLASH_Lock) for FLASH_Lock
    gpio.o(i.GPIO_GetPinNum) refers to gpio.o(i.GPIO_GetPinSource) for GPIO_GetPinSource
    gpio.o(i.GPIO_GetPinNum) refers to gpio.o(.constdata) for .constdata
    gpio.o(i.GPIO_GetPortNum) refers to gpio.o(.constdata) for .constdata
    gpio.o(i.GPIOx_Init) refers to stm32f4xx_rcc.o(i.RCC_AHB1PeriphClockCmd) for RCC_AHB1PeriphClockCmd
    gpio.o(i.GPIOx_Init) refers to stm32f4xx_gpio.o(i.GPIO_Init) for GPIO_Init
    pwm.o(i.PWM_Init) refers to arduino.o(i.pinMode) for pinMode
    pwm.o(i.PWM_Init) refers to pwm.o(i.TIM_GetGPIO_AF) for TIM_GetGPIO_AF
    pwm.o(i.PWM_Init) refers to gpio.o(i.GPIO_GetPinNum) for GPIO_GetPinNum
    pwm.o(i.PWM_Init) refers to stm32f4xx_gpio.o(i.GPIO_PinAFConfig) for GPIO_PinAFConfig
    pwm.o(i.PWM_Init) refers to stm32f4xx_tim.o(i.TIM_Cmd) for TIM_Cmd
    pwm.o(i.PWM_Init) refers to pwm.o(i.TIMx_OCxInit) for TIMx_OCxInit
    pwm.o(i.PWM_Init) refers to gpio.o(.constdata) for PIN_MAP
    pwm.o(i.PWM_Init) refers to system_stm32f4xx.o(.data) for SystemCoreClock
    pwm.o(i.TIM_GetGPIO_AF) refers to gpio.o(.constdata) for PIN_MAP
    pwm.o(i.TIMx_OCxInit) refers to timer.o(i.Timer_ClockCmd) for Timer_ClockCmd
    pwm.o(i.TIMx_OCxInit) refers to stm32f4xx_tim.o(i.TIM_TimeBaseInit) for TIM_TimeBaseInit
    pwm.o(i.TIMx_OCxInit) refers to stm32f4xx_tim.o(i.TIM_OC1Init) for TIM_OC1Init
    pwm.o(i.TIMx_OCxInit) refers to stm32f4xx_tim.o(i.TIM_OC1PreloadConfig) for TIM_OC1PreloadConfig
    pwm.o(i.TIMx_OCxInit) refers to stm32f4xx_tim.o(i.TIM_OC2Init) for TIM_OC2Init
    pwm.o(i.TIMx_OCxInit) refers to stm32f4xx_tim.o(i.TIM_OC2PreloadConfig) for TIM_OC2PreloadConfig
    pwm.o(i.TIMx_OCxInit) refers to stm32f4xx_tim.o(i.TIM_OC3Init) for TIM_OC3Init
    pwm.o(i.TIMx_OCxInit) refers to stm32f4xx_tim.o(i.TIM_OC3PreloadConfig) for TIM_OC3PreloadConfig
    pwm.o(i.TIMx_OCxInit) refers to stm32f4xx_tim.o(i.TIM_OC4Init) for TIM_OC4Init
    pwm.o(i.TIMx_OCxInit) refers to stm32f4xx_tim.o(i.TIM_OC4PreloadConfig) for TIM_OC4PreloadConfig
    pwm.o(i.TIMx_OCxInit) refers to stm32f4xx_tim.o(i.TIM_Cmd) for TIM_Cmd
    pwm.o(i.TIMx_OCxInit) refers to stm32f4xx_tim.o(i.TIM_CtrlPWMOutputs) for TIM_CtrlPWMOutputs
    pwm.o(i.pwmWrite) refers to gpio.o(.constdata) for PIN_MAP
    rng.o(i.RNG_GetRandNum) refers to stm32f4xx_rcc.o(i.RCC_AHB2PeriphClockCmd) for RCC_AHB2PeriphClockCmd
    rng.o(i.RNG_GetRandNum) refers to stm32f4xx_rng.o(i.RNG_Cmd) for RNG_Cmd
    rng.o(i.RNG_GetRandNum) refers to stm32f4xx_rng.o(i.RNG_GetFlagStatus) for RNG_GetFlagStatus
    rng.o(i.RNG_GetRandNum) refers to stm32f4xx_rng.o(i.RNG_GetRandomNumber) for RNG_GetRandomNumber
    rng.o(i.RNG_GetRandNum) refers to rng.o(.data) for .data
    timer.o(i.TIM1_UP_TIM10_IRQHandler) refers to stm32f4xx_tim.o(i.TIM_GetITStatus) for TIM_GetITStatus
    timer.o(i.TIM1_UP_TIM10_IRQHandler) refers to stm32f4xx_tim.o(i.TIM_ClearITPendingBit) for TIM_ClearITPendingBit
    timer.o(i.TIM1_UP_TIM10_IRQHandler) refers to timer.o(.bss) for .bss
    timer.o(i.TIM2_IRQHandler) refers to stm32f4xx_tim.o(i.TIM_GetITStatus) for TIM_GetITStatus
    timer.o(i.TIM2_IRQHandler) refers to stm32f4xx_tim.o(i.TIM_ClearITPendingBit) for TIM_ClearITPendingBit
    timer.o(i.TIM2_IRQHandler) refers to timer.o(.bss) for .bss
    timer.o(i.TIM3_IRQHandler) refers to stm32f4xx_tim.o(i.TIM_GetITStatus) for TIM_GetITStatus
    timer.o(i.TIM3_IRQHandler) refers to stm32f4xx_tim.o(i.TIM_ClearITPendingBit) for TIM_ClearITPendingBit
    timer.o(i.TIM3_IRQHandler) refers to timer.o(.bss) for .bss
    timer.o(i.TIM4_IRQHandler) refers to stm32f4xx_tim.o(i.TIM_GetITStatus) for TIM_GetITStatus
    timer.o(i.TIM4_IRQHandler) refers to stm32f4xx_tim.o(i.TIM_ClearITPendingBit) for TIM_ClearITPendingBit
    timer.o(i.TIM4_IRQHandler) refers to timer.o(.bss) for .bss
    timer.o(i.TIM5_IRQHandler) refers to stm32f4xx_tim.o(i.TIM_GetITStatus) for TIM_GetITStatus
    timer.o(i.TIM5_IRQHandler) refers to stm32f4xx_tim.o(i.TIM_ClearITPendingBit) for TIM_ClearITPendingBit
    timer.o(i.TIM5_IRQHandler) refers to timer.o(.bss) for .bss
    timer.o(i.TIM6_DAC_IRQHandler) refers to stm32f4xx_tim.o(i.TIM_GetITStatus) for TIM_GetITStatus
    timer.o(i.TIM6_DAC_IRQHandler) refers to stm32f4xx_tim.o(i.TIM_ClearITPendingBit) for TIM_ClearITPendingBit
    timer.o(i.TIM6_DAC_IRQHandler) refers to timer.o(.bss) for .bss
    timer.o(i.TIM7_IRQHandler) refers to stm32f4xx_tim.o(i.TIM_GetITStatus) for TIM_GetITStatus
    timer.o(i.TIM7_IRQHandler) refers to stm32f4xx_tim.o(i.TIM_ClearITPendingBit) for TIM_ClearITPendingBit
    timer.o(i.TIM7_IRQHandler) refers to timer.o(.bss) for .bss
    timer.o(i.TIM8_UP_TIM13_IRQHandler) refers to stm32f4xx_tim.o(i.TIM_GetITStatus) for TIM_GetITStatus
    timer.o(i.TIM8_UP_TIM13_IRQHandler) refers to stm32f4xx_tim.o(i.TIM_ClearITPendingBit) for TIM_ClearITPendingBit
    timer.o(i.TIM8_UP_TIM13_IRQHandler) refers to timer.o(.bss) for .bss
    timer.o(i.Timer_ClockCmd) refers to stm32f4xx_rcc.o(i.RCC_APB2PeriphClockCmd) for RCC_APB2PeriphClockCmd
    timer.o(i.Timer_ClockCmd) refers to stm32f4xx_rcc.o(i.RCC_APB1PeriphClockCmd) for RCC_APB1PeriphClockCmd
    timer.o(i.Timer_GetClockOut) refers to system_stm32f4xx.o(.data) for SystemCoreClock
    timer.o(i.Timer_SetInterrupt) refers to timer.o(i.Timer_TimeToArrPsc) for Timer_TimeToArrPsc
    timer.o(i.Timer_SetInterrupt) refers to timer.o(i.Timer_SetInterruptBase) for Timer_SetInterruptBase
    timer.o(i.Timer_SetInterrupt) refers to system_stm32f4xx.o(.data) for SystemCoreClock
    timer.o(i.Timer_SetInterruptBase) refers to stm32f4xx_tim.o(i.TIM_DeInit) for TIM_DeInit
    timer.o(i.Timer_SetInterruptBase) refers to timer.o(i.Timer_ClockCmd) for Timer_ClockCmd
    timer.o(i.Timer_SetInterruptBase) refers to stm32f4xx_tim.o(i.TIM_TimeBaseInit) for TIM_TimeBaseInit
    timer.o(i.Timer_SetInterruptBase) refers to misc.o(i.NVIC_Init) for NVIC_Init
    timer.o(i.Timer_SetInterruptBase) refers to stm32f4xx_tim.o(i.TIM_ClearFlag) for TIM_ClearFlag
    timer.o(i.Timer_SetInterruptBase) refers to stm32f4xx_tim.o(i.TIM_ITConfig) for TIM_ITConfig
    timer.o(i.Timer_SetInterruptBase) refers to timer.o(.bss) for .bss
    timer.o(i.Timer_SetInterruptFreqUpdate) refers to timer.o(i.Timer_FreqToArrPsc) for Timer_FreqToArrPsc
    timer.o(i.Timer_SetInterruptFreqUpdate) refers to stm32f4xx_tim.o(i.TIM_SetAutoreload) for TIM_SetAutoreload
    timer.o(i.Timer_SetInterruptFreqUpdate) refers to stm32f4xx_tim.o(i.TIM_PrescalerConfig) for TIM_PrescalerConfig
    timer.o(i.Timer_SetInterruptFreqUpdate) refers to system_stm32f4xx.o(.data) for SystemCoreClock
    timer.o(i.Timer_SetInterruptTimeUpdate) refers to timer.o(i.Timer_TimeToArrPsc) for Timer_TimeToArrPsc
    timer.o(i.Timer_SetInterruptTimeUpdate) refers to stm32f4xx_tim.o(i.TIM_SetAutoreload) for TIM_SetAutoreload
    timer.o(i.Timer_SetInterruptTimeUpdate) refers to stm32f4xx_tim.o(i.TIM_PrescalerConfig) for TIM_PrescalerConfig
    timer.o(i.Timer_SetInterruptTimeUpdate) refers to system_stm32f4xx.o(.data) for SystemCoreClock
    rt_ctype_table.o(.text) refers to rt_locale_intlibspace.o(.text) for __rt_locale
    rt_ctype_table.o(.text) refers to lc_ctype_c.o(locale$$code) for _get_lc_ctype
    malloc.o(.text) refers (Special) to hguard.o(.text) for __heap$guard
    malloc.o(.text) refers (Special) to init_alloc.o(.text) for _init_alloc
    malloc.o(.text) refers to rt_heap_descriptor_intlibspace.o(.text) for __rt_heap_descriptor
    malloc.o(.text) refers to heapstubs.o(.text) for __Heap_Alloc
    free.o(.text) refers (Special) to hguard.o(.text) for __heap$guard
    free.o(.text) refers to rt_heap_descriptor_intlibspace.o(.text) for __rt_heap_descriptor
    free.o(.text) refers to heapstubs.o(.text) for __Heap_Free
    realloc.o(.text) refers (Special) to hguard.o(.text) for __heap$guard
    realloc.o(.text) refers to rt_heap_descriptor_intlibspace.o(.text) for __rt_heap_descriptor
    realloc.o(.text) refers to heapstubs.o(.text) for __Heap_Realloc
    realloc.o(.text) refers to h1_free.o(.text) for free
    realloc.o(.text) refers to h1_alloc.o(.text) for malloc
    h1_alloc.o(.text) refers (Special) to h1_init.o(.text) for __Heap_Initialize
    h1_alloc.o(.text) refers to rt_heap_descriptor_intlibspace.o(.text) for __rt_heap_descriptor
    h1_alloc.o(.text) refers to init_alloc.o(.text) for __Heap_Full
    h1_free.o(.text) refers to rt_heap_descriptor_intlibspace.o(.text) for __rt_heap_descriptor
    h1_realloc.o(.text) refers to rt_heap_descriptor_intlibspace.o(.text) for __rt_heap_descriptor
    h1_realloc.o(.text) refers to h1_free.o(.text) for free
    h1_realloc.o(.text) refers to h1_alloc.o(.text) for malloc
    h1_realloc.o(.text) refers to rt_memcpy_w.o(.text) for __aeabi_memcpy4
    h1_alloc_mt.o(.text) refers (Special) to h1_init.o(.text) for __Heap_Initialize
    h1_alloc_mt.o(.text) refers to init_alloc.o(.text) for __Heap_Full
    h1_alloc_mt.o(.text) refers to rt_heap_descriptor_intlibspace.o(.text) for __rt_heap_descriptor
    h1_free_mt.o(.text) refers to rt_heap_descriptor_intlibspace.o(.text) for __rt_heap_descriptor
    h1_realloc_mt.o(.text) refers to rt_heap_descriptor_intlibspace.o(.text) for __rt_heap_descriptor
    h1_realloc_mt.o(.text) refers to h1_free_mt.o(.text) for _free_internal
    h1_realloc_mt.o(.text) refers to h1_free.o(.text) for free
    h1_realloc_mt.o(.text) refers to h1_alloc.o(.text) for malloc
    h1_realloc_mt.o(.text) refers to h1_alloc_mt.o(.text) for _malloc_internal
    h1_realloc_mt.o(.text) refers to rt_memcpy_w.o(.text) for __aeabi_memcpy4
    heap2.o(i._FDIterate) refers to heap2.o(.conststring) for .conststring
    heap2.o(i.___Heap_ProvideMemory$realtime) refers to fdtree.o(i._FDTree_Delete) for _FDTree_Delete
    heap2.o(i.___Heap_ProvideMemory$realtime) refers to fdtree.o(i._FDTree_Insert) for _FDTree_Insert
    heap2.o(i.___Heap_Stats$realtime) refers to heap2.o(i._Heap2_StatsIterate) for _Heap2_StatsIterate
    heap2.o(i.___Heap_Valid$realtime) refers to heap2.o(i._FDIterate) for _FDIterate
    heap2.o(i.___Heap_Valid$realtime) refers to heap2.o(.conststring) for .conststring
    heap2.o(i._free$realtime) refers to rt_heap_descriptor_intlibspace.o(.text) for __rt_heap_descriptor
    heap2.o(i._free$realtime) refers to fdtree.o(i._FDTree_Delete) for _FDTree_Delete
    heap2.o(i._free$realtime) refers to fdtree.o(i._FDTree_Insert) for _FDTree_Insert
    heap2.o(i._malloc$realtime) refers to rt_heap_descriptor_intlibspace.o(.text) for __rt_heap_descriptor
    heap2.o(i._malloc$realtime) refers to fdtree.o(i._FDTree_FindFirst) for _FDTree_FindFirst
    heap2.o(i._malloc$realtime) refers to init_alloc.o(.text) for __Heap_Full
    heap2.o(i._malloc$realtime) refers to fdtree.o(i._FDTree_RemoveNode) for _FDTree_RemoveNode
    heap2.o(i._malloc$realtime) refers to fdtree.o(i._FDTree_Insert) for _FDTree_Insert
    heap2.o(i._posix_memalign$realtime) refers to rt_heap_descriptor_intlibspace.o(.text) for __rt_heap_descriptor
    heap2.o(i._posix_memalign$realtime) refers to fdtree.o(i._FDTree_FindFirst) for _FDTree_FindFirst
    heap2.o(i._posix_memalign$realtime) refers to init_alloc.o(.text) for __Heap_Full
    heap2.o(i._posix_memalign$realtime) refers to fdtree.o(i._FDTree_RemoveNode) for _FDTree_RemoveNode
    heap2.o(i._posix_memalign$realtime) refers to fdtree.o(i._FDTree_Insert) for _FDTree_Insert
    heap2.o(i._realloc$realtime) refers to rt_heap_descriptor_intlibspace.o(.text) for __rt_heap_descriptor
    heap2.o(i._realloc$realtime) refers to fdtree.o(i._FDTree_Insert) for _FDTree_Insert
    heap2.o(i._realloc$realtime) refers to h1_free.o(.text) for free
    heap2.o(i._realloc$realtime) refers to h1_alloc.o(.text) for malloc
    heap2.o(i._realloc$realtime) refers to fdtree.o(i._FDTree_Delete) for _FDTree_Delete
    heap2.o(i._realloc$realtime) refers to rt_memcpy_w.o(.text) for __aeabi_memcpy4
    heap2mt.o(i._FDIterate) refers to heap2mt.o(.conststring) for .conststring
    heap2mt.o(i.___Heap_Initialize$realtime$concurrent) refers to mutex_dummy.o(.text) for _mutex_initialize
    heap2mt.o(i.___Heap_ProvideMemory$realtime$concurrent) refers to fdtree.o(i._FDTree_Delete) for _FDTree_Delete
    heap2mt.o(i.___Heap_ProvideMemory$realtime$concurrent) refers to fdtree.o(i._FDTree_Insert) for _FDTree_Insert
    heap2mt.o(i.___Heap_Stats$realtime$concurrent) refers to heap2mt.o(i._Heap2_StatsIterate) for _Heap2_StatsIterate
    heap2mt.o(i.___Heap_Valid$realtime$concurrent) refers to heap2mt.o(i._FDIterate) for _FDIterate
    heap2mt.o(i.___Heap_Valid$realtime$concurrent) refers to heap2mt.o(.conststring) for .conststring
    heap2mt.o(i._free$realtime$concurrent) refers to rt_heap_descriptor_intlibspace.o(.text) for __rt_heap_descriptor
    heap2mt.o(i._free$realtime$concurrent) refers to fdtree.o(i._FDTree_Delete) for _FDTree_Delete
    heap2mt.o(i._free$realtime$concurrent) refers to fdtree.o(i._FDTree_Insert) for _FDTree_Insert
    heap2mt.o(i._malloc$realtime$concurrent) refers to rt_heap_descriptor_intlibspace.o(.text) for __rt_heap_descriptor
    heap2mt.o(i._malloc$realtime$concurrent) refers to fdtree.o(i._FDTree_FindFirst) for _FDTree_FindFirst
    heap2mt.o(i._malloc$realtime$concurrent) refers to init_alloc.o(.text) for __Heap_Full
    heap2mt.o(i._malloc$realtime$concurrent) refers to fdtree.o(i._FDTree_RemoveNode) for _FDTree_RemoveNode
    heap2mt.o(i._malloc$realtime$concurrent) refers to fdtree.o(i._FDTree_Insert) for _FDTree_Insert
    heap2mt.o(i._posix_memalign$realtime$concurrent) refers to rt_heap_descriptor_intlibspace.o(.text) for __rt_heap_descriptor
    heap2mt.o(i._posix_memalign$realtime$concurrent) refers to fdtree.o(i._FDTree_FindFirst) for _FDTree_FindFirst
    heap2mt.o(i._posix_memalign$realtime$concurrent) refers to init_alloc.o(.text) for __Heap_Full
    heap2mt.o(i._posix_memalign$realtime$concurrent) refers to fdtree.o(i._FDTree_RemoveNode) for _FDTree_RemoveNode
    heap2mt.o(i._posix_memalign$realtime$concurrent) refers to fdtree.o(i._FDTree_Insert) for _FDTree_Insert
    heap2mt.o(i._realloc$realtime$concurrent) refers to rt_heap_descriptor_intlibspace.o(.text) for __rt_heap_descriptor
    heap2mt.o(i._realloc$realtime$concurrent) refers to fdtree.o(i._FDTree_Insert) for _FDTree_Insert
    heap2mt.o(i._realloc$realtime$concurrent) refers to h1_free.o(.text) for free
    heap2mt.o(i._realloc$realtime$concurrent) refers to h1_alloc.o(.text) for malloc
    heap2mt.o(i._realloc$realtime$concurrent) refers to fdtree.o(i._FDTree_Delete) for _FDTree_Delete
    heap2mt.o(i._realloc$realtime$concurrent) refers to rt_memcpy_w.o(.text) for __aeabi_memcpy4
    llsdiv.o(.text) refers to lludivv7m.o(.text) for __aeabi_uldivmod
    tolower.o(.text) refers to rt_ctype_table.o(.text) for __rt_ctype_table
    toupper.o(.text) refers to rt_ctype_table.o(.text) for __rt_ctype_table
    c89vsnprintf.o(.text) refers (Special) to _printf_a.o(.ARM.Collect$$_printf_percent$$00000006) for _printf_a
    c89vsnprintf.o(.text) refers (Special) to _printf_c.o(.ARM.Collect$$_printf_percent$$00000013) for _printf_c
    c89vsnprintf.o(.text) refers (Special) to _printf_charcount.o(.text) for _printf_charcount
    c89vsnprintf.o(.text) refers (Special) to _printf_d.o(.ARM.Collect$$_printf_percent$$00000009) for _printf_d
    c89vsnprintf.o(.text) refers (Special) to _printf_e.o(.ARM.Collect$$_printf_percent$$00000004) for _printf_e
    c89vsnprintf.o(.text) refers (Special) to _printf_f.o(.ARM.Collect$$_printf_percent$$00000003) for _printf_f
    c89vsnprintf.o(.text) refers (Special) to printf1.o(x$fpl$printf1) for _printf_fp_dec
    c89vsnprintf.o(.text) refers (Special) to _printf_g.o(.ARM.Collect$$_printf_percent$$00000005) for _printf_g
    c89vsnprintf.o(.text) refers (Special) to _printf_i.o(.ARM.Collect$$_printf_percent$$00000008) for _printf_i
    c89vsnprintf.o(.text) refers (Special) to _printf_dec.o(.text) for _printf_int_dec
    c89vsnprintf.o(.text) refers (Special) to _printf_l.o(.ARM.Collect$$_printf_percent$$00000012) for _printf_l
    c89vsnprintf.o(.text) refers (Special) to _printf_lc.o(.ARM.Collect$$_printf_percent$$00000015) for _printf_lc
    c89vsnprintf.o(.text) refers (Special) to _printf_ll.o(.ARM.Collect$$_printf_percent$$00000007) for _printf_ll
    c89vsnprintf.o(.text) refers (Special) to _printf_lld.o(.ARM.Collect$$_printf_percent$$0000000E) for _printf_lld
    c89vsnprintf.o(.text) refers (Special) to _printf_lli.o(.ARM.Collect$$_printf_percent$$0000000D) for _printf_lli
    c89vsnprintf.o(.text) refers (Special) to _printf_llo.o(.ARM.Collect$$_printf_percent$$00000010) for _printf_llo
    c89vsnprintf.o(.text) refers (Special) to _printf_llu.o(.ARM.Collect$$_printf_percent$$0000000F) for _printf_llu
    c89vsnprintf.o(.text) refers (Special) to _printf_llx.o(.ARM.Collect$$_printf_percent$$00000011) for _printf_llx
    c89vsnprintf.o(.text) refers (Special) to _printf_longlong_dec.o(.text) for _printf_longlong_dec
    c89vsnprintf.o(.text) refers (Special) to _printf_hex_int_ll_ptr.o(.text) for _printf_longlong_hex
    c89vsnprintf.o(.text) refers (Special) to _printf_oct_int_ll.o(.text) for _printf_longlong_oct
    c89vsnprintf.o(.text) refers (Special) to _printf_ls.o(.ARM.Collect$$_printf_percent$$00000016) for _printf_ls
    c89vsnprintf.o(.text) refers (Special) to _printf_n.o(.ARM.Collect$$_printf_percent$$00000001) for _printf_n
    c89vsnprintf.o(.text) refers (Special) to _printf_o.o(.ARM.Collect$$_printf_percent$$0000000B) for _printf_o
    c89vsnprintf.o(.text) refers (Special) to _printf_p.o(.ARM.Collect$$_printf_percent$$00000002) for _printf_p
    c89vsnprintf.o(.text) refers (Special) to _printf_percent.o(.ARM.Collect$$_printf_percent$$00000000) for _printf_percent
    c89vsnprintf.o(.text) refers (Special) to _printf_pad.o(.text) for _printf_post_padding
    c89vsnprintf.o(.text) refers (Special) to _printf_s.o(.ARM.Collect$$_printf_percent$$00000014) for _printf_s
    c89vsnprintf.o(.text) refers (Special) to _printf_str.o(.text) for _printf_str
    c89vsnprintf.o(.text) refers (Special) to _printf_truncate.o(.text) for _printf_truncate_signed
    c89vsnprintf.o(.text) refers (Special) to _printf_u.o(.ARM.Collect$$_printf_percent$$0000000A) for _printf_u
    c89vsnprintf.o(.text) refers (Special) to _printf_wctomb.o(.text) for _printf_wctomb
    c89vsnprintf.o(.text) refers (Special) to _printf_x.o(.ARM.Collect$$_printf_percent$$0000000C) for _printf_x
    c89vsnprintf.o(.text) refers to _printf_char_common.o(.text) for _printf_char_common
    c89vsnprintf.o(.text) refers to _sputc.o(.text) for _sputc
    c89vsnprintf.o(.text) refers to _snputc.o(.text) for _snputc
    __2sprintf.o(.text) refers to _printf_char_common.o(.text) for _printf_char_common
    __2sprintf.o(.text) refers to _sputc.o(.text) for _sputc
    noretval__2sprintf.o(.text) refers to _printf_char_common.o(.text) for _printf_char_common
    noretval__2sprintf.o(.text) refers to _sputc.o(.text) for _sputc
    __printf.o(.text) refers to _printf_percent.o(.ARM.Collect$$_printf_percent$$00000000) for _printf_percent
    _printf_dec.o(.text) refers (Weak) to _printf_truncate.o(.text) for _printf_truncate_signed
    _printf_dec.o(.text) refers (Weak) to _printf_truncate.o(.text) for _printf_truncate_unsigned
    _printf_dec.o(.text) refers to _printf_intcommon.o(.text) for _printf_int_common
    __printf_flags.o(.text) refers to _printf_percent.o(.ARM.Collect$$_printf_percent$$00000000) for _printf_percent
    __printf_flags.o(.text) refers to __printf_flags.o(.constdata) for .constdata
    __printf_ss.o(.text) refers to _printf_percent.o(.ARM.Collect$$_printf_percent$$00000000) for _printf_percent
    __printf_flags_ss.o(.text) refers to _printf_percent.o(.ARM.Collect$$_printf_percent$$00000000) for _printf_percent
    __printf_flags_ss.o(.text) refers to __printf_flags_ss.o(.constdata) for .constdata
    __printf_wp.o(.text) refers to __printf_wp.o(i._is_digit) for _is_digit
    __printf_wp.o(.text) refers to _printf_percent.o(.ARM.Collect$$_printf_percent$$00000000) for _printf_percent
    __printf_flags_wp.o(.text) refers to __printf_wp.o(i._is_digit) for _is_digit
    __printf_flags_wp.o(.text) refers to _printf_percent.o(.ARM.Collect$$_printf_percent$$00000000) for _printf_percent
    __printf_flags_wp.o(.text) refers to __printf_flags_wp.o(.constdata) for .constdata
    __printf_ss_wp.o(.text) refers to __printf_wp.o(i._is_digit) for _is_digit
    __printf_ss_wp.o(.text) refers to _printf_percent.o(.ARM.Collect$$_printf_percent$$00000000) for _printf_percent
    __printf_flags_ss_wp.o(.text) refers to __printf_wp.o(i._is_digit) for _is_digit
    __printf_flags_ss_wp.o(.text) refers to _printf_percent.o(.ARM.Collect$$_printf_percent$$00000000) for _printf_percent
    __printf_flags_ss_wp.o(.text) refers to __printf_flags_ss_wp.o(.constdata) for .constdata
    _printf_d.o(.ARM.Collect$$_printf_percent$$00000009) refers (Weak) to _printf_dec.o(.text) for _printf_int_dec
    _printf_f.o(.ARM.Collect$$_printf_percent$$00000003) refers (Weak) to printf1.o(x$fpl$printf1) for _printf_fp_dec
    _printf_e.o(.ARM.Collect$$_printf_percent$$00000004) refers (Weak) to printf1.o(x$fpl$printf1) for _printf_fp_dec
    _printf_g.o(.ARM.Collect$$_printf_percent$$00000005) refers (Weak) to printf1.o(x$fpl$printf1) for _printf_fp_dec
    _printf_a.o(.ARM.Collect$$_printf_percent$$00000006) refers (Weak) to printf2.o(x$fpl$printf2) for _printf_fp_hex
    _printf_percent.o(.ARM.Collect$$_printf_percent$$00000000) refers (Special) to _printf_percent_end.o(.ARM.Collect$$_printf_percent$$00000017) for _printf_percent_end
    atol.o(.text) refers to rt_errno_addr_intlibspace.o(.text) for __aeabi_errno_addr
    atol.o(.text) refers to strtol.o(.text) for strtol
    rand.o(.emb_text) refers (Special) to libinit2.o(.ARM.Collect$$libinit$$0000000D) for __rt_lib_init_rand_2
    rand.o(.emb_text) refers to rand.o(.text) for _rand_init
    rand.o(.emb_text) refers to rand.o(.bss) for _random_number_data
    rand.o(.text) refers (Special) to libinit2.o(.ARM.Collect$$libinit$$0000000D) for __rt_lib_init_rand_2
    rand.o(.text) refers to rand.o(.bss) for .bss
    rand.o(.bss) refers (Special) to libinit2.o(.ARM.Collect$$libinit$$0000000D) for __rt_lib_init_rand_2
    atexit_aeabi.o(.text) refers to aeabi_atexit.o(.text) for __aeabi_atexit
    atexit_aeabi.o(.ARM.exidx) refers to atexit_aeabi.o(.text) for .text
    aeabi_atexit.o(.text) refers (Special) to cxa_finalize.o(.text) for __cxa_finalize
    aeabi_atexit.o(.text) refers to h1_alloc.o(.text) for malloc
    aeabi_atexit.o(.text) refers to rt_ddtor_pointer_addr_intlibspace.o(.text) for __rt_ddtor_pointer_addr
    aeabi_atexit.o(.ARM.exidx) refers (Special) to cxa_finalize.o(.text) for __cxa_finalize
    aeabi_atexit.o(.ARM.exidx) refers to aeabi_atexit.o(.text) for .text
    rt_memcpy_v6.o(.text) refers to rt_memcpy_w.o(.text) for __aeabi_memcpy4
    rt_memmove_v6.o(.text) refers to rt_memcpy_v6.o(.text) for __aeabi_memcpy
    rt_memmove_v6.o(.text) refers to rt_memmove_w.o(.text) for __memmove_aligned
    aeabi_memset.o(.text) refers to rt_memclr.o(.text) for _memset
    rt_memclr.o(.text) refers to rt_memclr_w.o(.text) for _memset_w
    strncpy.o(.text) refers to rt_memclr.o(.text) for __aeabi_memclr
    __main.o(!!!main) refers to __rtentry.o(.ARM.Collect$$rtentry$$00000000) for __rt_entry
    init_aeabi.o(.emb_text) refers (Special) to libinit2.o(.ARM.Collect$$libinit$$00000031) for __rt_lib_init_cpp_2
    init_aeabi.o(.init_array) refers (Special) to libinit2.o(.ARM.Collect$$libinit$$00000031) for __rt_lib_init_cpp_2
    init_aeabi.o(.init_array) refers to init_aeabi.o(.text) for __cpp_initialize__aeabi_
    init_aeabi.o(.dummy_text) refers (Special) to libinit2.o(.ARM.Collect$$libinit$$00000031) for __rt_lib_init_cpp_2
    init_aeabi.o(.text) refers (Special) to libinit2.o(.ARM.Collect$$libinit$$00000031) for __rt_lib_init_cpp_2
    init_aeabi.o(.ARM.exidx) refers (Special) to libinit2.o(.ARM.Collect$$libinit$$00000031) for __rt_lib_init_cpp_2
    init_aeabi.o(.ARM.exidx) refers to init_aeabi.o(.text) for .text
    array_del.o(i._ZdaPv) refers to delete.o(i._ZdlPv) for operator delete (void*)
    array_del.o(.ARM.exidx) refers to array_del.o(i._ZdaPv) for i._ZdaPv
    array_new.o(i._Znaj) refers to new.o(i._Znwj) for operator new(unsigned)
    array_new.o(.ARM.exidx) refers to array_new.o(i._Znaj) for i._Znaj
    array_new.o(.ARM.exidx) refers to unwind_pr0.o(.text) for __aeabi_unwind_cpp_pr0
    array_new.o(.ARM.exidx) refers to array_new.o(.ARM.extab) for .extab._Znaj
    array_new.o(.ARM.extab) refers to arm_callunex_noexceptions.o(.text) for __cxa_call_unexpected
    array_new.o(.ARM.extab) refers to bad_alloc_dtor.o(.constdata__ZTISt9bad_alloc) for typeinfo for std::bad_alloc
    delete.o(i._ZdlPv) refers to h1_free.o(.text) for free
    delete.o(.ARM.exidx) refers to delete.o(i._ZdlPv) for i._ZdlPv
    new.o(i._Znwj) refers to rt_new_handler_addr_intlibspace.o(.text) for __rt_new_handler_addr
    new.o(i._Znwj) refers to h1_alloc.o(.text) for malloc
    new.o(i._Znwj) refers to arm_newhandler_noexceptions.o(.text) for __default_new_handler()
    new.o(.ARM.exidx) refers to new.o(i._Znwj) for i._Znwj
    new.o(.ARM.exidx) refers to unwind_pr0.o(.text) for __aeabi_unwind_cpp_pr0
    new.o(.ARM.exidx) refers to new.o(.ARM.extab) for .extab._Znwj
    new.o(.ARM.extab) refers to arm_callunex_noexceptions.o(.text) for __cxa_call_unexpected
    new.o(.ARM.extab) refers to bad_alloc_dtor.o(.constdata__ZTISt9bad_alloc) for typeinfo for std::bad_alloc
    pure_virt.o(i.__cxa_pure_virtual) refers to defsig_pvfn_outer.o(.text) for __rt_SIGPVFN
    pure_virt.o(.ARM.exidx) refers to pure_virt.o(i.__cxa_pure_virtual) for i.__cxa_pure_virtual
    lib_rtti_impl.o(i._ZN10__cxxabiv116__enum_type_infoD0Ev) refers to lib_rtti_impl.o(i._ZN10__cxxabiv116__enum_type_infoD1Ev) for __cxxabiv1::__enum_type_info::~__enum_type_info()
    lib_rtti_impl.o(i._ZN10__cxxabiv117__array_type_infoD0Ev) refers to lib_rtti_impl.o(i._ZN10__cxxabiv117__array_type_infoD1Ev) for __cxxabiv1::__array_type_info::~__array_type_info()
    lib_rtti_impl.o(i._ZN10__cxxabiv117__class_type_infoD0Ev) refers to lib_rtti_impl.o(i._ZN10__cxxabiv117__class_type_infoD1Ev) for __cxxabiv1::__class_type_info::~__class_type_info()
    lib_rtti_impl.o(i._ZN10__cxxabiv117__pbase_type_infoD0Ev) refers to lib_rtti_impl.o(i._ZN10__cxxabiv117__pbase_type_infoD1Ev) for __cxxabiv1::__pbase_type_info::~__pbase_type_info()
    lib_rtti_impl.o(i._ZN10__cxxabiv119__pointer_type_infoD0Ev) refers to lib_rtti_impl.o(i._ZN10__cxxabiv119__pointer_type_infoD1Ev) for __cxxabiv1::__pointer_type_info::~__pointer_type_info()
    lib_rtti_impl.o(i._ZN10__cxxabiv119__pointer_type_infoD1Ev) refers to lib_rtti_impl.o(i._ZN10__cxxabiv117__pbase_type_infoD1Ev) for __cxxabiv1::__pbase_type_info::~__pbase_type_info()
    lib_rtti_impl.o(i._ZN10__cxxabiv120__function_type_infoD0Ev) refers to lib_rtti_impl.o(i._ZN10__cxxabiv120__function_type_infoD1Ev) for __cxxabiv1::__function_type_info::~__function_type_info()
    lib_rtti_impl.o(i._ZN10__cxxabiv120__si_class_type_infoD0Ev) refers to lib_rtti_impl.o(i._ZN10__cxxabiv120__si_class_type_infoD1Ev) for __cxxabiv1::__si_class_type_info::~__si_class_type_info()
    lib_rtti_impl.o(i._ZN10__cxxabiv120__si_class_type_infoD1Ev) refers to lib_rtti_impl.o(i._ZN10__cxxabiv117__class_type_infoD1Ev) for __cxxabiv1::__class_type_info::~__class_type_info()
    lib_rtti_impl.o(i._ZN10__cxxabiv121__vmi_class_type_infoD0Ev) refers to lib_rtti_impl.o(i._ZN10__cxxabiv121__vmi_class_type_infoD1Ev) for __cxxabiv1::__vmi_class_type_info::~__vmi_class_type_info()
    lib_rtti_impl.o(i._ZN10__cxxabiv121__vmi_class_type_infoD1Ev) refers to lib_rtti_impl.o(i._ZN10__cxxabiv117__class_type_infoD1Ev) for __cxxabiv1::__class_type_info::~__class_type_info()
    lib_rtti_impl.o(i._ZN10__cxxabiv123__fundamental_type_infoD0Ev) refers to lib_rtti_impl.o(i._ZN10__cxxabiv123__fundamental_type_infoD1Ev) for __cxxabiv1::__fundamental_type_info::~__fundamental_type_info()
    lib_rtti_impl.o(i._ZN10__cxxabiv129__pointer_to_member_type_infoD0Ev) refers to lib_rtti_impl.o(i._ZN10__cxxabiv129__pointer_to_member_type_infoD1Ev) for __cxxabiv1::__pointer_to_member_type_info::~__pointer_to_member_type_info()
    lib_rtti_impl.o(i._ZN10__cxxabiv129__pointer_to_member_type_infoD1Ev) refers to lib_rtti_impl.o(i._ZN10__cxxabiv117__pbase_type_infoD1Ev) for __cxxabiv1::__pbase_type_info::~__pbase_type_info()
    lib_rtti_impl.o(.ARM.exidx) refers to lib_rtti_impl.o(i._ZN10__cxxabiv123__fundamental_type_infoD1Ev) for i._ZN10__cxxabiv123__fundamental_type_infoD1Ev
    lib_rtti_impl.o(.ARM.exidx) refers to lib_rtti_impl.o(i._ZN10__cxxabiv123__fundamental_type_infoD0Ev) for i._ZN10__cxxabiv123__fundamental_type_infoD0Ev
    lib_rtti_impl.o(.ARM.exidx) refers to lib_rtti_impl.o(i._ZN10__cxxabiv117__array_type_infoD1Ev) for i._ZN10__cxxabiv117__array_type_infoD1Ev
    lib_rtti_impl.o(.ARM.exidx) refers to lib_rtti_impl.o(i._ZN10__cxxabiv117__array_type_infoD0Ev) for i._ZN10__cxxabiv117__array_type_infoD0Ev
    lib_rtti_impl.o(.ARM.exidx) refers to lib_rtti_impl.o(i._ZN10__cxxabiv120__function_type_infoD1Ev) for i._ZN10__cxxabiv120__function_type_infoD1Ev
    lib_rtti_impl.o(.ARM.exidx) refers to lib_rtti_impl.o(i._ZN10__cxxabiv120__function_type_infoD0Ev) for i._ZN10__cxxabiv120__function_type_infoD0Ev
    lib_rtti_impl.o(.ARM.exidx) refers to lib_rtti_impl.o(i._ZN10__cxxabiv116__enum_type_infoD1Ev) for i._ZN10__cxxabiv116__enum_type_infoD1Ev
    lib_rtti_impl.o(.ARM.exidx) refers to lib_rtti_impl.o(i._ZN10__cxxabiv116__enum_type_infoD0Ev) for i._ZN10__cxxabiv116__enum_type_infoD0Ev
    lib_rtti_impl.o(.ARM.exidx) refers to lib_rtti_impl.o(i._ZN10__cxxabiv117__class_type_infoD1Ev) for i._ZN10__cxxabiv117__class_type_infoD1Ev
    lib_rtti_impl.o(.ARM.exidx) refers to lib_rtti_impl.o(i._ZN10__cxxabiv117__class_type_infoD0Ev) for i._ZN10__cxxabiv117__class_type_infoD0Ev
    lib_rtti_impl.o(.ARM.exidx) refers to lib_rtti_impl.o(i._ZN10__cxxabiv120__si_class_type_infoD1Ev) for i._ZN10__cxxabiv120__si_class_type_infoD1Ev
    lib_rtti_impl.o(.ARM.exidx) refers to lib_rtti_impl.o(i._ZN10__cxxabiv120__si_class_type_infoD0Ev) for i._ZN10__cxxabiv120__si_class_type_infoD0Ev
    lib_rtti_impl.o(.ARM.exidx) refers to lib_rtti_impl.o(i._ZN10__cxxabiv121__vmi_class_type_infoD1Ev) for i._ZN10__cxxabiv121__vmi_class_type_infoD1Ev
    lib_rtti_impl.o(.ARM.exidx) refers to lib_rtti_impl.o(i._ZN10__cxxabiv121__vmi_class_type_infoD0Ev) for i._ZN10__cxxabiv121__vmi_class_type_infoD0Ev
    lib_rtti_impl.o(.ARM.exidx) refers to lib_rtti_impl.o(i._ZN10__cxxabiv117__pbase_type_infoD1Ev) for i._ZN10__cxxabiv117__pbase_type_infoD1Ev
    lib_rtti_impl.o(.ARM.exidx) refers to lib_rtti_impl.o(i._ZN10__cxxabiv117__pbase_type_infoD0Ev) for i._ZN10__cxxabiv117__pbase_type_infoD0Ev
    lib_rtti_impl.o(.ARM.exidx) refers to lib_rtti_impl.o(i._ZN10__cxxabiv119__pointer_type_infoD1Ev) for i._ZN10__cxxabiv119__pointer_type_infoD1Ev
    lib_rtti_impl.o(.ARM.exidx) refers to lib_rtti_impl.o(i._ZN10__cxxabiv119__pointer_type_infoD0Ev) for i._ZN10__cxxabiv119__pointer_type_infoD0Ev
    lib_rtti_impl.o(.ARM.exidx) refers to lib_rtti_impl.o(i._ZN10__cxxabiv129__pointer_to_member_type_infoD1Ev) for i._ZN10__cxxabiv129__pointer_to_member_type_infoD1Ev
    lib_rtti_impl.o(.ARM.exidx) refers to lib_rtti_impl.o(i._ZN10__cxxabiv129__pointer_to_member_type_infoD0Ev) for i._ZN10__cxxabiv129__pointer_to_member_type_infoD0Ev
    basic.o(x$fpl$basic) refers (Special) to usenofp.o(x$fpl$usenofp) for __I$use$fp
    d2f.o(x$fpl$d2f) refers (Special) to usenofp.o(x$fpl$usenofp) for __I$use$fp
    d2f.o(x$fpl$d2f) refers to fretinf.o(x$fpl$fretinf) for __fpl_fretinf
    d2f.o(x$fpl$d2f) refers to dnaninf.o(x$fpl$dnaninf) for __fpl_dnaninf
    daddsub_clz.o(x$fpl$dadd) refers (Special) to usenofp.o(x$fpl$usenofp) for __I$use$fp
    daddsub_clz.o(x$fpl$dadd) refers to daddsub_clz.o(x$fpl$dsub) for _dsub1
    daddsub_clz.o(x$fpl$dadd) refers to dretinf.o(x$fpl$dretinf) for __fpl_dretinf
    daddsub_clz.o(x$fpl$dadd) refers to dnaninf.o(x$fpl$dnaninf) for __fpl_dnaninf
    daddsub_clz.o(x$fpl$drsb) refers (Special) to usenofp.o(x$fpl$usenofp) for __I$use$fp
    daddsub_clz.o(x$fpl$drsb) refers to daddsub_clz.o(x$fpl$dadd) for _dadd1
    daddsub_clz.o(x$fpl$drsb) refers to daddsub_clz.o(x$fpl$dsub) for _dsub1
    daddsub_clz.o(x$fpl$dsub) refers (Special) to usenofp.o(x$fpl$usenofp) for __I$use$fp
    daddsub_clz.o(x$fpl$dsub) refers to daddsub_clz.o(x$fpl$dadd) for _dadd1
    daddsub_clz.o(x$fpl$dsub) refers to dnaninf.o(x$fpl$dnaninf) for __fpl_dnaninf
    ddiv.o(x$fpl$drdiv) refers (Special) to usenofp.o(x$fpl$usenofp) for __I$use$fp
    ddiv.o(x$fpl$drdiv) refers to ddiv.o(x$fpl$ddiv) for ddiv_entry
    ddiv.o(x$fpl$ddiv) refers (Special) to usenofp.o(x$fpl$usenofp) for __I$use$fp
    ddiv.o(x$fpl$ddiv) refers to dretinf.o(x$fpl$dretinf) for __fpl_dretinf
    ddiv.o(x$fpl$ddiv) refers to dnaninf.o(x$fpl$dnaninf) for __fpl_dnaninf
    dfix.o(x$fpl$dfix) refers (Special) to usenofp.o(x$fpl$usenofp) for __I$use$fp
    dfix.o(x$fpl$dfix) refers to dnaninf.o(x$fpl$dnaninf) for __fpl_dnaninf
    dfix.o(x$fpl$dfixr) refers (Special) to usenofp.o(x$fpl$usenofp) for __I$use$fp
    dfix.o(x$fpl$dfixr) refers to dnaninf.o(x$fpl$dnaninf) for __fpl_dnaninf
    dfixll.o(x$fpl$llsfromd) refers (Special) to usenofp.o(x$fpl$usenofp) for __I$use$fp
    dfixll.o(x$fpl$llsfromd) refers to dnaninf.o(x$fpl$dnaninf) for __fpl_dnaninf
    dfixll.o(x$fpl$llsfromdr) refers (Special) to usenofp.o(x$fpl$usenofp) for __I$use$fp
    dfixll.o(x$fpl$llsfromdr) refers to dnaninf.o(x$fpl$dnaninf) for __fpl_dnaninf
    dflt_clz.o(x$fpl$dfltu) refers (Special) to usenofp.o(x$fpl$usenofp) for __I$use$fp
    dflt_clz.o(x$fpl$dflt) refers (Special) to usenofp.o(x$fpl$usenofp) for __I$use$fp
    dflt_clz.o(x$fpl$dfltn) refers (Special) to usenofp.o(x$fpl$usenofp) for __I$use$fp
    dfltll_clz.o(x$fpl$dfltll) refers (Special) to usenofp.o(x$fpl$usenofp) for __I$use$fp
    dfltll_clz.o(x$fpl$dfltull) refers (Special) to usenofp.o(x$fpl$usenofp) for __I$use$fp
    dleqf.o(x$fpl$dleqf) refers (Special) to usenofp.o(x$fpl$usenofp) for __I$use$fp
    dleqf.o(x$fpl$dleqf) refers to dnaninf.o(x$fpl$dnaninf) for __fpl_dnaninf
    dleqf.o(x$fpl$dleqf) refers to dcmpi.o(x$fpl$dcmpinf) for __fpl_dcmp_Inf
    dmul.o(x$fpl$dmul) refers (Special) to usenofp.o(x$fpl$usenofp) for __I$use$fp
    dmul.o(x$fpl$dmul) refers to dretinf.o(x$fpl$dretinf) for __fpl_dretinf
    dmul.o(x$fpl$dmul) refers to dnaninf.o(x$fpl$dnaninf) for __fpl_dnaninf
    drleqf.o(x$fpl$drleqf) refers (Special) to usenofp.o(x$fpl$usenofp) for __I$use$fp
    drleqf.o(x$fpl$drleqf) refers to dleqf.o(x$fpl$dleqf) for __fpl_dcmple_InfNaN
    f2d.o(x$fpl$f2d) refers (Special) to usenofp.o(x$fpl$usenofp) for __I$use$fp
    f2d.o(x$fpl$f2d) refers to fnaninf.o(x$fpl$fnaninf) for __fpl_fnaninf
    f2d.o(x$fpl$f2d) refers to dretinf.o(x$fpl$dretinf) for __fpl_dretinf
    printf1.o(x$fpl$printf1) refers to _printf_fp_dec.o(.text) for _printf_fp_dec_real
    printf2.o(x$fpl$printf2) refers to _printf_fp_hex.o(.text) for _printf_fp_hex_real
    printf2b.o(x$fpl$printf2) refers to _printf_fp_hex.o(.text) for _printf_fp_hex_real
    atof.o(i.__hardfp_atof) refers (Special) to usenofp.o(x$fpl$usenofp) for __I$use$fp
    atof.o(i.__hardfp_atof) refers to _rserrno.o(.text) for __read_errno
    atof.o(i.__hardfp_atof) refers to strtod.o(.text) for __strtod_int
    atof.o(i.__softfp_atof) refers (Special) to usenofp.o(x$fpl$usenofp) for __I$use$fp
    atof.o(i.__softfp_atof) refers to _rserrno.o(.text) for __read_errno
    atof.o(i.__softfp_atof) refers to strtod.o(.text) for __strtod_int
    atof.o(i.atof) refers (Special) to usenofp.o(x$fpl$usenofp) for __I$use$fp
    atof.o(i.atof) refers to _rserrno.o(.text) for __read_errno
    atof.o(i.atof) refers to strtod.o(.text) for __strtod_int
    __rtentry.o(.ARM.Collect$$rtentry$$00000000) refers (Special) to __rtentry2.o(.ARM.Collect$$rtentry$$0000000A) for __rt_entry_li
    __rtentry.o(.ARM.Collect$$rtentry$$00000000) refers (Special) to __rtentry2.o(.ARM.Collect$$rtentry$$0000000D) for __rt_entry_main
    __rtentry.o(.ARM.Collect$$rtentry$$00000000) refers (Special) to __rtentry2.o(.ARM.Collect$$rtentry$$0000000C) for __rt_entry_postli_1
    __rtentry.o(.ARM.Collect$$rtentry$$00000000) refers (Special) to __rtentry2.o(.ARM.Collect$$rtentry$$00000009) for __rt_entry_postsh_1
    __rtentry.o(.ARM.Collect$$rtentry$$00000000) refers (Special) to __rtentry2.o(.ARM.Collect$$rtentry$$00000002) for __rt_entry_presh_1
    __rtentry.o(.ARM.Collect$$rtentry$$00000000) refers (Special) to __rtentry4.o(.ARM.Collect$$rtentry$$00000004) for __rt_entry_sh
    aeabi_ldiv0_sigfpe.o(.text) refers to rt_div0.o(.text) for __rt_div0
    rt_heap_descriptor.o(.text) refers to rt_heap_descriptor.o(.bss) for __rt_heap_descriptor_data
    rt_heap_descriptor_intlibspace.o(.text) refers to libspace.o(.bss) for __libspace_start
    rt_locale.o(.text) refers to rt_locale.o(.bss) for __rt_locale_data
    rt_locale_intlibspace.o(.text) refers to libspace.o(.bss) for __libspace_start
    rt_new_handler_addr.o(.text) refers to rt_new_handler_addr.o(.bss) for __rt_new_handler_addr_data
    rt_new_handler_addr_intlibspace.o(.text) refers to libspace.o(.bss) for __libspace_start
    rt_ddtor_pointer_addr.o(.text) refers to rt_ddtor_pointer_addr.o(.bss) for __rt_ddtor_pointer_addr_data
    rt_ddtor_pointer_addr_intlibspace.o(.text) refers to libspace.o(.bss) for __libspace_start
    rt_errno_addr.o(.text) refers to rt_errno_addr.o(.bss) for __aeabi_errno_addr_data
    rt_errno_addr_intlibspace.o(.text) refers to libspace.o(.bss) for __libspace_start
    init_alloc.o(.text) refers (Special) to hguard.o(.text) for __heap$guard
    init_alloc.o(.text) refers (Special) to libinit2.o(.ARM.Collect$$libinit$$00000005) for __rt_lib_init_heap_2
    init_alloc.o(.text) refers (Special) to maybetermalloc1.o(.emb_text) for _maybe_terminate_alloc
    init_alloc.o(.text) refers to h1_extend.o(.text) for __Heap_ProvideMemory
    init_alloc.o(.text) refers to defsig_rtmem_outer.o(.text) for __rt_SIGRTMEM
    init_alloc.o(.text) refers to rt_heap_descriptor_intlibspace.o(.text) for __rt_heap_descriptor
    init_alloc.o(.text) refers to h1_init.o(.text) for __Heap_Initialize
    h1_init_mt.o(.text) refers to mutex_dummy.o(.text) for _mutex_initialize
    _rserrno.o(.text) refers to rt_errno_addr_intlibspace.o(.text) for __aeabi_errno_addr
    _printf_str.o(.text) refers (Special) to _printf_char.o(.text) for _printf_cs_common
    _printf_str.o(.text) refers (Weak) to _printf_pad.o(.text) for _printf_pre_padding
    _printf_str.o(.text) refers (Weak) to _printf_pad.o(.text) for _printf_post_padding
    _printf_intcommon.o(.text) refers (Weak) to _printf_pad.o(.text) for _printf_pre_padding
    _printf_intcommon.o(.text) refers (Weak) to _printf_pad.o(.text) for _printf_pre_padding
    _printf_intcommon.o(.text) refers (Weak) to _printf_pad.o(.text) for _printf_post_padding
    _printf_fp_dec.o(.text) refers (Special) to usenofp.o(x$fpl$usenofp) for __I$use$fp
    _printf_fp_dec.o(.text) refers (Special) to lc_numeric_c.o(locale$$code) for _get_lc_numeric
    _printf_fp_dec.o(.text) refers to bigflt0.o(.text) for _btod_etento
    _printf_fp_dec.o(.text) refers to btod.o(CL$$btod_d2e) for _btod_d2e
    _printf_fp_dec.o(.text) refers to btod.o(CL$$btod_ediv) for _btod_ediv
    _printf_fp_dec.o(.text) refers to btod.o(CL$$btod_emul) for _btod_emul
    _printf_fp_dec.o(.text) refers to lludiv10.o(.text) for _ll_udiv10
    _printf_fp_dec.o(.text) refers to fpclassify.o(i.__ARM_fpclassify) for __ARM_fpclassify
    _printf_fp_dec.o(.text) refers to _printf_fp_infnan.o(.text) for _printf_fp_infnan
    _printf_fp_dec.o(.text) refers (Weak) to _printf_pad.o(.text) for _printf_pre_padding
    _printf_fp_dec.o(.text) refers (Weak) to _printf_pad.o(.text) for _printf_pre_padding
    _printf_fp_dec.o(.text) refers to rt_locale_intlibspace.o(.text) for __rt_locale
    _printf_fp_dec.o(.text) refers (Weak) to _printf_pad.o(.text) for _printf_post_padding
    _printf_fp_hex.o(.text) refers (Special) to usenofp.o(x$fpl$usenofp) for __I$use$fp
    _printf_fp_hex.o(.text) refers to fpclassify.o(i.__ARM_fpclassify) for __ARM_fpclassify
    _printf_fp_hex.o(.text) refers to _printf_fp_infnan.o(.text) for _printf_fp_infnan
    _printf_fp_hex.o(.text) refers (Weak) to _printf_pad.o(.text) for _printf_pre_padding
    _printf_fp_hex.o(.text) refers (Weak) to _printf_pad.o(.text) for _printf_pre_padding
    _printf_fp_hex.o(.text) refers (Weak) to _printf_pad.o(.text) for _printf_post_padding
    _printf_fp_hex.o(.text) refers to _printf_fp_hex.o(.constdata) for .constdata
    _printf_fp_hex.o(.constdata) refers (Special) to usenofp.o(x$fpl$usenofp) for __I$use$fp
    _printf_char_common.o(.text) refers to __printf_flags_ss_wp.o(.text) for __printf
    _printf_wctomb.o(.text) refers (Special) to _printf_wchar.o(.text) for _printf_lcs_common
    _printf_wctomb.o(.text) refers to _wcrtomb.o(.text) for _wcrtomb
    _printf_wctomb.o(.text) refers (Weak) to _printf_pad.o(.text) for _printf_pre_padding
    _printf_wctomb.o(.text) refers (Weak) to _printf_pad.o(.text) for _printf_post_padding
    _printf_wctomb.o(.text) refers to _printf_wctomb.o(.constdata) for .constdata
    _printf_wctomb.o(.constdata) refers (Special) to _printf_wchar.o(.text) for _printf_lcs_common
    _printf_longlong_dec.o(.text) refers to lludiv10.o(.text) for _ll_udiv10
    _printf_longlong_dec.o(.text) refers to _printf_intcommon.o(.text) for _printf_int_common
    _printf_oct_ll.o(.text) refers to _printf_intcommon.o(.text) for _printf_int_common
    _printf_oct_int.o(.text) refers (Weak) to _printf_truncate.o(.text) for _printf_truncate_unsigned
    _printf_oct_int.o(.text) refers to _printf_intcommon.o(.text) for _printf_int_common
    _printf_oct_int_ll.o(.text) refers to _printf_intcommon.o(.text) for _printf_int_common
    _printf_oct_int_ll.o(.text) refers (Weak) to _printf_truncate.o(.text) for _printf_truncate_unsigned
    _printf_hex_ll.o(.text) refers to _printf_intcommon.o(.text) for _printf_int_common
    _printf_hex_ll.o(.text) refers to _printf_hex_ll.o(.constdata) for .constdata
    _printf_hex_int.o(.text) refers (Weak) to _printf_truncate.o(.text) for _printf_truncate_unsigned
    _printf_hex_int.o(.text) refers to _printf_intcommon.o(.text) for _printf_int_common
    _printf_hex_int.o(.text) refers to _printf_hex_int.o(.constdata) for .constdata
    _printf_hex_int_ll.o(.text) refers to _printf_intcommon.o(.text) for _printf_int_common
    _printf_hex_int_ll.o(.text) refers (Weak) to _printf_truncate.o(.text) for _printf_truncate_unsigned
    _printf_hex_int_ll.o(.text) refers to _printf_hex_int_ll.o(.constdata) for .constdata
    _printf_hex_ptr.o(.text) refers to _printf_intcommon.o(.text) for _printf_int_common
    _printf_hex_ptr.o(.text) refers to _printf_hex_ptr.o(.constdata) for .constdata
    _printf_hex_int_ptr.o(.text) refers to _printf_intcommon.o(.text) for _printf_int_common
    _printf_hex_int_ptr.o(.text) refers (Weak) to _printf_truncate.o(.text) for _printf_truncate_unsigned
    _printf_hex_int_ptr.o(.text) refers to _printf_hex_int_ptr.o(.constdata) for .constdata
    _printf_hex_ll_ptr.o(.text) refers to _printf_intcommon.o(.text) for _printf_int_common
    _printf_hex_ll_ptr.o(.text) refers to _printf_hex_ll_ptr.o(.constdata) for .constdata
    _printf_hex_int_ll_ptr.o(.text) refers to _printf_intcommon.o(.text) for _printf_int_common
    _printf_hex_int_ll_ptr.o(.text) refers (Weak) to _printf_truncate.o(.text) for _printf_truncate_unsigned
    _printf_hex_int_ll_ptr.o(.text) refers to _printf_hex_int_ll_ptr.o(.constdata) for .constdata
    _printf_c.o(.ARM.Collect$$_printf_percent$$00000013) refers (Weak) to _printf_char.o(.text) for _printf_char
    _printf_s.o(.ARM.Collect$$_printf_percent$$00000014) refers (Weak) to _printf_char.o(.text) for _printf_string
    _printf_n.o(.ARM.Collect$$_printf_percent$$00000001) refers (Weak) to _printf_charcount.o(.text) for _printf_charcount
    _printf_x.o(.ARM.Collect$$_printf_percent$$0000000C) refers (Weak) to _printf_hex_int_ll_ptr.o(.text) for _printf_int_hex
    _printf_p.o(.ARM.Collect$$_printf_percent$$00000002) refers (Weak) to _printf_hex_int_ll_ptr.o(.text) for _printf_hex_ptr
    _printf_o.o(.ARM.Collect$$_printf_percent$$0000000B) refers (Weak) to _printf_oct_int_ll.o(.text) for _printf_int_oct
    _printf_i.o(.ARM.Collect$$_printf_percent$$00000008) refers (Weak) to _printf_dec.o(.text) for _printf_int_dec
    _printf_u.o(.ARM.Collect$$_printf_percent$$0000000A) refers (Weak) to _printf_dec.o(.text) for _printf_int_dec
    _printf_lli.o(.ARM.Collect$$_printf_percent$$0000000D) refers (Special) to _printf_ll.o(.ARM.Collect$$_printf_percent$$00000007) for _printf_ll
    _printf_lli.o(.ARM.Collect$$_printf_percent$$0000000D) refers (Weak) to _printf_longlong_dec.o(.text) for _printf_longlong_dec
    _printf_lld.o(.ARM.Collect$$_printf_percent$$0000000E) refers (Special) to _printf_ll.o(.ARM.Collect$$_printf_percent$$00000007) for _printf_ll
    _printf_lld.o(.ARM.Collect$$_printf_percent$$0000000E) refers (Weak) to _printf_longlong_dec.o(.text) for _printf_longlong_dec
    _printf_llu.o(.ARM.Collect$$_printf_percent$$0000000F) refers (Special) to _printf_ll.o(.ARM.Collect$$_printf_percent$$00000007) for _printf_ll
    _printf_llu.o(.ARM.Collect$$_printf_percent$$0000000F) refers (Weak) to _printf_longlong_dec.o(.text) for _printf_longlong_dec
    _printf_lc.o(.ARM.Collect$$_printf_percent$$00000015) refers (Special) to _printf_l.o(.ARM.Collect$$_printf_percent$$00000012) for _printf_l
    _printf_lc.o(.ARM.Collect$$_printf_percent$$00000015) refers (Weak) to _printf_wchar.o(.text) for _printf_wchar
    _printf_ls.o(.ARM.Collect$$_printf_percent$$00000016) refers (Special) to _printf_l.o(.ARM.Collect$$_printf_percent$$00000012) for _printf_l
    _printf_ls.o(.ARM.Collect$$_printf_percent$$00000016) refers (Weak) to _printf_wchar.o(.text) for _printf_wstring
    _printf_llo.o(.ARM.Collect$$_printf_percent$$00000010) refers (Special) to _printf_ll.o(.ARM.Collect$$_printf_percent$$00000007) for _printf_ll
    _printf_llo.o(.ARM.Collect$$_printf_percent$$00000010) refers (Weak) to _printf_oct_int_ll.o(.text) for _printf_ll_oct
    _printf_llx.o(.ARM.Collect$$_printf_percent$$00000011) refers (Special) to _printf_ll.o(.ARM.Collect$$_printf_percent$$00000007) for _printf_ll
    _printf_llx.o(.ARM.Collect$$_printf_percent$$00000011) refers (Weak) to _printf_hex_int_ll_ptr.o(.text) for _printf_ll_hex
    strtod.o(.text) refers (Special) to lc_numeric_c.o(locale$$code) for _get_lc_numeric
    strtod.o(.text) refers to scanf1.o(x$fpl$scanf1) for _scanf_real
    strtod.o(.text) refers to _sgetc.o(.text) for _sgetc
    strtod.o(.text) refers to isspace.o(.text) for isspace
    strtol.o(.text) refers to rt_ctype_table.o(.text) for __rt_ctype_table
    strtol.o(.text) refers to _strtoul.o(.text) for _strtoul
    strtol.o(.text) refers to rt_errno_addr_intlibspace.o(.text) for __aeabi_errno_addr
    lc_ctype_c.o(locale$$data) refers (Special) to libinit2.o(.ARM.Collect$$libinit$$00000012) for __rt_lib_init_lc_ctype_2
    lc_ctype_c.o(locale$$code) refers (Special) to libinit2.o(.ARM.Collect$$libinit$$00000012) for __rt_lib_init_lc_ctype_2
    lc_ctype_c.o(locale$$code) refers to strcmpv7m.o(.text) for strcmp
    lc_ctype_c.o(locale$$code) refers to lc_ctype_c.o(locale$$data) for __lcctype_c_name
    cxa_finalize.o(.text) refers (Special) to libshutdown2.o(.ARM.Collect$$libshutdown$$00000001) for __rt_lib_shutdown_cpp_2
    cxa_finalize.o(.text) refers to rt_ddtor_pointer_addr_intlibspace.o(.text) for __rt_ddtor_pointer_addr
    cxa_finalize.o(.text) refers to h1_free.o(.text) for free
    cxa_finalize.o(.ARM.exidx) refers (Special) to libshutdown2.o(.ARM.Collect$$libshutdown$$00000001) for __rt_lib_shutdown_cpp_2
    cxa_finalize.o(.ARM.exidx) refers to cxa_finalize.o(.text) for .text
    defsig_pvfn_outer.o(.text) refers to defsig_pvfn_inner.o(.text) for __rt_SIGPVFN_inner
    defsig_pvfn_outer.o(.text) refers to defsig_exit.o(.text) for __sig_exit
    defsig_pvfn_formal.o(.text) refers to rt_raise.o(.text) for __rt_raise
    rt_memmove_w.o(.text) refers to rt_memcpy_w.o(.text) for __aeabi_memcpy4
    _get_argv.o(.text) refers (Special) to hrguard.o(.text) for __heap_region$guard
    _get_argv.o(.text) refers to h1_alloc.o(.text) for malloc
    _get_argv.o(.text) refers to defsig_rtmem_outer.o(.text) for __rt_SIGRTMEM
    _get_argv.o(.text) refers to sys_command.o(.text) for _sys_command_string
    libinit2.o(.ARM.Collect$$libinit$$00000001) refers to fpinit.o(x$fpl$fpinit) for _fp_init
    libinit2.o(.ARM.Collect$$libinit$$00000005) refers (Weak) to init_alloc.o(.text) for _init_alloc
    libinit2.o(.ARM.Collect$$libinit$$0000000D) refers (Weak) to rand.o(.text) for _rand_init
    libinit2.o(.ARM.Collect$$libinit$$0000000F) refers (Weak) to rt_locale_intlibspace.o(.text) for __rt_locale
    libinit2.o(.ARM.Collect$$libinit$$00000010) refers to libinit2.o(.ARM.Collect$$libinit$$0000000F) for .ARM.Collect$$libinit$$0000000F
    libinit2.o(.ARM.Collect$$libinit$$00000012) refers to libinit2.o(.ARM.Collect$$libinit$$0000000F) for .ARM.Collect$$libinit$$0000000F
    libinit2.o(.ARM.Collect$$libinit$$00000012) refers (Weak) to lc_ctype_c.o(locale$$code) for _get_lc_ctype
    libinit2.o(.ARM.Collect$$libinit$$00000014) refers to libinit2.o(.ARM.Collect$$libinit$$0000000F) for .ARM.Collect$$libinit$$0000000F
    libinit2.o(.ARM.Collect$$libinit$$00000016) refers to libinit2.o(.ARM.Collect$$libinit$$0000000F) for .ARM.Collect$$libinit$$0000000F
    libinit2.o(.ARM.Collect$$libinit$$00000016) refers (Weak) to lc_numeric_c.o(locale$$code) for _get_lc_numeric
    libinit2.o(.ARM.Collect$$libinit$$00000018) refers to libinit2.o(.ARM.Collect$$libinit$$0000000F) for .ARM.Collect$$libinit$$0000000F
    libinit2.o(.ARM.Collect$$libinit$$00000026) refers to argv_veneer.o(.emb_text) for __ARM_argv_veneer
    libinit2.o(.ARM.Collect$$libinit$$00000027) refers to argv_veneer.o(.emb_text) for __ARM_argv_veneer
    libinit2.o(.ARM.Collect$$libinit$$00000031) refers (Weak) to init_aeabi.o(.text) for __cpp_initialize__aeabi_
    arm_callunex_noexceptions.o(.ARM.exidx) refers to arm_callunex_noexceptions.o(.text) for .text
    arm_newhandler_noexceptions.o(.text) refers to arm_exceptions_terminate.o(.text) for std::terminate()
    arm_newhandler_noexceptions.o(.ARM.exidx) refers to arm_newhandler_noexceptions.o(.text) for .text
    bad_alloc_dtor.o(i._ZNSt9bad_allocD0Ev) refers to bad_alloc_dtor.o(i._ZNSt9bad_allocD1Ev) for std::bad_alloc::~bad_alloc()
    bad_alloc_dtor.o(i._ZNSt9bad_allocD0Ev) refers to delete.o(i._ZdlPv) for operator delete (void*)
    bad_alloc_dtor.o(.ARM.exidx) refers to bad_alloc_dtor.o(i._ZNSt9bad_allocD1Ev) for i._ZNSt9bad_allocD1Ev
    bad_alloc_dtor.o(.ARM.exidx) refers to bad_alloc_dtor.o(i._ZNSt9bad_allocD0Ev) for i._ZNSt9bad_allocD0Ev
    type_info_dtor.o(.ARM.exidx) refers to type_info_dtor.o(i._ZNSt9type_infoD1Ev) for i._ZNSt9type_infoD1Ev
    type_info_dtor.o(.ARM.exidx) refers to type_info_dtor.o(i._ZNSt9type_infoD0Ev) for i._ZNSt9type_infoD0Ev
    arm_exceptions_callterm.o(.text) refers to arm_exceptions_globs.o(.text) for __cxa_get_globals
    arm_exceptions_callterm.o(.text) refers to arm_exceptions_support.o(.text) for __ARM::is_foreign_exception(_Unwind_Control_Block*)
    arm_exceptions_callterm.o(.text) refers to arm_exceptions_terminate.o(.text) for std::terminate()
    arm_exceptions_callterm.o(.ARM.exidx) refers to arm_exceptions_callterm.o(.text) for .text
    unwind_pr0.o(.text) refers to unwind_prcommon.o(.text) for __ARM_unwind_cpp_prcommon
    unwind_pr0.o(.ARM.exidx) refers to unwind_pr0.o(.text) for .text
    dcmpi.o(x$fpl$dcmpinf) refers (Special) to usenofp.o(x$fpl$usenofp) for __I$use$fp
    dnaninf.o(x$fpl$dnaninf) refers (Special) to usenofp.o(x$fpl$usenofp) for __I$use$fp
    dretinf.o(x$fpl$dretinf) refers (Special) to usenofp.o(x$fpl$usenofp) for __I$use$fp
    fnaninf.o(x$fpl$fnaninf) refers (Special) to usenofp.o(x$fpl$usenofp) for __I$use$fp
    fretinf.o(x$fpl$fretinf) refers (Special) to usenofp.o(x$fpl$usenofp) for __I$use$fp
    sys_command.o(.text) refers (Special) to use_no_semi.o(.text) for __I$use$semihosting
    sys_command.o(.text) refers (Special) to indicate_semi.o(.text) for __semihosting_library_function
    libspace.o(.text) refers to libspace.o(.bss) for __libspace_start
    __rtentry2.o(.ARM.Collect$$rtentry$$00000008) refers to boardinit2.o(.text) for _platform_post_stackheap_init
    __rtentry2.o(.ARM.Collect$$rtentry$$0000000A) refers to libinit.o(.ARM.Collect$$libinit$$00000000) for __rt_lib_init
    __rtentry2.o(.ARM.Collect$$rtentry$$0000000B) refers to boardinit3.o(.text) for _platform_post_lib_init
    __rtentry2.o(.ARM.Collect$$rtentry$$0000000D) refers to main.o(i.main) for main
    __rtentry2.o(.ARM.Collect$$rtentry$$0000000D) refers to exit.o(.text) for exit
    __rtentry2.o(.ARM.exidx) refers to __rtentry2.o(.ARM.Collect$$rtentry$$00000001) for .ARM.Collect$$rtentry$$00000001
    __rtentry2.o(.ARM.exidx) refers to __rtentry2.o(.ARM.Collect$$rtentry$$00000008) for .ARM.Collect$$rtentry$$00000008
    __rtentry2.o(.ARM.exidx) refers to __rtentry2.o(.ARM.Collect$$rtentry$$0000000A) for .ARM.Collect$$rtentry$$0000000A
    __rtentry2.o(.ARM.exidx) refers to __rtentry2.o(.ARM.Collect$$rtentry$$0000000B) for .ARM.Collect$$rtentry$$0000000B
    __rtentry2.o(.ARM.exidx) refers to __rtentry2.o(.ARM.Collect$$rtentry$$0000000D) for .ARM.Collect$$rtentry$$0000000D
    __rtentry4.o(.ARM.Collect$$rtentry$$00000004) refers to sys_stackheap_outer.o(.text) for __user_setup_stackheap
    __rtentry4.o(.ARM.exidx) refers to __rtentry4.o(.ARM.Collect$$rtentry$$00000004) for .ARM.Collect$$rtentry$$00000004
    rt_div0.o(.text) refers to defsig_fpe_outer.o(.text) for __rt_SIGFPE
    rt_raise.o(.text) refers to __raise.o(.text) for __raise
    rt_raise.o(.text) refers to sys_exit.o(.text) for _sys_exit
    maybetermalloc2.o(.emb_text) refers (Special) to term_alloc.o(.text) for _terminate_alloc
    h1_extend.o(.text) refers to h1_free.o(.text) for free
    h1_extend_mt.o(.text) refers to h1_free_mt.o(.text) for _free_internal
    isspace.o(.text) refers to rt_ctype_table.o(.text) for __rt_ctype_table
    _printf_fp_infnan.o(.text) refers (Weak) to _printf_pad.o(.text) for _printf_pre_padding
    _printf_fp_infnan.o(.text) refers (Weak) to _printf_pad.o(.text) for _printf_post_padding
    _printf_char.o(.text) refers (Weak) to _printf_str.o(.text) for _printf_str
    _printf_wchar.o(.text) refers (Weak) to _printf_wctomb.o(.text) for _printf_wctomb
    _strtoul.o(.text) refers to _chval.o(.text) for _chval
    _strtoul.o(.text) refers to rt_errno_addr_intlibspace.o(.text) for __aeabi_errno_addr
    bigflt0.o(.text) refers (Special) to usenofp.o(x$fpl$usenofp) for __I$use$fp
    bigflt0.o(.text) refers to btod.o(CL$$btod_emul) for _btod_emul
    bigflt0.o(.text) refers to btod.o(CL$$btod_ediv) for _btod_ediv
    bigflt0.o(.text) refers to bigflt0.o(.constdata) for .constdata
    bigflt0.o(.constdata) refers (Special) to usenofp.o(x$fpl$usenofp) for __I$use$fp
    btod.o(CL$$btod_d2e) refers (Special) to usenofp.o(x$fpl$usenofp) for __I$use$fp
    btod.o(CL$$btod_d2e) refers to btod.o(CL$$btod_d2e_norm_op1) for _d2e_norm_op1
    btod.o(CL$$btod_d2e_norm_op1) refers (Special) to usenofp.o(x$fpl$usenofp) for __I$use$fp
    btod.o(CL$$btod_d2e_norm_op1) refers to btod.o(CL$$btod_d2e_denorm_low) for _d2e_denorm_low
    btod.o(CL$$btod_d2e_denorm_low) refers (Special) to usenofp.o(x$fpl$usenofp) for __I$use$fp
    btod.o(CL$$btod_emul) refers (Special) to usenofp.o(x$fpl$usenofp) for __I$use$fp
    btod.o(CL$$btod_emul) refers to btod.o(CL$$btod_mult_common) for __btod_mult_common
    btod.o(CL$$btod_emul) refers to btod.o(CL$$btod_e2e) for _e2e
    btod.o(CL$$btod_ediv) refers (Special) to usenofp.o(x$fpl$usenofp) for __I$use$fp
    btod.o(CL$$btod_ediv) refers to btod.o(CL$$btod_div_common) for __btod_div_common
    btod.o(CL$$btod_ediv) refers to btod.o(CL$$btod_e2e) for _e2e
    btod.o(CL$$btod_emuld) refers (Special) to usenofp.o(x$fpl$usenofp) for __I$use$fp
    btod.o(CL$$btod_emuld) refers to btod.o(CL$$btod_mult_common) for __btod_mult_common
    btod.o(CL$$btod_emuld) refers to btod.o(CL$$btod_e2d) for _e2d
    btod.o(CL$$btod_edivd) refers (Special) to usenofp.o(x$fpl$usenofp) for __I$use$fp
    btod.o(CL$$btod_edivd) refers to btod.o(CL$$btod_div_common) for __btod_div_common
    btod.o(CL$$btod_edivd) refers to btod.o(CL$$btod_e2d) for _e2d
    btod.o(CL$$btod_e2e) refers (Special) to usenofp.o(x$fpl$usenofp) for __I$use$fp
    btod.o(CL$$btod_e2d) refers (Special) to usenofp.o(x$fpl$usenofp) for __I$use$fp
    btod.o(CL$$btod_e2d) refers to btod.o(CL$$btod_e2e) for _e2e
    btod.o(CL$$btod_mult_common) refers (Special) to usenofp.o(x$fpl$usenofp) for __I$use$fp
    btod.o(CL$$btod_div_common) refers (Special) to usenofp.o(x$fpl$usenofp) for __I$use$fp
    _wcrtomb.o(.text) refers to rt_ctype_table.o(.text) for __rt_ctype_table
    lc_numeric_c.o(locale$$data) refers (Special) to libinit2.o(.ARM.Collect$$libinit$$00000016) for __rt_lib_init_lc_numeric_2
    lc_numeric_c.o(locale$$code) refers (Special) to libinit2.o(.ARM.Collect$$libinit$$00000016) for __rt_lib_init_lc_numeric_2
    lc_numeric_c.o(locale$$code) refers to strcmpv7m.o(.text) for strcmp
    lc_numeric_c.o(locale$$code) refers to lc_numeric_c.o(locale$$data) for __lcnum_c_name
    defsig_exit.o(.text) refers to sys_exit.o(.text) for _sys_exit
    defsig_rtmem_outer.o(.text) refers to defsig_rtmem_inner.o(.text) for __rt_SIGRTMEM_inner
    defsig_rtmem_outer.o(.text) refers to defsig_exit.o(.text) for __sig_exit
    defsig_rtmem_formal.o(.text) refers to rt_raise.o(.text) for __rt_raise
    defsig_pvfn_inner.o(.text) refers to defsig_general.o(.text) for __default_signal_display
    heapauxa.o(.text) refers to heapauxa.o(.data) for .data
    argv_veneer.o(.emb_text) refers to no_argv.o(.text) for __ARM_get_argv
    libshutdown2.o(.ARM.Collect$$libshutdown$$00000001) refers (Weak) to cxa_finalize.o(.text) for __cxa_finalize
    libshutdown2.o(.ARM.Collect$$libshutdown$$0000000D) refers (Weak) to term_alloc.o(.text) for _terminate_alloc
    arm_begincatch_noexceptions.o(.ARM.exidx) refers to arm_begincatch_noexceptions.o(.text) for .text
    bad_alloc_what.o(.ARM.exidx) refers to bad_alloc_what.o(i._ZNKSt9bad_alloc4whatEv) for i._ZNKSt9bad_alloc4whatEv
    exception_dtor.o(i._ZNSt9exceptionD0Ev) refers to delete.o(i._ZdlPv) for operator delete (void*)
    exception_dtor.o(.ARM.exidx) refers to exception_dtor.o(i._ZNSt9exceptionD1Ev) for i._ZNSt9exceptionD1Ev
    exception_dtor.o(.ARM.exidx) refers to exception_dtor.o(i._ZNSt9exceptionD0Ev) for i._ZNSt9exceptionD0Ev
    arm_exceptions_terminate.o(.text) refers to arm_exceptions_globs.o(.text) for __cxa_get_globals
    arm_exceptions_terminate.o(.text) refers to abort.o(.text) for abort
    arm_exceptions_terminate.o(.ARM.exidx) refers to arm_exceptions_terminate.o(.text) for .text
    arm_exceptions_support.o(.text) refers to arm_exceptions_support.o(.constdata) for .constdata
    arm_exceptions_support.o(.ARM.exidx) refers to arm_exceptions_support.o(.text) for .text
    arm_exceptions_globs.o(.text) refers to abort.o(.text) for abort
    arm_exceptions_globs.o(.text) refers to rt_eh_globals_addr_intlibspace.o(.text) for __rt_eh_globals_addr
    arm_exceptions_globs.o(.text) refers to h1_alloc.o(.text) for malloc
    arm_exceptions_globs.o(.text) refers to arm_exceptions_mem.o(.text) for __ARM_exceptions_buffer_init
    arm_exceptions_globs.o(.ARM.exidx) refers to arm_exceptions_globs.o(.text) for .text
    unwind_prcommon.o(.text) refers to unwinder.o(.text) for _Unwind_VRS_Get
    unwind_prcommon.o(.text) refers to unwind_activity.o(.emb_text) for _Unwind_Activity
    unwind_prcommon.o(.text) refers (Weak) to arm_callunex_noexceptions.o(.text) for __cxa_call_unexpected
    unwind_prcommon.o(.ARM.exidx) refers to unwind_prcommon.o(.text) for .text
    istatus.o(x$fpl$ieeestatus) refers (Special) to usenofp.o(x$fpl$usenofp) for __I$use$fp
    scanf1.o(x$fpl$scanf1) refers to scanf_fp.o(.text) for _scanf_really_real
    fpclassify.o(i.__ARM_fpclassify) refers (Special) to usenofp.o(x$fpl$usenofp) for __I$use$fp
    sys_exit.o(.text) refers (Special) to use_no_semi.o(.text) for __I$use$semihosting
    sys_exit.o(.text) refers (Special) to indicate_semi.o(.text) for __semihosting_library_function
    sys_stackheap_outer.o(.text) refers to libspace.o(.text) for __user_perproc_libspace
    sys_stackheap_outer.o(.text) refers to startup_stm32f40_41xxx.o(.text) for __user_initial_stackheap
    rt_eh_globals_addr.o(.text) refers to rt_eh_globals_addr.o(.bss) for __rt_eh_globals_addr_data
    rt_eh_globals_addr_intlibspace.o(.text) refers to libspace.o(.bss) for __libspace_start
    term_alloc.o(.text) refers (Special) to libshutdown2.o(.ARM.Collect$$libshutdown$$0000000E) for __rt_lib_shutdown_heap_2
    term_alloc.o(.text) refers to rt_heap_descriptor_intlibspace.o(.text) for __rt_heap_descriptor
    term_alloc.o(.text) refers to h1_final.o(.text) for __Heap_Finalize
    scanf_fp.o(.text) refers (Special) to usenofp.o(x$fpl$usenofp) for __I$use$fp
    scanf_fp.o(.text) refers (Special) to lc_numeric_c.o(locale$$code) for _get_lc_numeric
    scanf_fp.o(.text) refers to rt_errno_addr_intlibspace.o(.text) for __aeabi_errno_addr
    scanf_fp.o(.text) refers to istatus.o(x$fpl$ieeestatus) for __ieee_status
    scanf_fp.o(.text) refers to bigflt0.o(.text) for _btod_etento
    scanf_fp.o(.text) refers to btod.o(CL$$btod_emuld) for _btod_emuld
    scanf_fp.o(.text) refers to btod.o(CL$$btod_edivd) for _btod_edivd
    scanf_fp.o(.text) refers to rt_locale_intlibspace.o(.text) for __rt_locale
    scanf_fp.o(.text) refers to scanf2.o(x$fpl$scanf2) for _scanf_infnan
    scanf_fp.o(.text) refers to __printf_wp.o(i._is_digit) for _is_digit
    scanf_fp.o(.text) refers to fpconst.o(c$$dmax) for __dbl_max
    scanf_fp.o(.text) refers to fpconst.o(c$$dinf) for __huge_val
    scanf_fp.o(.text) refers to narrow.o(i.__mathlib_narrow) for __mathlib_narrow
    exit.o(.text) refers to rtexit.o(.ARM.Collect$$rtexit$$00000000) for __rt_exit
    abort.o(.text) refers to defsig_abrt_outer.o(.text) for __rt_SIGABRT
    abort.o(.text) refers (Weak) to libshutdown.o(.ARM.Collect$$libshutdown$$00000000) for __rt_lib_shutdown
    abort.o(.text) refers to sys_exit.o(.text) for _sys_exit
    __raise.o(.text) refers to defsig.o(CL$$defsig) for __default_signal_handler
    defsig_general.o(.text) refers to sys_wrch.o(.text) for _ttywrch
    defsig_fpe_outer.o(.text) refers to defsig_fpe_inner.o(.text) for __rt_SIGFPE_inner
    defsig_fpe_outer.o(.text) refers to defsig_exit.o(.text) for __sig_exit
    defsig_fpe_formal.o(.text) refers to rt_raise.o(.text) for __rt_raise
    defsig_rtmem_inner.o(.text) refers to defsig_general.o(.text) for __default_signal_display
    _get_argv_nomalloc.o(.text) refers (Special) to hrguard.o(.text) for __heap_region$guard
    _get_argv_nomalloc.o(.text) refers to defsig_rtmem_outer.o(.text) for __rt_SIGRTMEM
    _get_argv_nomalloc.o(.text) refers to sys_command.o(.text) for _sys_command_string
    libinit.o(.ARM.Collect$$libinit$$00000000) refers (Special) to libinit2.o(.ARM.Collect$$libinit$$0000002E) for __rt_lib_init_alloca_1
    libinit.o(.ARM.Collect$$libinit$$00000000) refers (Special) to libinit2.o(.ARM.Collect$$libinit$$0000002C) for __rt_lib_init_argv_1
    libinit.o(.ARM.Collect$$libinit$$00000000) refers (Special) to libinit2.o(.ARM.Collect$$libinit$$0000001B) for __rt_lib_init_atexit_1
    libinit.o(.ARM.Collect$$libinit$$00000000) refers (Special) to libinit2.o(.ARM.Collect$$libinit$$00000021) for __rt_lib_init_clock_1
    libinit.o(.ARM.Collect$$libinit$$00000000) refers (Special) to libinit2.o(.ARM.Collect$$libinit$$00000032) for __rt_lib_init_cpp_1
    libinit.o(.ARM.Collect$$libinit$$00000000) refers (Special) to libinit2.o(.ARM.Collect$$libinit$$00000030) for __rt_lib_init_exceptions_1
    libinit.o(.ARM.Collect$$libinit$$00000000) refers (Special) to libinit2.o(.ARM.Collect$$libinit$$00000001) for __rt_lib_init_fp_1
    libinit.o(.ARM.Collect$$libinit$$00000000) refers (Special) to libinit2.o(.ARM.Collect$$libinit$$0000001F) for __rt_lib_init_fp_trap_1
    libinit.o(.ARM.Collect$$libinit$$00000000) refers (Special) to libinit2.o(.ARM.Collect$$libinit$$00000023) for __rt_lib_init_getenv_1
    libinit.o(.ARM.Collect$$libinit$$00000000) refers (Special) to libinit2.o(.ARM.Collect$$libinit$$0000000A) for __rt_lib_init_heap_1
    libinit.o(.ARM.Collect$$libinit$$00000000) refers (Special) to libinit2.o(.ARM.Collect$$libinit$$00000011) for __rt_lib_init_lc_collate_1
    libinit.o(.ARM.Collect$$libinit$$00000000) refers (Special) to libinit2.o(.ARM.Collect$$libinit$$00000013) for __rt_lib_init_lc_ctype_1
    libinit.o(.ARM.Collect$$libinit$$00000000) refers (Special) to libinit2.o(.ARM.Collect$$libinit$$00000015) for __rt_lib_init_lc_monetary_1
    libinit.o(.ARM.Collect$$libinit$$00000000) refers (Special) to libinit2.o(.ARM.Collect$$libinit$$00000017) for __rt_lib_init_lc_numeric_1
    libinit.o(.ARM.Collect$$libinit$$00000000) refers (Special) to libinit2.o(.ARM.Collect$$libinit$$00000019) for __rt_lib_init_lc_time_1
    libinit.o(.ARM.Collect$$libinit$$00000000) refers (Special) to libinit2.o(.ARM.Collect$$libinit$$00000004) for __rt_lib_init_preinit_1
    libinit.o(.ARM.Collect$$libinit$$00000000) refers (Special) to libinit2.o(.ARM.Collect$$libinit$$0000000E) for __rt_lib_init_rand_1
    libinit.o(.ARM.Collect$$libinit$$00000000) refers (Special) to libinit2.o(.ARM.Collect$$libinit$$00000033) for __rt_lib_init_return
    libinit.o(.ARM.Collect$$libinit$$00000000) refers (Special) to libinit2.o(.ARM.Collect$$libinit$$0000001D) for __rt_lib_init_signal_1
    libinit.o(.ARM.Collect$$libinit$$00000000) refers (Special) to libinit2.o(.ARM.Collect$$libinit$$00000025) for __rt_lib_init_stdio_1
    libinit.o(.ARM.Collect$$libinit$$00000000) refers (Special) to libinit2.o(.ARM.Collect$$libinit$$0000000C) for __rt_lib_init_user_alloc_1
    exception_what.o(.ARM.exidx) refers to exception_what.o(i._ZNKSt9exception4whatEv) for i._ZNKSt9exception4whatEv
    arm_exceptions_mem.o(.text) refers to h1_alloc.o(.text) for malloc
    arm_exceptions_mem.o(.ARM.exidx) refers to arm_exceptions_mem.o(.text) for .text
    unwinder.o(.emb_text) refers to unwinder.o(.text) for __ARM_Unwind_RaiseException
    unwinder.o(.text) refers to bsearchnoex.o(.text) for bsearch
    unwinder.o(.text) refers to unwind_activity.o(.emb_text) for _Unwind_Activity
    unwinder.o(.text) refers to abort.o(.text) for abort
    unwinder.o(.text) refers to unwinder.o(.emb_text) for __ARM_Unwind_VRS_corerestore
    unwinder.o(.text) refers to h1_alloc.o(.text) for malloc
    unwinder.o(.text) refers to rt_memcpy_w.o(.text) for __aeabi_memcpy4
    unwinder.o(.text) refers to h1_free.o(.text) for free
    unwinder.o(.text) refers (Weak) to unwind_pr0.o(.text) for __aeabi_unwind_cpp_pr0
    unwinder.o(.ARM.exidx) refers to unwinder.o(.text) for .text
    sys_wrch.o(.text) refers (Special) to use_no_semi.o(.text) for __I$use$semihosting
    sys_wrch.o(.text) refers (Special) to indicate_semi.o(.text) for __semihosting_library_function
    rtexit.o(.ARM.Collect$$rtexit$$00000000) refers (Special) to rtexit2.o(.ARM.Collect$$rtexit$$00000004) for __rt_exit_exit
    rtexit.o(.ARM.Collect$$rtexit$$00000000) refers (Special) to rtexit2.o(.ARM.Collect$$rtexit$$00000003) for __rt_exit_ls
    rtexit.o(.ARM.Collect$$rtexit$$00000000) refers (Special) to rtexit2.o(.ARM.Collect$$rtexit$$00000002) for __rt_exit_prels_1
    rtexit.o(.ARM.exidx) refers (Special) to rtexit2.o(.ARM.Collect$$rtexit$$00000004) for __rt_exit_exit
    rtexit.o(.ARM.exidx) refers (Special) to rtexit2.o(.ARM.Collect$$rtexit$$00000003) for __rt_exit_ls
    rtexit.o(.ARM.exidx) refers (Special) to rtexit2.o(.ARM.Collect$$rtexit$$00000002) for __rt_exit_prels_1
    rtexit.o(.ARM.exidx) refers to rtexit.o(.ARM.Collect$$rtexit$$00000000) for .ARM.Collect$$rtexit$$00000000
    defsig_abrt_outer.o(.text) refers to defsig_abrt_inner.o(.text) for __rt_SIGABRT_inner
    defsig_abrt_outer.o(.text) refers to defsig_exit.o(.text) for __sig_exit
    defsig_abrt_formal.o(.text) refers to rt_raise.o(.text) for __rt_raise
    defsig_fpe_inner.o(.text) refers to defsig_general.o(.text) for __default_signal_display
    defsig.o(CL$$defsig) refers to defsig_abrt_inner.o(.text) for __rt_SIGABRT_inner
    defsig.o(CL$$defsig) refers to defsig_fpe_inner.o(.text) for __rt_SIGFPE_inner
    defsig.o(CL$$defsig) refers to defsig_rtmem_inner.o(.text) for __rt_SIGRTMEM_inner
    defsig.o(CL$$defsig) refers to defsig_pvfn_inner.o(.text) for __rt_SIGPVFN_inner
    fpconst.o(c$$dinf) refers (Special) to usenofp.o(x$fpl$usenofp) for __I$use$fp
    fpconst.o(c$$dnan) refers (Special) to usenofp.o(x$fpl$usenofp) for __I$use$fp
    fpconst.o(c$$finf) refers (Special) to usenofp.o(x$fpl$usenofp) for __I$use$fp
    fpconst.o(c$$dmax) refers (Special) to usenofp.o(x$fpl$usenofp) for __I$use$fp
    scanf2.o(x$fpl$scanf2) refers to scanf_hexfp.o(.text) for _scanf_really_hex_real
    scanf2.o(x$fpl$scanf2) refers to scanf_infnan.o(.text) for _scanf_really_infnan
    scanf2b.o(x$fpl$scanf2) refers to scanf_hexfp.o(.text) for _scanf_really_hex_real
    scanf2b.o(x$fpl$scanf2) refers to scanf_infnan.o(.text) for _scanf_really_infnan
    narrow.o(i.__hardfp___mathlib_tofloat) refers (Special) to usenofp.o(x$fpl$usenofp) for __I$use$fp
    narrow.o(i.__hardfp___mathlib_tofloat) refers to frexp.o(i.frexp) for frexp
    narrow.o(i.__hardfp___mathlib_tofloat) refers to deqf.o(x$fpl$deqf) for __aeabi_cdcmpeq
    narrow.o(i.__hardfp___mathlib_tofloat) refers to d2f.o(x$fpl$d2f) for __aeabi_d2f
    narrow.o(i.__hardfp___mathlib_tofloat) refers to _rserrno.o(.text) for __set_errno
    narrow.o(i.__hardfp___mathlib_tofloat) refers to drleqf.o(x$fpl$drleqf) for __aeabi_cdrcmple
    narrow.o(i.__mathlib_narrow) refers (Special) to usenofp.o(x$fpl$usenofp) for __I$use$fp
    narrow.o(i.__mathlib_narrow) refers to narrow.o(i.__hardfp___mathlib_tofloat) for __hardfp___mathlib_tofloat
    narrow.o(i.__mathlib_tofloat) refers (Special) to usenofp.o(x$fpl$usenofp) for __I$use$fp
    narrow.o(i.__mathlib_tofloat) refers to narrow.o(i.__hardfp___mathlib_tofloat) for __hardfp___mathlib_tofloat
    narrow.o(i.__softfp___mathlib_tofloat) refers (Special) to usenofp.o(x$fpl$usenofp) for __I$use$fp
    narrow.o(i.__softfp___mathlib_tofloat) refers to narrow.o(i.__hardfp___mathlib_tofloat) for __hardfp___mathlib_tofloat
    rtexit2.o(.ARM.Collect$$rtexit$$00000003) refers to libshutdown.o(.ARM.Collect$$libshutdown$$00000000) for __rt_lib_shutdown
    rtexit2.o(.ARM.Collect$$rtexit$$00000004) refers to sys_exit.o(.text) for _sys_exit
    rtexit2.o(.ARM.exidx) refers to rtexit2.o(.ARM.Collect$$rtexit$$00000001) for .ARM.Collect$$rtexit$$00000001
    rtexit2.o(.ARM.exidx) refers to rtexit2.o(.ARM.Collect$$rtexit$$00000003) for .ARM.Collect$$rtexit$$00000003
    rtexit2.o(.ARM.exidx) refers to rtexit2.o(.ARM.Collect$$rtexit$$00000004) for .ARM.Collect$$rtexit$$00000004
    scanf_hexfp.o(.text) refers to _chval.o(.text) for _chval
    scanf_hexfp.o(.text) refers to llshl.o(.text) for __aeabi_llsl
    scanf_hexfp.o(.text) refers to ldexp.o(i.__support_ldexp) for __support_ldexp
    scanf_hexfp.o(.text) refers to narrow.o(i.__mathlib_narrow) for __mathlib_narrow
    defsig_abrt_inner.o(.text) refers to defsig_general.o(.text) for __default_signal_display
    defsig_rtred_inner.o(.text) refers to defsig_general.o(.text) for __default_signal_display
    defsig_stak_inner.o(.text) refers to defsig_general.o(.text) for __default_signal_display
    defsig_cppl_inner.o(.text) refers to defsig_general.o(.text) for __default_signal_display
    defsig_segv_inner.o(.text) refers to defsig_general.o(.text) for __default_signal_display
    defsig_other.o(.text) refers to defsig_general.o(.text) for __default_signal_display
    deqf.o(x$fpl$deqf) refers (Special) to usenofp.o(x$fpl$usenofp) for __I$use$fp
    deqf.o(x$fpl$deqf) refers to dnaninf.o(x$fpl$dnaninf) for __fpl_dnaninf
    deqf.o(x$fpl$deqf) refers to dcmpi.o(x$fpl$dcmpinf) for __fpl_dcmp_Inf
    frexp.o(i.__hardfp_frexp) refers (Special) to usenofp.o(x$fpl$usenofp) for __I$use$fp
    frexp.o(i.__hardfp_frexp) refers to dmul.o(x$fpl$dmul) for __aeabi_dmul
    frexp.o(i.__softfp_frexp) refers (Special) to usenofp.o(x$fpl$usenofp) for __I$use$fp
    frexp.o(i.__softfp_frexp) refers to dmul.o(x$fpl$dmul) for __aeabi_dmul
    frexp.o(i.frexp) refers (Special) to usenofp.o(x$fpl$usenofp) for __I$use$fp
    frexp.o(i.frexp) refers to dmul.o(x$fpl$dmul) for __aeabi_dmul
    libshutdown.o(.ARM.Collect$$libshutdown$$00000000) refers (Special) to libshutdown2.o(.ARM.Collect$$libshutdown$$00000002) for __rt_lib_shutdown_cpp_1
    libshutdown.o(.ARM.Collect$$libshutdown$$00000000) refers (Special) to libshutdown2.o(.ARM.Collect$$libshutdown$$00000007) for __rt_lib_shutdown_fp_trap_1
    libshutdown.o(.ARM.Collect$$libshutdown$$00000000) refers (Special) to libshutdown2.o(.ARM.Collect$$libshutdown$$0000000F) for __rt_lib_shutdown_heap_1
    libshutdown.o(.ARM.Collect$$libshutdown$$00000000) refers (Special) to libshutdown2.o(.ARM.Collect$$libshutdown$$00000010) for __rt_lib_shutdown_return
    libshutdown.o(.ARM.Collect$$libshutdown$$00000000) refers (Special) to libshutdown2.o(.ARM.Collect$$libshutdown$$0000000A) for __rt_lib_shutdown_signal_1
    libshutdown.o(.ARM.Collect$$libshutdown$$00000000) refers (Special) to libshutdown2.o(.ARM.Collect$$libshutdown$$00000004) for __rt_lib_shutdown_stdio_1
    libshutdown.o(.ARM.Collect$$libshutdown$$00000000) refers (Special) to libshutdown2.o(.ARM.Collect$$libshutdown$$0000000C) for __rt_lib_shutdown_user_alloc_1
    ldexp.o(i.__hardfp_ldexp) refers (Special) to usenofp.o(x$fpl$usenofp) for __I$use$fp
    ldexp.o(i.__hardfp_ldexp) refers to deqf.o(x$fpl$deqf) for __aeabi_cdcmpeq
    ldexp.o(i.__hardfp_ldexp) refers to scalbn.o(x$fpl$scalbn) for __ARM_scalbn
    ldexp.o(i.__hardfp_ldexp) refers to _rserrno.o(.text) for __set_errno
    ldexp.o(i.__hardfp_ldexp) refers to dunder.o(i.__mathlib_dbl_underflow) for __mathlib_dbl_underflow
    ldexp.o(i.__hardfp_ldexp) refers to dunder.o(i.__mathlib_dbl_overflow) for __mathlib_dbl_overflow
    ldexp.o(i.__softfp_ldexp) refers (Special) to usenofp.o(x$fpl$usenofp) for __I$use$fp
    ldexp.o(i.__softfp_ldexp) refers to ldexp.o(i.__hardfp_ldexp) for __hardfp_ldexp
    ldexp.o(i.__support_ldexp) refers (Special) to usenofp.o(x$fpl$usenofp) for __I$use$fp
    ldexp.o(i.__support_ldexp) refers to ldexp.o(i.__hardfp_ldexp) for __hardfp_ldexp
    ldexp.o(i.ldexp) refers (Special) to usenofp.o(x$fpl$usenofp) for __I$use$fp
    ldexp.o(i.ldexp) refers to ldexp.o(i.__hardfp_ldexp) for __hardfp_ldexp
    ldexp_x.o(i.____hardfp_ldexp$lsc) refers (Special) to usenofp.o(x$fpl$usenofp) for __I$use$fp
    ldexp_x.o(i.____hardfp_ldexp$lsc) refers to deqf.o(x$fpl$deqf) for __aeabi_cdcmpeq
    ldexp_x.o(i.____hardfp_ldexp$lsc) refers to scalbn.o(x$fpl$scalbn) for __ARM_scalbn
    ldexp_x.o(i.____hardfp_ldexp$lsc) refers to _rserrno.o(.text) for __set_errno
    ldexp_x.o(i.____hardfp_ldexp$lsc) refers to qnan.o(.constdata) for __mathlib_zero
    ldexp_x.o(i.____softfp_ldexp$lsc) refers (Special) to usenofp.o(x$fpl$usenofp) for __I$use$fp
    ldexp_x.o(i.____softfp_ldexp$lsc) refers to ldexp_x.o(i.____hardfp_ldexp$lsc) for ____hardfp_ldexp$lsc
    ldexp_x.o(i.____support_ldexp$lsc) refers (Special) to usenofp.o(x$fpl$usenofp) for __I$use$fp
    ldexp_x.o(i.____support_ldexp$lsc) refers to ldexp_x.o(i.____hardfp_ldexp$lsc) for ____hardfp_ldexp$lsc
    ldexp_x.o(i.__ldexp$lsc) refers (Special) to usenofp.o(x$fpl$usenofp) for __I$use$fp
    ldexp_x.o(i.__ldexp$lsc) refers to ldexp_x.o(i.____hardfp_ldexp$lsc) for ____hardfp_ldexp$lsc
    scalbn.o(x$fpl$scalbn) refers (Special) to usenofp.o(x$fpl$usenofp) for __I$use$fp
    scalbn.o(x$fpl$scalbn) refers to dcheck1.o(x$fpl$dcheck1) for __fpl_dcheck_NaN1
    dunder.o(i.__mathlib_dbl_divzero) refers to ddiv.o(x$fpl$ddiv) for __aeabi_ddiv
    dunder.o(i.__mathlib_dbl_infnan) refers to daddsub_clz.o(x$fpl$dadd) for __aeabi_dadd
    dunder.o(i.__mathlib_dbl_infnan2) refers to daddsub_clz.o(x$fpl$dadd) for __aeabi_dadd
    dunder.o(i.__mathlib_dbl_invalid) refers to ddiv.o(x$fpl$ddiv) for __aeabi_ddiv
    dunder.o(i.__mathlib_dbl_overflow) refers to dmul.o(x$fpl$dmul) for __aeabi_dmul
    dunder.o(i.__mathlib_dbl_posinfnan) refers to dmul.o(x$fpl$dmul) for __aeabi_dmul
    dunder.o(i.__mathlib_dbl_underflow) refers to dmul.o(x$fpl$dmul) for __aeabi_dmul
    qnan.o(.constdata) refers (Special) to usenofp.o(x$fpl$usenofp) for __I$use$fp
    dcheck1.o(x$fpl$dcheck1) refers (Special) to usenofp.o(x$fpl$usenofp) for __I$use$fp
    dcheck1.o(x$fpl$dcheck1) refers to retnan.o(x$fpl$retnan) for __fpl_return_NaN
    retnan.o(x$fpl$retnan) refers (Special) to usenofp.o(x$fpl$usenofp) for __I$use$fp
    retnan.o(x$fpl$retnan) refers to trapv.o(x$fpl$trapveneer) for __fpl_cmpreturn
    trapv.o(x$fpl$trapveneer) refers (Special) to usenofp.o(x$fpl$usenofp) for __I$use$fp
    adafruit_gfx.o(.constdata__ZTV12Adafruit_GFX) refers to adafruit_gfx.o(.constdata__ZTI12Adafruit_GFX) for typeinfo for Adafruit_GFX
    adafruit_gfx.o(.constdata__ZTV12Adafruit_GFX) refers to adafruit_gfx.o(i._ZN12Adafruit_GFX5writeEh) for Adafruit_GFX::write(unsigned char)
    adafruit_gfx.o(.constdata__ZTV12Adafruit_GFX) refers to print.o(i._ZN5Print5writeEPKc) for Print::write(const char*)
    adafruit_gfx.o(.constdata__ZTV12Adafruit_GFX) refers to print.o(i._ZN5Print5writeEPKvj) for Print::write(const void*, unsigned)
    adafruit_gfx.o(.constdata__ZTV12Adafruit_GFX) refers to pure_virt.o(i.__cxa_pure_virtual) for __cxa_pure_virtual
    adafruit_gfx.o(.constdata__ZTV12Adafruit_GFX) refers to adafruit_gfx.o(i._ZN12Adafruit_GFX10startWriteEv) for Adafruit_GFX::startWrite()
    adafruit_gfx.o(.constdata__ZTV12Adafruit_GFX) refers to adafruit_gfx.o(i._ZN12Adafruit_GFX10writePixelEsst) for Adafruit_GFX::writePixel(short, short, unsigned short)
    adafruit_gfx.o(.constdata__ZTV12Adafruit_GFX) refers to adafruit_gfx.o(i._ZN12Adafruit_GFX13writeFillRectEsssst) for Adafruit_GFX::writeFillRect(short, short, short, short, unsigned short)
    adafruit_gfx.o(.constdata__ZTV12Adafruit_GFX) refers to adafruit_gfx.o(i._ZN12Adafruit_GFX14writeFastVLineEssst) for Adafruit_GFX::writeFastVLine(short, short, short, unsigned short)
    adafruit_gfx.o(.constdata__ZTV12Adafruit_GFX) refers to adafruit_gfx.o(i._ZN12Adafruit_GFX14writeFastHLineEssst) for Adafruit_GFX::writeFastHLine(short, short, short, unsigned short)
    adafruit_gfx.o(.constdata__ZTV12Adafruit_GFX) refers to adafruit_gfx.o(i._ZN12Adafruit_GFX9writeLineEsssst) for Adafruit_GFX::writeLine(short, short, short, short, unsigned short)
    adafruit_gfx.o(.constdata__ZTV12Adafruit_GFX) refers to adafruit_gfx.o(i._ZN12Adafruit_GFX8endWriteEv) for Adafruit_GFX::endWrite()
    adafruit_gfx.o(.constdata__ZTV12Adafruit_GFX) refers to adafruit_gfx.o(i._ZN12Adafruit_GFX11setRotationEh) for Adafruit_GFX::setRotation(unsigned char)
    adafruit_gfx.o(.constdata__ZTV12Adafruit_GFX) refers to adafruit_gfx.o(i._ZN12Adafruit_GFX13invertDisplayEb) for Adafruit_GFX::invertDisplay(bool)
    adafruit_gfx.o(.constdata__ZTV12Adafruit_GFX) refers to adafruit_gfx.o(i._ZN12Adafruit_GFX13drawFastVLineEssst) for Adafruit_GFX::drawFastVLine(short, short, short, unsigned short)
    adafruit_gfx.o(.constdata__ZTV12Adafruit_GFX) refers to adafruit_gfx.o(i._ZN12Adafruit_GFX13drawFastHLineEssst) for Adafruit_GFX::drawFastHLine(short, short, short, unsigned short)
    adafruit_gfx.o(.constdata__ZTV12Adafruit_GFX) refers to adafruit_gfx.o(i._ZN12Adafruit_GFX8fillRectEsssst) for Adafruit_GFX::fillRect(short, short, short, short, unsigned short)
    adafruit_gfx.o(.constdata__ZTV12Adafruit_GFX) refers to adafruit_gfx.o(i._ZN12Adafruit_GFX10fillScreenEt) for Adafruit_GFX::fillScreen(unsigned short)
    adafruit_gfx.o(.constdata__ZTV12Adafruit_GFX) refers to adafruit_gfx.o(i._ZN12Adafruit_GFX8drawLineEsssst) for Adafruit_GFX::drawLine(short, short, short, short, unsigned short)
    adafruit_gfx.o(.constdata__ZTV12Adafruit_GFX) refers to adafruit_gfx.o(i._ZN12Adafruit_GFX8drawRectEsssst) for Adafruit_GFX::drawRect(short, short, short, short, unsigned short)
    adafruit_gfx.o(.constdata__ZTV10GFXcanvas1) refers to adafruit_gfx.o(.constdata__ZTI10GFXcanvas1) for typeinfo for GFXcanvas1
    adafruit_gfx.o(.constdata__ZTV10GFXcanvas1) refers to adafruit_gfx.o(i._ZN12Adafruit_GFX5writeEh) for Adafruit_GFX::write(unsigned char)
    adafruit_gfx.o(.constdata__ZTV10GFXcanvas1) refers to print.o(i._ZN5Print5writeEPKc) for Print::write(const char*)
    adafruit_gfx.o(.constdata__ZTV10GFXcanvas1) refers to print.o(i._ZN5Print5writeEPKvj) for Print::write(const void*, unsigned)
    adafruit_gfx.o(.constdata__ZTV10GFXcanvas1) refers to adafruit_gfx.o(i._ZN10GFXcanvas19drawPixelEsst) for GFXcanvas1::drawPixel(short, short, unsigned short)
    adafruit_gfx.o(.constdata__ZTV10GFXcanvas1) refers to adafruit_gfx.o(i._ZN12Adafruit_GFX10startWriteEv) for Adafruit_GFX::startWrite()
    adafruit_gfx.o(.constdata__ZTV10GFXcanvas1) refers to adafruit_gfx.o(i._ZN12Adafruit_GFX10writePixelEsst) for Adafruit_GFX::writePixel(short, short, unsigned short)
    adafruit_gfx.o(.constdata__ZTV10GFXcanvas1) refers to adafruit_gfx.o(i._ZN12Adafruit_GFX13writeFillRectEsssst) for Adafruit_GFX::writeFillRect(short, short, short, short, unsigned short)
    adafruit_gfx.o(.constdata__ZTV10GFXcanvas1) refers to adafruit_gfx.o(i._ZN12Adafruit_GFX14writeFastVLineEssst) for Adafruit_GFX::writeFastVLine(short, short, short, unsigned short)
    adafruit_gfx.o(.constdata__ZTV10GFXcanvas1) refers to adafruit_gfx.o(i._ZN12Adafruit_GFX14writeFastHLineEssst) for Adafruit_GFX::writeFastHLine(short, short, short, unsigned short)
    adafruit_gfx.o(.constdata__ZTV10GFXcanvas1) refers to adafruit_gfx.o(i._ZN12Adafruit_GFX9writeLineEsssst) for Adafruit_GFX::writeLine(short, short, short, short, unsigned short)
    adafruit_gfx.o(.constdata__ZTV10GFXcanvas1) refers to adafruit_gfx.o(i._ZN12Adafruit_GFX8endWriteEv) for Adafruit_GFX::endWrite()
    adafruit_gfx.o(.constdata__ZTV10GFXcanvas1) refers to adafruit_gfx.o(i._ZN12Adafruit_GFX11setRotationEh) for Adafruit_GFX::setRotation(unsigned char)
    adafruit_gfx.o(.constdata__ZTV10GFXcanvas1) refers to adafruit_gfx.o(i._ZN12Adafruit_GFX13invertDisplayEb) for Adafruit_GFX::invertDisplay(bool)
    adafruit_gfx.o(.constdata__ZTV10GFXcanvas1) refers to adafruit_gfx.o(i._ZN12Adafruit_GFX13drawFastVLineEssst) for Adafruit_GFX::drawFastVLine(short, short, short, unsigned short)
    adafruit_gfx.o(.constdata__ZTV10GFXcanvas1) refers to adafruit_gfx.o(i._ZN12Adafruit_GFX13drawFastHLineEssst) for Adafruit_GFX::drawFastHLine(short, short, short, unsigned short)
    adafruit_gfx.o(.constdata__ZTV10GFXcanvas1) refers to adafruit_gfx.o(i._ZN12Adafruit_GFX8fillRectEsssst) for Adafruit_GFX::fillRect(short, short, short, short, unsigned short)
    adafruit_gfx.o(.constdata__ZTV10GFXcanvas1) refers to adafruit_gfx.o(i._ZN10GFXcanvas110fillScreenEt) for GFXcanvas1::fillScreen(unsigned short)
    adafruit_gfx.o(.constdata__ZTV10GFXcanvas1) refers to adafruit_gfx.o(i._ZN12Adafruit_GFX8drawLineEsssst) for Adafruit_GFX::drawLine(short, short, short, short, unsigned short)
    adafruit_gfx.o(.constdata__ZTV10GFXcanvas1) refers to adafruit_gfx.o(i._ZN12Adafruit_GFX8drawRectEsssst) for Adafruit_GFX::drawRect(short, short, short, short, unsigned short)
    adafruit_gfx.o(.constdata__ZTV10GFXcanvas8) refers to adafruit_gfx.o(.constdata__ZTI10GFXcanvas8) for typeinfo for GFXcanvas8
    adafruit_gfx.o(.constdata__ZTV10GFXcanvas8) refers to adafruit_gfx.o(i._ZN12Adafruit_GFX5writeEh) for Adafruit_GFX::write(unsigned char)
    adafruit_gfx.o(.constdata__ZTV10GFXcanvas8) refers to print.o(i._ZN5Print5writeEPKc) for Print::write(const char*)
    adafruit_gfx.o(.constdata__ZTV10GFXcanvas8) refers to print.o(i._ZN5Print5writeEPKvj) for Print::write(const void*, unsigned)
    adafruit_gfx.o(.constdata__ZTV10GFXcanvas8) refers to adafruit_gfx.o(i._ZN10GFXcanvas89drawPixelEsst) for GFXcanvas8::drawPixel(short, short, unsigned short)
    adafruit_gfx.o(.constdata__ZTV10GFXcanvas8) refers to adafruit_gfx.o(i._ZN12Adafruit_GFX10startWriteEv) for Adafruit_GFX::startWrite()
    adafruit_gfx.o(.constdata__ZTV10GFXcanvas8) refers to adafruit_gfx.o(i._ZN12Adafruit_GFX10writePixelEsst) for Adafruit_GFX::writePixel(short, short, unsigned short)
    adafruit_gfx.o(.constdata__ZTV10GFXcanvas8) refers to adafruit_gfx.o(i._ZN12Adafruit_GFX13writeFillRectEsssst) for Adafruit_GFX::writeFillRect(short, short, short, short, unsigned short)
    adafruit_gfx.o(.constdata__ZTV10GFXcanvas8) refers to adafruit_gfx.o(i._ZN12Adafruit_GFX14writeFastVLineEssst) for Adafruit_GFX::writeFastVLine(short, short, short, unsigned short)
    adafruit_gfx.o(.constdata__ZTV10GFXcanvas8) refers to adafruit_gfx.o(i._ZN10GFXcanvas814writeFastHLineEssst) for GFXcanvas8::writeFastHLine(short, short, short, unsigned short)
    adafruit_gfx.o(.constdata__ZTV10GFXcanvas8) refers to adafruit_gfx.o(i._ZN12Adafruit_GFX9writeLineEsssst) for Adafruit_GFX::writeLine(short, short, short, short, unsigned short)
    adafruit_gfx.o(.constdata__ZTV10GFXcanvas8) refers to adafruit_gfx.o(i._ZN12Adafruit_GFX8endWriteEv) for Adafruit_GFX::endWrite()
    adafruit_gfx.o(.constdata__ZTV10GFXcanvas8) refers to adafruit_gfx.o(i._ZN12Adafruit_GFX11setRotationEh) for Adafruit_GFX::setRotation(unsigned char)
    adafruit_gfx.o(.constdata__ZTV10GFXcanvas8) refers to adafruit_gfx.o(i._ZN12Adafruit_GFX13invertDisplayEb) for Adafruit_GFX::invertDisplay(bool)
    adafruit_gfx.o(.constdata__ZTV10GFXcanvas8) refers to adafruit_gfx.o(i._ZN12Adafruit_GFX13drawFastVLineEssst) for Adafruit_GFX::drawFastVLine(short, short, short, unsigned short)
    adafruit_gfx.o(.constdata__ZTV10GFXcanvas8) refers to adafruit_gfx.o(i._ZN12Adafruit_GFX13drawFastHLineEssst) for Adafruit_GFX::drawFastHLine(short, short, short, unsigned short)
    adafruit_gfx.o(.constdata__ZTV10GFXcanvas8) refers to adafruit_gfx.o(i._ZN12Adafruit_GFX8fillRectEsssst) for Adafruit_GFX::fillRect(short, short, short, short, unsigned short)
    adafruit_gfx.o(.constdata__ZTV10GFXcanvas8) refers to adafruit_gfx.o(i._ZN10GFXcanvas810fillScreenEt) for GFXcanvas8::fillScreen(unsigned short)
    adafruit_gfx.o(.constdata__ZTV10GFXcanvas8) refers to adafruit_gfx.o(i._ZN12Adafruit_GFX8drawLineEsssst) for Adafruit_GFX::drawLine(short, short, short, short, unsigned short)
    adafruit_gfx.o(.constdata__ZTV10GFXcanvas8) refers to adafruit_gfx.o(i._ZN12Adafruit_GFX8drawRectEsssst) for Adafruit_GFX::drawRect(short, short, short, short, unsigned short)
    adafruit_gfx.o(.constdata__ZTV11GFXcanvas16) refers to adafruit_gfx.o(.constdata__ZTI11GFXcanvas16) for typeinfo for GFXcanvas16
    adafruit_gfx.o(.constdata__ZTV11GFXcanvas16) refers to adafruit_gfx.o(i._ZN12Adafruit_GFX5writeEh) for Adafruit_GFX::write(unsigned char)
    adafruit_gfx.o(.constdata__ZTV11GFXcanvas16) refers to print.o(i._ZN5Print5writeEPKc) for Print::write(const char*)
    adafruit_gfx.o(.constdata__ZTV11GFXcanvas16) refers to print.o(i._ZN5Print5writeEPKvj) for Print::write(const void*, unsigned)
    adafruit_gfx.o(.constdata__ZTV11GFXcanvas16) refers to adafruit_gfx.o(i._ZN11GFXcanvas169drawPixelEsst) for GFXcanvas16::drawPixel(short, short, unsigned short)
    adafruit_gfx.o(.constdata__ZTV11GFXcanvas16) refers to adafruit_gfx.o(i._ZN12Adafruit_GFX10startWriteEv) for Adafruit_GFX::startWrite()
    adafruit_gfx.o(.constdata__ZTV11GFXcanvas16) refers to adafruit_gfx.o(i._ZN12Adafruit_GFX10writePixelEsst) for Adafruit_GFX::writePixel(short, short, unsigned short)
    adafruit_gfx.o(.constdata__ZTV11GFXcanvas16) refers to adafruit_gfx.o(i._ZN12Adafruit_GFX13writeFillRectEsssst) for Adafruit_GFX::writeFillRect(short, short, short, short, unsigned short)
    adafruit_gfx.o(.constdata__ZTV11GFXcanvas16) refers to adafruit_gfx.o(i._ZN12Adafruit_GFX14writeFastVLineEssst) for Adafruit_GFX::writeFastVLine(short, short, short, unsigned short)
    adafruit_gfx.o(.constdata__ZTV11GFXcanvas16) refers to adafruit_gfx.o(i._ZN12Adafruit_GFX14writeFastHLineEssst) for Adafruit_GFX::writeFastHLine(short, short, short, unsigned short)
    adafruit_gfx.o(.constdata__ZTV11GFXcanvas16) refers to adafruit_gfx.o(i._ZN12Adafruit_GFX9writeLineEsssst) for Adafruit_GFX::writeLine(short, short, short, short, unsigned short)
    adafruit_gfx.o(.constdata__ZTV11GFXcanvas16) refers to adafruit_gfx.o(i._ZN12Adafruit_GFX8endWriteEv) for Adafruit_GFX::endWrite()
    adafruit_gfx.o(.constdata__ZTV11GFXcanvas16) refers to adafruit_gfx.o(i._ZN12Adafruit_GFX11setRotationEh) for Adafruit_GFX::setRotation(unsigned char)
    adafruit_gfx.o(.constdata__ZTV11GFXcanvas16) refers to adafruit_gfx.o(i._ZN12Adafruit_GFX13invertDisplayEb) for Adafruit_GFX::invertDisplay(bool)
    adafruit_gfx.o(.constdata__ZTV11GFXcanvas16) refers to adafruit_gfx.o(i._ZN12Adafruit_GFX13drawFastVLineEssst) for Adafruit_GFX::drawFastVLine(short, short, short, unsigned short)
    adafruit_gfx.o(.constdata__ZTV11GFXcanvas16) refers to adafruit_gfx.o(i._ZN12Adafruit_GFX13drawFastHLineEssst) for Adafruit_GFX::drawFastHLine(short, short, short, unsigned short)
    adafruit_gfx.o(.constdata__ZTV11GFXcanvas16) refers to adafruit_gfx.o(i._ZN12Adafruit_GFX8fillRectEsssst) for Adafruit_GFX::fillRect(short, short, short, short, unsigned short)
    adafruit_gfx.o(.constdata__ZTV11GFXcanvas16) refers to adafruit_gfx.o(i._ZN11GFXcanvas1610fillScreenEt) for GFXcanvas16::fillScreen(unsigned short)
    adafruit_gfx.o(.constdata__ZTV11GFXcanvas16) refers to adafruit_gfx.o(i._ZN12Adafruit_GFX8drawLineEsssst) for Adafruit_GFX::drawLine(short, short, short, short, unsigned short)
    adafruit_gfx.o(.constdata__ZTV11GFXcanvas16) refers to adafruit_gfx.o(i._ZN12Adafruit_GFX8drawRectEsssst) for Adafruit_GFX::drawRect(short, short, short, short, unsigned short)
    adafruit_gfx.o(.constdata__ZTI12Adafruit_GFX) refers to lib_rtti_impl.o(.constdata__ZTVN10__cxxabiv120__si_class_type_infoE) for vtable for __cxxabiv1::__si_class_type_info
    adafruit_gfx.o(.constdata__ZTI12Adafruit_GFX) refers to adafruit_gfx.o(.constdata__ZTS12Adafruit_GFX) for typeinfo name for Adafruit_GFX
    adafruit_gfx.o(.constdata__ZTI12Adafruit_GFX) refers to print.o(.constdata__ZTI5Print) for typeinfo for Print
    adafruit_gfx.o(.constdata__ZTI10GFXcanvas1) refers to lib_rtti_impl.o(.constdata__ZTVN10__cxxabiv120__si_class_type_infoE) for vtable for __cxxabiv1::__si_class_type_info
    adafruit_gfx.o(.constdata__ZTI10GFXcanvas1) refers to adafruit_gfx.o(.constdata__ZTS10GFXcanvas1) for typeinfo name for GFXcanvas1
    adafruit_gfx.o(.constdata__ZTI10GFXcanvas1) refers to adafruit_gfx.o(.constdata__ZTI12Adafruit_GFX) for typeinfo for Adafruit_GFX
    adafruit_gfx.o(.constdata__ZTI10GFXcanvas8) refers to lib_rtti_impl.o(.constdata__ZTVN10__cxxabiv120__si_class_type_infoE) for vtable for __cxxabiv1::__si_class_type_info
    adafruit_gfx.o(.constdata__ZTI10GFXcanvas8) refers to adafruit_gfx.o(.constdata__ZTS10GFXcanvas8) for typeinfo name for GFXcanvas8
    adafruit_gfx.o(.constdata__ZTI10GFXcanvas8) refers to adafruit_gfx.o(.constdata__ZTI12Adafruit_GFX) for typeinfo for Adafruit_GFX
    adafruit_gfx.o(.constdata__ZTI11GFXcanvas16) refers to lib_rtti_impl.o(.constdata__ZTVN10__cxxabiv120__si_class_type_infoE) for vtable for __cxxabiv1::__si_class_type_info
    adafruit_gfx.o(.constdata__ZTI11GFXcanvas16) refers to adafruit_gfx.o(.constdata__ZTS11GFXcanvas16) for typeinfo name for GFXcanvas16
    adafruit_gfx.o(.constdata__ZTI11GFXcanvas16) refers to adafruit_gfx.o(.constdata__ZTI12Adafruit_GFX) for typeinfo for Adafruit_GFX
    adafruit_st7789.o(.constdata__ZTV15Adafruit_ST7789) refers to adafruit_st7789.o(.constdata__ZTI15Adafruit_ST7789) for typeinfo for Adafruit_ST7789
    adafruit_st7789.o(.constdata__ZTV15Adafruit_ST7789) refers to adafruit_gfx.o(i._ZN12Adafruit_GFX5writeEh) for Adafruit_GFX::write(unsigned char)
    adafruit_st7789.o(.constdata__ZTV15Adafruit_ST7789) refers to print.o(i._ZN5Print5writeEPKc) for Print::write(const char*)
    adafruit_st7789.o(.constdata__ZTV15Adafruit_ST7789) refers to print.o(i._ZN5Print5writeEPKvj) for Print::write(const void*, unsigned)
    adafruit_st7789.o(.constdata__ZTV15Adafruit_ST7789) refers to adafruit_st7789.o(i._ZN15Adafruit_ST77899drawPixelEsst) for Adafruit_ST7789::drawPixel(short, short, unsigned short)
    adafruit_st7789.o(.constdata__ZTV15Adafruit_ST7789) refers to adafruit_gfx.o(i._ZN12Adafruit_GFX10startWriteEv) for Adafruit_GFX::startWrite()
    adafruit_st7789.o(.constdata__ZTV15Adafruit_ST7789) refers to adafruit_gfx.o(i._ZN12Adafruit_GFX10writePixelEsst) for Adafruit_GFX::writePixel(short, short, unsigned short)
    adafruit_st7789.o(.constdata__ZTV15Adafruit_ST7789) refers to adafruit_gfx.o(i._ZN12Adafruit_GFX13writeFillRectEsssst) for Adafruit_GFX::writeFillRect(short, short, short, short, unsigned short)
    adafruit_st7789.o(.constdata__ZTV15Adafruit_ST7789) refers to adafruit_gfx.o(i._ZN12Adafruit_GFX14writeFastVLineEssst) for Adafruit_GFX::writeFastVLine(short, short, short, unsigned short)
    adafruit_st7789.o(.constdata__ZTV15Adafruit_ST7789) refers to adafruit_gfx.o(i._ZN12Adafruit_GFX14writeFastHLineEssst) for Adafruit_GFX::writeFastHLine(short, short, short, unsigned short)
    adafruit_st7789.o(.constdata__ZTV15Adafruit_ST7789) refers to adafruit_gfx.o(i._ZN12Adafruit_GFX9writeLineEsssst) for Adafruit_GFX::writeLine(short, short, short, short, unsigned short)
    adafruit_st7789.o(.constdata__ZTV15Adafruit_ST7789) refers to adafruit_gfx.o(i._ZN12Adafruit_GFX8endWriteEv) for Adafruit_GFX::endWrite()
    adafruit_st7789.o(.constdata__ZTV15Adafruit_ST7789) refers to adafruit_st7789.o(i._ZN15Adafruit_ST778911setRotationEh) for Adafruit_ST7789::setRotation(unsigned char)
    adafruit_st7789.o(.constdata__ZTV15Adafruit_ST7789) refers to adafruit_gfx.o(i._ZN12Adafruit_GFX13invertDisplayEb) for Adafruit_GFX::invertDisplay(bool)
    adafruit_st7789.o(.constdata__ZTV15Adafruit_ST7789) refers to adafruit_st7789.o(i._ZN15Adafruit_ST778913drawFastVLineEssst) for Adafruit_ST7789::drawFastVLine(short, short, short, unsigned short)
    adafruit_st7789.o(.constdata__ZTV15Adafruit_ST7789) refers to adafruit_st7789.o(i._ZN15Adafruit_ST778913drawFastHLineEssst) for Adafruit_ST7789::drawFastHLine(short, short, short, unsigned short)
    adafruit_st7789.o(.constdata__ZTV15Adafruit_ST7789) refers to adafruit_gfx.o(i._ZN12Adafruit_GFX8fillRectEsssst) for Adafruit_GFX::fillRect(short, short, short, short, unsigned short)
    adafruit_st7789.o(.constdata__ZTV15Adafruit_ST7789) refers to adafruit_st7789.o(i._ZN15Adafruit_ST778910fillScreenEt) for Adafruit_ST7789::fillScreen(unsigned short)
    adafruit_st7789.o(.constdata__ZTV15Adafruit_ST7789) refers to adafruit_gfx.o(i._ZN12Adafruit_GFX8drawLineEsssst) for Adafruit_GFX::drawLine(short, short, short, short, unsigned short)
    adafruit_st7789.o(.constdata__ZTV15Adafruit_ST7789) refers to adafruit_gfx.o(i._ZN12Adafruit_GFX8drawRectEsssst) for Adafruit_GFX::drawRect(short, short, short, short, unsigned short)
    adafruit_st7789.o(.constdata__ZTV15Adafruit_ST7789) refers to adafruit_st7789.o(i._ZN15Adafruit_ST778913setAddrWindowEssss) for Adafruit_ST7789::setAddrWindow(short, short, short, short)
    adafruit_st7789.o(.constdata__ZTV15Adafruit_ST7789) refers to adafruit_st7789.o(i._ZN15Adafruit_ST77899setCursorEss) for Adafruit_ST7789::setCursor(short, short)
    adafruit_st7789.o(.constdata__ZTV15Adafruit_ST7789) refers to adafruit_st7789.o(i._ZN15Adafruit_ST778913drawRGBBitmapEssPtss) for Adafruit_ST7789::drawRGBBitmap(short, short, unsigned short*, short, short)
    adafruit_st7789.o(.constdata__ZTV15Adafruit_ST7789) refers to adafruit_st7789.o(i._ZN15Adafruit_ST778917drawFastRGBBitmapEssPtss) for Adafruit_ST7789::drawFastRGBBitmap(short, short, unsigned short*, short, short)
    adafruit_st7789.o(.constdata__ZTV15Adafruit_ST7789) refers to adafruit_st7789.o(i._ZN15Adafruit_ST77899pushColorEt) for Adafruit_ST7789::pushColor(unsigned short)
    adafruit_st7789.o(i._ZN15Adafruit_ST77899pushColorEt) refers to adafruit_st7789.o(i._ZN15Adafruit_ST778911writeData16Et) for Adafruit_ST7789::writeData16(unsigned short)
    adafruit_st7789.o(.ARM.exidx) refers to adafruit_st7789.o(i._ZN15Adafruit_ST77899pushColorEt) for i._ZN15Adafruit_ST77899pushColorEt
    adafruit_st7789.o(.constdata__ZTI15Adafruit_ST7789) refers to lib_rtti_impl.o(.constdata__ZTVN10__cxxabiv120__si_class_type_infoE) for vtable for __cxxabiv1::__si_class_type_info
    adafruit_st7789.o(.constdata__ZTI15Adafruit_ST7789) refers to adafruit_st7789.o(.constdata__ZTS15Adafruit_ST7789) for typeinfo name for Adafruit_ST7789
    adafruit_st7789.o(.constdata__ZTI15Adafruit_ST7789) refers to adafruit_gfx.o(.constdata__ZTI12Adafruit_GFX) for typeinfo for Adafruit_GFX
    hardwareserial.o(.constdata__ZTV14HardwareSerial) refers to hardwareserial.o(.constdata__ZTI14HardwareSerial) for typeinfo for HardwareSerial
    hardwareserial.o(.constdata__ZTV14HardwareSerial) refers to hardwareserial.o(i._ZN14HardwareSerial5writeEh) for HardwareSerial::write(unsigned char)
    hardwareserial.o(.constdata__ZTV14HardwareSerial) refers to print.o(i._ZN5Print5writeEPKc) for Print::write(const char*)
    hardwareserial.o(.constdata__ZTV14HardwareSerial) refers to print.o(i._ZN5Print5writeEPKvj) for Print::write(const void*, unsigned)
    hardwareserial.o(.constdata__ZTV14HardwareSerial) refers to hardwareserial.o(i._ZN14HardwareSerial9availableEv) for HardwareSerial::available()
    hardwareserial.o(.constdata__ZTV14HardwareSerial) refers to hardwareserial.o(i._ZN14HardwareSerial4readEv) for HardwareSerial::read()
    hardwareserial.o(.constdata__ZTV14HardwareSerial) refers to hardwareserial.o(i._ZN14HardwareSerial4peekEv) for HardwareSerial::peek()
    hardwareserial.o(.constdata__ZTV14HardwareSerial) refers to hardwareserial.o(i._ZN14HardwareSerial5flushEv) for HardwareSerial::flush()
    hardwareserial.o(.constdata__ZTI14HardwareSerial) refers to lib_rtti_impl.o(.constdata__ZTVN10__cxxabiv120__si_class_type_infoE) for vtable for __cxxabiv1::__si_class_type_info
    hardwareserial.o(.constdata__ZTI14HardwareSerial) refers to hardwareserial.o(.constdata__ZTS14HardwareSerial) for typeinfo name for HardwareSerial
    hardwareserial.o(.constdata__ZTI14HardwareSerial) refers to hardwareserial.o(.constdata__ZTI6Stream) for typeinfo for Stream
    hardwareserial.o(.constdata__ZTI6Stream) refers to lib_rtti_impl.o(.constdata__ZTVN10__cxxabiv120__si_class_type_infoE) for vtable for __cxxabiv1::__si_class_type_info
    hardwareserial.o(.constdata__ZTI6Stream) refers to hardwareserial.o(.constdata__ZTS6Stream) for typeinfo name for Stream
    hardwareserial.o(.constdata__ZTI6Stream) refers to print.o(.constdata__ZTI5Print) for typeinfo for Print
    print.o(.constdata__ZTV5Print) refers to print.o(.constdata__ZTI5Print) for typeinfo for Print
    print.o(.constdata__ZTV5Print) refers to pure_virt.o(i.__cxa_pure_virtual) for __cxa_pure_virtual
    print.o(.constdata__ZTV5Print) refers to print.o(i._ZN5Print5writeEPKc) for Print::write(const char*)
    print.o(.constdata__ZTV5Print) refers to print.o(i._ZN5Print5writeEPKvj) for Print::write(const void*, unsigned)
    print.o(.constdata__ZTI5Print) refers to lib_rtti_impl.o(.constdata__ZTVN10__cxxabiv117__class_type_infoE) for vtable for __cxxabiv1::__class_type_info
    print.o(.constdata__ZTI5Print) refers to print.o(.constdata__ZTS5Print) for typeinfo name for Print
    wire.o(.constdata__ZTV7TwoWire) refers to wire.o(.constdata__ZTI7TwoWire) for typeinfo for TwoWire
    wire.o(.constdata__ZTV7TwoWire) refers to wire.o(i._ZN7TwoWire7processEv) for TwoWire::process()
    wire.o(.constdata__ZTV7TwoWire) refers to wire.o(i._ZN7TwoWire5beginEh) for TwoWire::begin(unsigned char)
    wire.o(.constdata__ZTI7TwoWire) refers to lib_rtti_impl.o(.constdata__ZTVN10__cxxabiv120__si_class_type_infoE) for vtable for __cxxabiv1::__si_class_type_info
    wire.o(.constdata__ZTI7TwoWire) refers to wire.o(.constdata__ZTS7TwoWire) for typeinfo name for TwoWire
    wire.o(.constdata__ZTI7TwoWire) refers to wirebase.o(.constdata__ZTI8WireBase) for typeinfo for WireBase
    wirebase.o(.constdata__ZTV8WireBase) refers to wirebase.o(.constdata__ZTI8WireBase) for typeinfo for WireBase
    wirebase.o(.constdata__ZTV8WireBase) refers to pure_virt.o(i.__cxa_pure_virtual) for __cxa_pure_virtual
    wirebase.o(.constdata__ZTV8WireBase) refers to wirebase.o(i._ZN8WireBase5beginEh) for WireBase::begin(unsigned char)
    wirebase.o(.constdata__ZTI8WireBase) refers to lib_rtti_impl.o(.constdata__ZTVN10__cxxabiv117__class_type_infoE) for vtable for __cxxabiv1::__class_type_info
    wirebase.o(.constdata__ZTI8WireBase) refers to wirebase.o(.constdata__ZTS8WireBase) for typeinfo name for WireBase
    wstring.o(.ARM.exidx) refers to wstring.o(i._ZN6String4initEv) for i._ZN6String4initEv
    wstring.o(i._ZSt6strstrPcPKc) refers to strstr.o(.text) for strstr
    wstring.o(.ARM.exidx) refers to wstring.o(i._ZSt6strstrPcPKc) for i._ZSt6strstrPcPKc
    lib_rtti_impl.o(.constdata__ZTVN10__cxxabiv123__fundamental_type_infoE) refers to lib_rtti_impl.o(.constdata__ZTIN10__cxxabiv123__fundamental_type_infoE) for typeinfo for __cxxabiv1::__fundamental_type_info
    lib_rtti_impl.o(.constdata__ZTVN10__cxxabiv123__fundamental_type_infoE) refers to lib_rtti_impl.o(i._ZN10__cxxabiv123__fundamental_type_infoD1Ev) for __cxxabiv1::__fundamental_type_info::~__fundamental_type_info()
    lib_rtti_impl.o(.constdata__ZTVN10__cxxabiv123__fundamental_type_infoE) refers to lib_rtti_impl.o(i._ZN10__cxxabiv123__fundamental_type_infoD0Ev) for __cxxabiv1::__fundamental_type_info::~__fundamental_type_info__deallocating()
    lib_rtti_impl.o(.constdata__ZTVN10__cxxabiv117__array_type_infoE) refers to lib_rtti_impl.o(.constdata__ZTIN10__cxxabiv117__array_type_infoE) for typeinfo for __cxxabiv1::__array_type_info
    lib_rtti_impl.o(.constdata__ZTVN10__cxxabiv117__array_type_infoE) refers to lib_rtti_impl.o(i._ZN10__cxxabiv117__array_type_infoD1Ev) for __cxxabiv1::__array_type_info::~__array_type_info()
    lib_rtti_impl.o(.constdata__ZTVN10__cxxabiv117__array_type_infoE) refers to lib_rtti_impl.o(i._ZN10__cxxabiv117__array_type_infoD0Ev) for __cxxabiv1::__array_type_info::~__array_type_info__deallocating()
    lib_rtti_impl.o(.constdata__ZTVN10__cxxabiv120__function_type_infoE) refers to lib_rtti_impl.o(.constdata__ZTIN10__cxxabiv120__function_type_infoE) for typeinfo for __cxxabiv1::__function_type_info
    lib_rtti_impl.o(.constdata__ZTVN10__cxxabiv120__function_type_infoE) refers to lib_rtti_impl.o(i._ZN10__cxxabiv120__function_type_infoD1Ev) for __cxxabiv1::__function_type_info::~__function_type_info()
    lib_rtti_impl.o(.constdata__ZTVN10__cxxabiv120__function_type_infoE) refers to lib_rtti_impl.o(i._ZN10__cxxabiv120__function_type_infoD0Ev) for __cxxabiv1::__function_type_info::~__function_type_info__deallocating()
    lib_rtti_impl.o(.constdata__ZTVN10__cxxabiv116__enum_type_infoE) refers to lib_rtti_impl.o(.constdata__ZTIN10__cxxabiv116__enum_type_infoE) for typeinfo for __cxxabiv1::__enum_type_info
    lib_rtti_impl.o(.constdata__ZTVN10__cxxabiv116__enum_type_infoE) refers to lib_rtti_impl.o(i._ZN10__cxxabiv116__enum_type_infoD1Ev) for __cxxabiv1::__enum_type_info::~__enum_type_info()
    lib_rtti_impl.o(.constdata__ZTVN10__cxxabiv116__enum_type_infoE) refers to lib_rtti_impl.o(i._ZN10__cxxabiv116__enum_type_infoD0Ev) for __cxxabiv1::__enum_type_info::~__enum_type_info__deallocating()
    lib_rtti_impl.o(.constdata__ZTVN10__cxxabiv117__class_type_infoE) refers to lib_rtti_impl.o(.constdata__ZTIN10__cxxabiv117__class_type_infoE) for typeinfo for __cxxabiv1::__class_type_info
    lib_rtti_impl.o(.constdata__ZTVN10__cxxabiv117__class_type_infoE) refers to lib_rtti_impl.o(i._ZN10__cxxabiv117__class_type_infoD1Ev) for __cxxabiv1::__class_type_info::~__class_type_info()
    lib_rtti_impl.o(.constdata__ZTVN10__cxxabiv117__class_type_infoE) refers to lib_rtti_impl.o(i._ZN10__cxxabiv117__class_type_infoD0Ev) for __cxxabiv1::__class_type_info::~__class_type_info__deallocating()
    lib_rtti_impl.o(.constdata__ZTVN10__cxxabiv120__si_class_type_infoE) refers to lib_rtti_impl.o(.constdata__ZTIN10__cxxabiv120__si_class_type_infoE) for typeinfo for __cxxabiv1::__si_class_type_info
    lib_rtti_impl.o(.constdata__ZTVN10__cxxabiv120__si_class_type_infoE) refers to lib_rtti_impl.o(i._ZN10__cxxabiv120__si_class_type_infoD1Ev) for __cxxabiv1::__si_class_type_info::~__si_class_type_info()
    lib_rtti_impl.o(.constdata__ZTVN10__cxxabiv120__si_class_type_infoE) refers to lib_rtti_impl.o(i._ZN10__cxxabiv120__si_class_type_infoD0Ev) for __cxxabiv1::__si_class_type_info::~__si_class_type_info__deallocating()
    lib_rtti_impl.o(.constdata__ZTVN10__cxxabiv121__vmi_class_type_infoE) refers to lib_rtti_impl.o(.constdata__ZTIN10__cxxabiv121__vmi_class_type_infoE) for typeinfo for __cxxabiv1::__vmi_class_type_info
    lib_rtti_impl.o(.constdata__ZTVN10__cxxabiv121__vmi_class_type_infoE) refers to lib_rtti_impl.o(i._ZN10__cxxabiv121__vmi_class_type_infoD1Ev) for __cxxabiv1::__vmi_class_type_info::~__vmi_class_type_info()
    lib_rtti_impl.o(.constdata__ZTVN10__cxxabiv121__vmi_class_type_infoE) refers to lib_rtti_impl.o(i._ZN10__cxxabiv121__vmi_class_type_infoD0Ev) for __cxxabiv1::__vmi_class_type_info::~__vmi_class_type_info__deallocating()
    lib_rtti_impl.o(.constdata__ZTVN10__cxxabiv117__pbase_type_infoE) refers to lib_rtti_impl.o(.constdata__ZTIN10__cxxabiv117__pbase_type_infoE) for typeinfo for __cxxabiv1::__pbase_type_info
    lib_rtti_impl.o(.constdata__ZTVN10__cxxabiv117__pbase_type_infoE) refers to lib_rtti_impl.o(i._ZN10__cxxabiv117__pbase_type_infoD1Ev) for __cxxabiv1::__pbase_type_info::~__pbase_type_info()
    lib_rtti_impl.o(.constdata__ZTVN10__cxxabiv117__pbase_type_infoE) refers to lib_rtti_impl.o(i._ZN10__cxxabiv117__pbase_type_infoD0Ev) for __cxxabiv1::__pbase_type_info::~__pbase_type_info__deallocating()
    lib_rtti_impl.o(.constdata__ZTVN10__cxxabiv119__pointer_type_infoE) refers to lib_rtti_impl.o(.constdata__ZTIN10__cxxabiv119__pointer_type_infoE) for typeinfo for __cxxabiv1::__pointer_type_info
    lib_rtti_impl.o(.constdata__ZTVN10__cxxabiv119__pointer_type_infoE) refers to lib_rtti_impl.o(i._ZN10__cxxabiv119__pointer_type_infoD1Ev) for __cxxabiv1::__pointer_type_info::~__pointer_type_info()
    lib_rtti_impl.o(.constdata__ZTVN10__cxxabiv119__pointer_type_infoE) refers to lib_rtti_impl.o(i._ZN10__cxxabiv119__pointer_type_infoD0Ev) for __cxxabiv1::__pointer_type_info::~__pointer_type_info__deallocating()
    lib_rtti_impl.o(.constdata__ZTVN10__cxxabiv129__pointer_to_member_type_infoE) refers to lib_rtti_impl.o(.constdata__ZTIN10__cxxabiv129__pointer_to_member_type_infoE) for typeinfo for __cxxabiv1::__pointer_to_member_type_info
    lib_rtti_impl.o(.constdata__ZTVN10__cxxabiv129__pointer_to_member_type_infoE) refers to lib_rtti_impl.o(i._ZN10__cxxabiv129__pointer_to_member_type_infoD1Ev) for __cxxabiv1::__pointer_to_member_type_info::~__pointer_to_member_type_info()
    lib_rtti_impl.o(.constdata__ZTVN10__cxxabiv129__pointer_to_member_type_infoE) refers to lib_rtti_impl.o(i._ZN10__cxxabiv129__pointer_to_member_type_infoD0Ev) for __cxxabiv1::__pointer_to_member_type_info::~__pointer_to_member_type_info__deallocating()
    lib_rtti_impl.o(.ARM.exidx) refers to lib_rtti_impl.o(i._ZNSt9type_infodlEPv) for i._ZNSt9type_infodlEPv
    lib_rtti_impl.o(.constdata__ZTIN10__cxxabiv123__fundamental_type_infoE) refers to lib_rtti_impl.o(.constdata__ZTVN10__cxxabiv120__si_class_type_infoE) for vtable for __cxxabiv1::__si_class_type_info
    lib_rtti_impl.o(.constdata__ZTIN10__cxxabiv123__fundamental_type_infoE) refers to lib_rtti_impl.o(.constdata__ZTSN10__cxxabiv123__fundamental_type_infoE) for typeinfo name for __cxxabiv1::__fundamental_type_info
    lib_rtti_impl.o(.constdata__ZTIN10__cxxabiv123__fundamental_type_infoE) refers to type_info_dtor.o(.constdata__ZTISt9type_info) for typeinfo for std::type_info
    lib_rtti_impl.o(.constdata__ZTIN10__cxxabiv117__array_type_infoE) refers to lib_rtti_impl.o(.constdata__ZTVN10__cxxabiv120__si_class_type_infoE) for vtable for __cxxabiv1::__si_class_type_info
    lib_rtti_impl.o(.constdata__ZTIN10__cxxabiv117__array_type_infoE) refers to lib_rtti_impl.o(.constdata__ZTSN10__cxxabiv117__array_type_infoE) for typeinfo name for __cxxabiv1::__array_type_info
    lib_rtti_impl.o(.constdata__ZTIN10__cxxabiv117__array_type_infoE) refers to type_info_dtor.o(.constdata__ZTISt9type_info) for typeinfo for std::type_info
    lib_rtti_impl.o(.constdata__ZTIN10__cxxabiv120__function_type_infoE) refers to lib_rtti_impl.o(.constdata__ZTVN10__cxxabiv120__si_class_type_infoE) for vtable for __cxxabiv1::__si_class_type_info
    lib_rtti_impl.o(.constdata__ZTIN10__cxxabiv120__function_type_infoE) refers to lib_rtti_impl.o(.constdata__ZTSN10__cxxabiv120__function_type_infoE) for typeinfo name for __cxxabiv1::__function_type_info
    lib_rtti_impl.o(.constdata__ZTIN10__cxxabiv120__function_type_infoE) refers to type_info_dtor.o(.constdata__ZTISt9type_info) for typeinfo for std::type_info
    lib_rtti_impl.o(.constdata__ZTIN10__cxxabiv116__enum_type_infoE) refers to lib_rtti_impl.o(.constdata__ZTVN10__cxxabiv120__si_class_type_infoE) for vtable for __cxxabiv1::__si_class_type_info
    lib_rtti_impl.o(.constdata__ZTIN10__cxxabiv116__enum_type_infoE) refers to lib_rtti_impl.o(.constdata__ZTSN10__cxxabiv116__enum_type_infoE) for typeinfo name for __cxxabiv1::__enum_type_info
    lib_rtti_impl.o(.constdata__ZTIN10__cxxabiv116__enum_type_infoE) refers to type_info_dtor.o(.constdata__ZTISt9type_info) for typeinfo for std::type_info
    lib_rtti_impl.o(.constdata__ZTIN10__cxxabiv117__class_type_infoE) refers to lib_rtti_impl.o(.constdata__ZTVN10__cxxabiv120__si_class_type_infoE) for vtable for __cxxabiv1::__si_class_type_info
    lib_rtti_impl.o(.constdata__ZTIN10__cxxabiv117__class_type_infoE) refers to lib_rtti_impl.o(.constdata__ZTSN10__cxxabiv117__class_type_infoE) for typeinfo name for __cxxabiv1::__class_type_info
    lib_rtti_impl.o(.constdata__ZTIN10__cxxabiv117__class_type_infoE) refers to type_info_dtor.o(.constdata__ZTISt9type_info) for typeinfo for std::type_info
    lib_rtti_impl.o(.constdata__ZTIN10__cxxabiv120__si_class_type_infoE) refers to lib_rtti_impl.o(.constdata__ZTVN10__cxxabiv120__si_class_type_infoE) for vtable for __cxxabiv1::__si_class_type_info
    lib_rtti_impl.o(.constdata__ZTIN10__cxxabiv120__si_class_type_infoE) refers to lib_rtti_impl.o(.constdata__ZTSN10__cxxabiv120__si_class_type_infoE) for typeinfo name for __cxxabiv1::__si_class_type_info
    lib_rtti_impl.o(.constdata__ZTIN10__cxxabiv120__si_class_type_infoE) refers to lib_rtti_impl.o(.constdata__ZTIN10__cxxabiv117__class_type_infoE) for typeinfo for __cxxabiv1::__class_type_info
    lib_rtti_impl.o(.constdata__ZTIN10__cxxabiv121__vmi_class_type_infoE) refers to lib_rtti_impl.o(.constdata__ZTVN10__cxxabiv120__si_class_type_infoE) for vtable for __cxxabiv1::__si_class_type_info
    lib_rtti_impl.o(.constdata__ZTIN10__cxxabiv121__vmi_class_type_infoE) refers to lib_rtti_impl.o(.constdata__ZTSN10__cxxabiv121__vmi_class_type_infoE) for typeinfo name for __cxxabiv1::__vmi_class_type_info
    lib_rtti_impl.o(.constdata__ZTIN10__cxxabiv121__vmi_class_type_infoE) refers to lib_rtti_impl.o(.constdata__ZTIN10__cxxabiv117__class_type_infoE) for typeinfo for __cxxabiv1::__class_type_info
    lib_rtti_impl.o(.constdata__ZTIN10__cxxabiv117__pbase_type_infoE) refers to lib_rtti_impl.o(.constdata__ZTVN10__cxxabiv120__si_class_type_infoE) for vtable for __cxxabiv1::__si_class_type_info
    lib_rtti_impl.o(.constdata__ZTIN10__cxxabiv117__pbase_type_infoE) refers to lib_rtti_impl.o(.constdata__ZTSN10__cxxabiv117__pbase_type_infoE) for typeinfo name for __cxxabiv1::__pbase_type_info
    lib_rtti_impl.o(.constdata__ZTIN10__cxxabiv117__pbase_type_infoE) refers to type_info_dtor.o(.constdata__ZTISt9type_info) for typeinfo for std::type_info
    lib_rtti_impl.o(.constdata__ZTIN10__cxxabiv119__pointer_type_infoE) refers to lib_rtti_impl.o(.constdata__ZTVN10__cxxabiv120__si_class_type_infoE) for vtable for __cxxabiv1::__si_class_type_info
    lib_rtti_impl.o(.constdata__ZTIN10__cxxabiv119__pointer_type_infoE) refers to lib_rtti_impl.o(.constdata__ZTSN10__cxxabiv119__pointer_type_infoE) for typeinfo name for __cxxabiv1::__pointer_type_info
    lib_rtti_impl.o(.constdata__ZTIN10__cxxabiv119__pointer_type_infoE) refers to lib_rtti_impl.o(.constdata__ZTIN10__cxxabiv117__pbase_type_infoE) for typeinfo for __cxxabiv1::__pbase_type_info
    lib_rtti_impl.o(.constdata__ZTIN10__cxxabiv129__pointer_to_member_type_infoE) refers to lib_rtti_impl.o(.constdata__ZTVN10__cxxabiv120__si_class_type_infoE) for vtable for __cxxabiv1::__si_class_type_info
    lib_rtti_impl.o(.constdata__ZTIN10__cxxabiv129__pointer_to_member_type_infoE) refers to lib_rtti_impl.o(.constdata__ZTSN10__cxxabiv129__pointer_to_member_type_infoE) for typeinfo name for __cxxabiv1::__pointer_to_member_type_info
    lib_rtti_impl.o(.constdata__ZTIN10__cxxabiv129__pointer_to_member_type_infoE) refers to lib_rtti_impl.o(.constdata__ZTIN10__cxxabiv117__pbase_type_infoE) for typeinfo for __cxxabiv1::__pbase_type_info
    lib_rtti_impl.o(i.__ARM_common_noexcept_landing) refers to arm_exceptions_callterm.o(.text) for __cxa_call_terminate
    lib_rtti_impl.o(.ARM.exidx) refers to lib_rtti_impl.o(i.__ARM_common_noexcept_landing) for i.__ARM_common_noexcept_landing
    bad_alloc_dtor.o(.constdata__ZTVSt9bad_alloc) refers to bad_alloc_dtor.o(.constdata__ZTISt9bad_alloc) for typeinfo for std::bad_alloc
    bad_alloc_dtor.o(.constdata__ZTVSt9bad_alloc) refers to bad_alloc_dtor.o(i._ZNSt9bad_allocD1Ev) for std::bad_alloc::~bad_alloc()
    bad_alloc_dtor.o(.constdata__ZTVSt9bad_alloc) refers to bad_alloc_dtor.o(i._ZNSt9bad_allocD0Ev) for std::bad_alloc::~bad_alloc__deallocating()
    bad_alloc_dtor.o(.constdata__ZTVSt9bad_alloc) refers to bad_alloc_what.o(i._ZNKSt9bad_alloc4whatEv) for std::bad_alloc::what() const
    bad_alloc_dtor.o(.constdata__ZTISt9bad_alloc) refers to lib_rtti_impl.o(.constdata__ZTVN10__cxxabiv120__si_class_type_infoE) for vtable for __cxxabiv1::__si_class_type_info
    bad_alloc_dtor.o(.constdata__ZTISt9bad_alloc) refers to bad_alloc_dtor.o(.constdata__ZTSSt9bad_alloc) for typeinfo name for std::bad_alloc
    bad_alloc_dtor.o(.constdata__ZTISt9bad_alloc) refers to exception_dtor.o(.constdata__ZTISt9exception) for typeinfo for std::exception
    type_info_dtor.o(.constdata__ZTVSt9type_info) refers to type_info_dtor.o(.constdata__ZTISt9type_info) for typeinfo for std::type_info
    type_info_dtor.o(.constdata__ZTVSt9type_info) refers to type_info_dtor.o(i._ZNSt9type_infoD1Ev) for std::type_info::~type_info()
    type_info_dtor.o(.constdata__ZTVSt9type_info) refers to type_info_dtor.o(i._ZNSt9type_infoD0Ev) for std::type_info::~type_info__deallocating()
    type_info_dtor.o(.constdata__ZTISt9type_info) refers to lib_rtti_impl.o(.constdata__ZTVN10__cxxabiv117__class_type_infoE) for vtable for __cxxabiv1::__class_type_info
    type_info_dtor.o(.constdata__ZTISt9type_info) refers to type_info_dtor.o(.constdata__ZTSSt9type_info) for typeinfo name for std::type_info
    exception_dtor.o(.constdata__ZTVSt9exception) refers to exception_dtor.o(.constdata__ZTISt9exception) for typeinfo for std::exception
    exception_dtor.o(.constdata__ZTVSt9exception) refers to exception_dtor.o(i._ZNSt9exceptionD1Ev) for std::exception::~exception()
    exception_dtor.o(.constdata__ZTVSt9exception) refers to exception_dtor.o(i._ZNSt9exceptionD0Ev) for std::exception::~exception__deallocating()
    exception_dtor.o(.constdata__ZTVSt9exception) refers to exception_what.o(i._ZNKSt9exception4whatEv) for std::exception::what() const
    exception_dtor.o(.constdata__ZTISt9exception) refers to lib_rtti_impl.o(.constdata__ZTVN10__cxxabiv117__class_type_infoE) for vtable for __cxxabiv1::__class_type_info
    exception_dtor.o(.constdata__ZTISt9exception) refers to exception_dtor.o(.constdata__ZTSSt9exception) for typeinfo name for std::exception


==============================================================================

Removing Unused input sections from the image.

    Removing main.o(.rev16_text), (4 bytes).
    Removing main.o(.revsh_text), (4 bytes).
    Removing main.o(.rrx_text), (6 bytes).
    Removing main.o(i._Z14Button_Runningv), (4 bytes).
    Removing main.o(i._Z4loopv), (4 bytes).
    Removing main.o(.ARM.exidx), (8 bytes).
    Removing main.o(.ARM.exidx), (8 bytes).
    Removing main.o(.ARM.exidx), (8 bytes).
    Removing main.o(.ARM.exidx), (8 bytes).
    Removing main.o(.ARM.exidx), (8 bytes).
    Removing main.o(.ARM.exidx), (8 bytes).
    Removing millistaskmanager.o(.rev16_text), (4 bytes).
    Removing millistaskmanager.o(.revsh_text), (4 bytes).
    Removing millistaskmanager.o(.rrx_text), (6 bytes).
    Removing millistaskmanager.o(i._ZN17MillisTaskManager11GetTimeCostEPFvvE), (14 bytes).
    Removing millistaskmanager.o(i._ZN17MillisTaskManager12GetCPU_UsageEv), (92 bytes).
    Removing millistaskmanager.o(i._ZN17MillisTaskManager12GetTickElapsEjj), (4 bytes).
    Removing millistaskmanager.o(i._ZN17MillisTaskManager15SetIntervalTimeEPFvvEj), (18 bytes).
    Removing millistaskmanager.o(i._ZN17MillisTaskManager4FindEPFvvE), (22 bytes).
    Removing millistaskmanager.o(i._ZN17MillisTaskManager6LogoutEPFvvE), (46 bytes).
    Removing millistaskmanager.o(i._ZN17MillisTaskManager7GetPrevEPNS_4TaskE), (24 bytes).
    Removing millistaskmanager.o(i._ZN17MillisTaskManager7RunningEj), (88 bytes).
    Removing millistaskmanager.o(i._ZN17MillisTaskManager8RegisterEPFvvEjb), (68 bytes).
    Removing millistaskmanager.o(i._ZN17MillisTaskManager8SetStateEPFvvEb), (18 bytes).
    Removing millistaskmanager.o(.ARM.exidx), (8 bytes).
    Removing millistaskmanager.o(.ARM.exidx), (8 bytes).
    Removing millistaskmanager.o(.ARM.exidx), (8 bytes).
    Removing millistaskmanager.o(.ARM.exidx), (8 bytes).
    Removing millistaskmanager.o(.ARM.exidx), (8 bytes).
    Removing millistaskmanager.o(.ARM.exidx), (8 bytes).
    Removing millistaskmanager.o(.ARM.exidx), (8 bytes).
    Removing millistaskmanager.o(.ARM.exidx), (8 bytes).
    Removing millistaskmanager.o(.ARM.exidx), (8 bytes).
    Removing millistaskmanager.o(.ARM.exidx), (8 bytes).
    Removing millistaskmanager.o(.ARM.exidx), (8 bytes).
    Removing millistaskmanager.o(.ARM.exidx), (8 bytes).
    Removing millistaskmanager.o(.data), (8 bytes).
    Removing pagemanager.o(.rev16_text), (4 bytes).
    Removing pagemanager.o(.revsh_text), (4 bytes).
    Removing pagemanager.o(.rrx_text), (6 bytes).
    Removing pagemanager.o(.ARM.exidx), (8 bytes).
    Removing pagemanager.o(.ARM.exidx), (8 bytes).
    Removing pagemanager.o(.ARM.exidx), (8 bytes).
    Removing pagemanager.o(.ARM.exidx), (8 bytes).
    Removing pagemanager.o(.ARM.exidx), (8 bytes).
    Removing pagemanager.o(.ARM.exidx), (8 bytes).
    Removing pagemanager.o(.ARM.exidx), (8 bytes).
    Removing pagemanager.o(.ARM.exidx), (8 bytes).
    Removing pagemanager.o(.ARM.exidx), (8 bytes).
    Removing pagemanager.o(.ARM.exidx), (8 bytes).
    Removing toneplayer.o(i._ZN10TonePlayer4StopEv), (6 bytes).
    Removing toneplayer.o(i._ZN10TonePlayer8SetSpeedEt), (4 bytes).
    Removing toneplayer.o(.ARM.exidx), (8 bytes).
    Removing toneplayer.o(.ARM.exidx), (8 bytes).
    Removing toneplayer.o(.ARM.exidx), (8 bytes).
    Removing toneplayer.o(.ARM.exidx), (8 bytes).
    Removing toneplayer.o(.ARM.exidx), (8 bytes).
    Removing toneplayer.o(.ARM.exidx), (8 bytes).
    Removing piclib.o(.rev16_text), (4 bytes).
    Removing piclib.o(.revsh_text), (4 bytes).
    Removing piclib.o(.rrx_text), (6 bytes).
    Removing piclib.o(i.pic_memalloc), (4 bytes).
    Removing piclib.o(i.pic_memfree), (4 bytes).
    Removing piclib.o(i.piclib_alpha_blend), (36 bytes).
    Removing piclib.o(.ARM.exidx), (8 bytes).
    Removing piclib.o(.ARM.exidx), (8 bytes).
    Removing piclib.o(.ARM.exidx), (8 bytes).
    Removing piclib.o(.ARM.exidx), (8 bytes).
    Removing piclib.o(.ARM.exidx), (8 bytes).
    Removing piclib.o(.ARM.exidx), (8 bytes).
    Removing piclib.o(.ARM.exidx), (8 bytes).
    Removing piclib.o(.ARM.exidx), (8 bytes).
    Removing piclib.o(.ARM.exidx), (8 bytes).
    Removing piclib.o(.ARM.exidx), (8 bytes).
    Removing piclib.o(.ARM.exidx), (8 bytes).
    Removing piclib.o(.ARM.exidx), (8 bytes).
    Removing tjpgd.o(.rev16_text), (4 bytes).
    Removing tjpgd.o(.revsh_text), (4 bytes).
    Removing tjpgd.o(.rrx_text), (6 bytes).
    Removing tjpgd.o(.ARM.exidx), (8 bytes).
    Removing tjpgd.o(.ARM.exidx), (8 bytes).
    Removing tjpgd.o(.ARM.exidx), (8 bytes).
    Removing tjpgd.o(.ARM.exidx), (8 bytes).
    Removing tjpgd.o(.ARM.exidx), (8 bytes).
    Removing tjpgd.o(.ARM.exidx), (8 bytes).
    Removing tjpgd.o(.ARM.exidx), (8 bytes).
    Removing tjpgd.o(.ARM.exidx), (8 bytes).
    Removing tjpgd.o(.ARM.exidx), (8 bytes).
    Removing tjpgd.o(.ARM.exidx), (8 bytes).
    Removing tjpgd.o(.ARM.exidx), (8 bytes).
    Removing tjpgd.o(.ARM.exidx), (8 bytes).
    Removing tjpgd.o(.ARM.exidx), (8 bytes).
    Removing adafruit_gfx.o(.rev16_text), (4 bytes).
    Removing adafruit_gfx.o(.revsh_text), (4 bytes).
    Removing adafruit_gfx.o(.rrx_text), (6 bytes).
    Removing adafruit_gfx.o(i._ZN10GFXcanvas110fillScreenEt), (52 bytes).
    Removing adafruit_gfx.o(i._ZN10GFXcanvas19drawPixelEsst), (142 bytes).
    Removing adafruit_gfx.o(i._ZN10GFXcanvas19getBufferEv), (4 bytes).
    Removing adafruit_gfx.o(i._ZN10GFXcanvas1C1Ett), (56 bytes).
    Removing adafruit_gfx.o(i._ZN10GFXcanvas1D1Ev), (24 bytes).
    Removing adafruit_gfx.o(i._ZN10GFXcanvas810fillScreenEt), (26 bytes).
    Removing adafruit_gfx.o(i._ZN10GFXcanvas814writeFastHLineEssst), (132 bytes).
    Removing adafruit_gfx.o(i._ZN10GFXcanvas89drawPixelEsst), (98 bytes).
    Removing adafruit_gfx.o(i._ZN10GFXcanvas89getBufferEv), (4 bytes).
    Removing adafruit_gfx.o(i._ZN10GFXcanvas8C1Ett), (52 bytes).
    Removing adafruit_gfx.o(i._ZN10GFXcanvas8D1Ev), (24 bytes).
    Removing adafruit_gfx.o(i._ZN11GFXcanvas1610fillScreenEt), (62 bytes).
    Removing adafruit_gfx.o(i._ZN11GFXcanvas169drawPixelEsst), (100 bytes).
    Removing adafruit_gfx.o(i._ZN11GFXcanvas169getBufferEv), (4 bytes).
    Removing adafruit_gfx.o(i._ZN11GFXcanvas16C1Ett), (52 bytes).
    Removing adafruit_gfx.o(i._ZN11GFXcanvas16D1Ev), (24 bytes).
    Removing adafruit_gfx.o(i._ZN12Adafruit_GFX10charBoundsEcPsS0_S0_S0_S0_S0_), (448 bytes).
    Removing adafruit_gfx.o(i._ZN12Adafruit_GFX10drawBitmapEssPKhsst), (138 bytes).
    Removing adafruit_gfx.o(i._ZN12Adafruit_GFX10drawBitmapEssPKhsstt), (142 bytes).
    Removing adafruit_gfx.o(i._ZN12Adafruit_GFX10drawBitmapEssPhsst), (138 bytes).
    Removing adafruit_gfx.o(i._ZN12Adafruit_GFX10drawBitmapEssPhsstt), (142 bytes).
    Removing adafruit_gfx.o(i._ZN12Adafruit_GFX10fillCircleEssst), (84 bytes).
    Removing adafruit_gfx.o(i._ZN12Adafruit_GFX10fillScreenEt), (26 bytes).
    Removing adafruit_gfx.o(i._ZN12Adafruit_GFX11drawXBitmapEssPKhsst), (136 bytes).
    Removing adafruit_gfx.o(i._ZN12Adafruit_GFX11setRotationEh), (38 bytes).
    Removing adafruit_gfx.o(i._ZN12Adafruit_GFX11setTextWrapEb), (4 bytes).
    Removing adafruit_gfx.o(i._ZN12Adafruit_GFX12drawTriangleEsssssst), (76 bytes).
    Removing adafruit_gfx.o(i._ZN12Adafruit_GFX12fillTriangleEsssssst), (384 bytes).
    Removing adafruit_gfx.o(i._ZN12Adafruit_GFX12setTextColorEtt), (6 bytes).
    Removing adafruit_gfx.o(i._ZN12Adafruit_GFX13drawRGBBitmapEssPKtPKhss), (146 bytes).
    Removing adafruit_gfx.o(i._ZN12Adafruit_GFX13drawRGBBitmapEssPKtss), (94 bytes).
    Removing adafruit_gfx.o(i._ZN12Adafruit_GFX13drawRGBBitmapEssPtPhss), (146 bytes).
    Removing adafruit_gfx.o(i._ZN12Adafruit_GFX13drawRGBBitmapEssPtss), (94 bytes).
    Removing adafruit_gfx.o(i._ZN12Adafruit_GFX13drawRoundRectEssssst), (246 bytes).
    Removing adafruit_gfx.o(i._ZN12Adafruit_GFX13getTextBoundsEPK19__FlashStringHelperssPsS3_PtS4_), (166 bytes).
    Removing adafruit_gfx.o(i._ZN12Adafruit_GFX13getTextBoundsEPcssPsS1_PtS2_), (166 bytes).
    Removing adafruit_gfx.o(i._ZN12Adafruit_GFX13invertDisplayEb), (2 bytes).
    Removing adafruit_gfx.o(i._ZN12Adafruit_GFX16drawCircleHelperEsssht), (296 bytes).
    Removing adafruit_gfx.o(i._ZN12Adafruit_GFX19drawGrayscaleBitmapEssPKhS1_ss), (146 bytes).
    Removing adafruit_gfx.o(i._ZN12Adafruit_GFX19drawGrayscaleBitmapEssPKhss), (100 bytes).
    Removing adafruit_gfx.o(i._ZN12Adafruit_GFX19drawGrayscaleBitmapEssPhS0_ss), (146 bytes).
    Removing adafruit_gfx.o(i._ZN12Adafruit_GFX19drawGrayscaleBitmapEssPhss), (100 bytes).
    Removing adafruit_gfx.o(i._ZN12Adafruit_GFX5cp437Eb), (4 bytes).
    Removing adafruit_gfx.o(i._ZN12Adafruit_GFX8drawLineEsssst), (122 bytes).
    Removing adafruit_gfx.o(i._ZN12Adafruit_GFX9setCursorEss), (6 bytes).
    Removing adafruit_gfx.o(i._ZN19Adafruit_GFX_Button10drawButtonEb), (170 bytes).
    Removing adafruit_gfx.o(i._ZN19Adafruit_GFX_Button10initButtonEP12Adafruit_GFXsstttttPch), (60 bytes).
    Removing adafruit_gfx.o(i._ZN19Adafruit_GFX_Button11justPressedEv), (16 bytes).
    Removing adafruit_gfx.o(i._ZN19Adafruit_GFX_Button12initButtonULEP12Adafruit_GFXsstttttPch), (56 bytes).
    Removing adafruit_gfx.o(i._ZN19Adafruit_GFX_Button12justReleasedEv), (16 bytes).
    Removing adafruit_gfx.o(i._ZN19Adafruit_GFX_Button5pressEb), (8 bytes).
    Removing adafruit_gfx.o(i._ZN19Adafruit_GFX_Button8containsEss), (42 bytes).
    Removing adafruit_gfx.o(i._ZN19Adafruit_GFX_Button9isPressedEv), (4 bytes).
    Removing adafruit_gfx.o(i._ZN19Adafruit_GFX_ButtonC1Ev), (6 bytes).
    Removing adafruit_gfx.o(i._ZNK12Adafruit_GFX10getCursorXEv), (6 bytes).
    Removing adafruit_gfx.o(i._ZNK12Adafruit_GFX10getCursorYEv), (6 bytes).
    Removing adafruit_gfx.o(i._ZNK12Adafruit_GFX11getRotationEv), (4 bytes).
    Removing adafruit_gfx.o(i._ZNK12Adafruit_GFX5widthEv), (6 bytes).
    Removing adafruit_gfx.o(i._ZNK12Adafruit_GFX6heightEv), (6 bytes).
    Removing adafruit_gfx.o(.ARM.exidx), (8 bytes).
    Removing adafruit_gfx.o(.ARM.exidx), (8 bytes).
    Removing adafruit_gfx.o(.ARM.exidx), (8 bytes).
    Removing adafruit_gfx.o(.ARM.exidx), (8 bytes).
    Removing adafruit_gfx.o(.ARM.exidx), (8 bytes).
    Removing adafruit_gfx.o(.ARM.exidx), (8 bytes).
    Removing adafruit_gfx.o(.ARM.exidx), (8 bytes).
    Removing adafruit_gfx.o(.ARM.exidx), (8 bytes).
    Removing adafruit_gfx.o(.ARM.exidx), (8 bytes).
    Removing adafruit_gfx.o(.ARM.exidx), (8 bytes).
    Removing adafruit_gfx.o(.ARM.exidx), (8 bytes).
    Removing adafruit_gfx.o(.ARM.exidx), (8 bytes).
    Removing adafruit_gfx.o(.ARM.exidx), (8 bytes).
    Removing adafruit_gfx.o(.ARM.exidx), (8 bytes).
    Removing adafruit_gfx.o(.ARM.exidx), (8 bytes).
    Removing adafruit_gfx.o(.ARM.exidx), (8 bytes).
    Removing adafruit_gfx.o(.ARM.exidx), (8 bytes).
    Removing adafruit_gfx.o(.ARM.exidx), (8 bytes).
    Removing adafruit_gfx.o(.ARM.exidx), (8 bytes).
    Removing adafruit_gfx.o(.ARM.exidx), (8 bytes).
    Removing adafruit_gfx.o(.ARM.exidx), (8 bytes).
    Removing adafruit_gfx.o(.ARM.exidx), (8 bytes).
    Removing adafruit_gfx.o(.ARM.exidx), (8 bytes).
    Removing adafruit_gfx.o(.ARM.exidx), (8 bytes).
    Removing adafruit_gfx.o(.ARM.exidx), (8 bytes).
    Removing adafruit_gfx.o(.ARM.exidx), (8 bytes).
    Removing adafruit_gfx.o(.ARM.exidx), (8 bytes).
    Removing adafruit_gfx.o(.ARM.exidx), (8 bytes).
    Removing adafruit_gfx.o(.ARM.exidx), (8 bytes).
    Removing adafruit_gfx.o(.ARM.exidx), (8 bytes).
    Removing adafruit_gfx.o(.ARM.exidx), (8 bytes).
    Removing adafruit_gfx.o(.ARM.exidx), (8 bytes).
    Removing adafruit_gfx.o(.ARM.exidx), (8 bytes).
    Removing adafruit_gfx.o(.ARM.exidx), (8 bytes).
    Removing adafruit_gfx.o(.ARM.exidx), (8 bytes).
    Removing adafruit_gfx.o(.ARM.exidx), (8 bytes).
    Removing adafruit_gfx.o(.ARM.exidx), (8 bytes).
    Removing adafruit_gfx.o(.ARM.exidx), (8 bytes).
    Removing adafruit_gfx.o(.ARM.exidx), (8 bytes).
    Removing adafruit_gfx.o(.ARM.exidx), (8 bytes).
    Removing adafruit_gfx.o(.ARM.exidx), (8 bytes).
    Removing adafruit_gfx.o(.ARM.exidx), (8 bytes).
    Removing adafruit_gfx.o(.ARM.exidx), (8 bytes).
    Removing adafruit_gfx.o(.ARM.exidx), (8 bytes).
    Removing adafruit_gfx.o(.ARM.exidx), (8 bytes).
    Removing adafruit_gfx.o(.ARM.exidx), (8 bytes).
    Removing adafruit_gfx.o(.ARM.exidx), (8 bytes).
    Removing adafruit_gfx.o(.ARM.exidx), (8 bytes).
    Removing adafruit_gfx.o(.ARM.exidx), (8 bytes).
    Removing adafruit_gfx.o(.ARM.exidx), (8 bytes).
    Removing adafruit_gfx.o(.ARM.exidx), (8 bytes).
    Removing adafruit_gfx.o(.ARM.exidx), (8 bytes).
    Removing adafruit_gfx.o(.ARM.exidx), (8 bytes).
    Removing adafruit_gfx.o(.ARM.exidx), (8 bytes).
    Removing adafruit_gfx.o(.ARM.exidx), (8 bytes).
    Removing adafruit_gfx.o(.ARM.exidx), (8 bytes).
    Removing adafruit_gfx.o(.ARM.exidx), (8 bytes).
    Removing adafruit_gfx.o(.ARM.exidx), (8 bytes).
    Removing adafruit_gfx.o(.ARM.exidx), (8 bytes).
    Removing adafruit_gfx.o(.ARM.exidx), (8 bytes).
    Removing adafruit_gfx.o(.ARM.exidx), (8 bytes).
    Removing adafruit_gfx.o(.ARM.exidx), (8 bytes).
    Removing adafruit_gfx.o(.ARM.exidx), (8 bytes).
    Removing adafruit_gfx.o(.ARM.exidx), (8 bytes).
    Removing adafruit_gfx.o(.ARM.exidx), (8 bytes).
    Removing adafruit_gfx.o(.ARM.exidx), (8 bytes).
    Removing adafruit_gfx.o(.ARM.exidx), (8 bytes).
    Removing adafruit_gfx.o(.ARM.exidx), (8 bytes).
    Removing adafruit_gfx.o(.ARM.exidx), (8 bytes).
    Removing adafruit_gfx.o(.ARM.exidx), (8 bytes).
    Removing adafruit_gfx.o(.ARM.exidx), (8 bytes).
    Removing adafruit_gfx.o(.ARM.exidx), (8 bytes).
    Removing adafruit_gfx.o(.ARM.exidx), (8 bytes).
    Removing adafruit_gfx.o(.ARM.exidx), (8 bytes).
    Removing adafruit_gfx.o(.ARM.exidx), (8 bytes).
    Removing adafruit_gfx.o(.ARM.exidx), (8 bytes).
    Removing adafruit_gfx.o(.ARM.exidx), (8 bytes).
    Removing adafruit_gfx.o(.ARM.exidx), (8 bytes).
    Removing adafruit_gfx.o(.ARM.exidx), (8 bytes).
    Removing adafruit_st7789.o(.rev16_text), (4 bytes).
    Removing adafruit_st7789.o(.revsh_text), (4 bytes).
    Removing adafruit_st7789.o(.rrx_text), (6 bytes).
    Removing adafruit_st7789.o(i._ZN15Adafruit_ST778913drawRGBBitmapEssPtss), (190 bytes).
    Removing adafruit_st7789.o(i._ZN15Adafruit_ST7789C1Ehhhhh), (112 bytes).
    Removing adafruit_st7789.o(.ARM.exidx), (8 bytes).
    Removing adafruit_st7789.o(.ARM.exidx), (8 bytes).
    Removing adafruit_st7789.o(.ARM.exidx), (8 bytes).
    Removing adafruit_st7789.o(.ARM.exidx), (8 bytes).
    Removing adafruit_st7789.o(.ARM.exidx), (8 bytes).
    Removing adafruit_st7789.o(.ARM.exidx), (8 bytes).
    Removing adafruit_st7789.o(.ARM.exidx), (8 bytes).
    Removing adafruit_st7789.o(.ARM.exidx), (8 bytes).
    Removing adafruit_st7789.o(.ARM.exidx), (8 bytes).
    Removing adafruit_st7789.o(.ARM.exidx), (8 bytes).
    Removing adafruit_st7789.o(.ARM.exidx), (8 bytes).
    Removing adafruit_st7789.o(.ARM.exidx), (8 bytes).
    Removing adafruit_st7789.o(.ARM.exidx), (8 bytes).
    Removing adafruit_st7789.o(.ARM.exidx), (8 bytes).
    Removing adafruit_st7789.o(.ARM.exidx), (8 bytes).
    Removing adafruit_st7789.o(.ARM.exidx), (8 bytes).
    Removing buttonevent.o(.rev16_text), (4 bytes).
    Removing buttonevent.o(.revsh_text), (4 bytes).
    Removing buttonevent.o(.rrx_text), (6 bytes).
    Removing buttonevent.o(.ARM.exidx), (8 bytes).
    Removing buttonevent.o(.ARM.exidx), (8 bytes).
    Removing buttonevent.o(.ARM.exidx), (8 bytes).
    Removing buttonevent.o(.ARM.exidx), (8 bytes).
    Removing ff.o(i.dir_read), (88 bytes).
    Removing ff.o(i.dir_remove), (52 bytes).
    Removing ff.o(i.f_chmod), (76 bytes).
    Removing ff.o(i.f_closedir), (18 bytes).
    Removing ff.o(i.f_getfree), (192 bytes).
    Removing ff.o(i.f_getlabel), (146 bytes).
    Removing ff.o(i.f_gets), (68 bytes).
    Removing ff.o(i.f_mkdir), (344 bytes).
    Removing ff.o(i.f_mkfs), (1322 bytes).
    Removing ff.o(i.f_opendir), (96 bytes).
    Removing ff.o(i.f_printf), (490 bytes).
    Removing ff.o(i.f_putc), (60 bytes).
    Removing ff.o(i.f_puts), (70 bytes).
    Removing ff.o(i.f_readdir), (78 bytes).
    Removing ff.o(i.f_rename), (262 bytes).
    Removing ff.o(i.f_setlabel), (356 bytes).
    Removing ff.o(i.f_stat), (60 bytes).
    Removing ff.o(i.f_truncate), (176 bytes).
    Removing ff.o(i.f_unlink), (162 bytes).
    Removing ff.o(i.f_utime), (80 bytes).
    Removing ff.o(i.get_fileinfo), (76 bytes).
    Removing ff.o(i.putc_bfd), (58 bytes).
    Removing ff.o(.constdata), (44 bytes).
    Removing diskio.o(.rev16_text), (4 bytes).
    Removing diskio.o(.revsh_text), (4 bytes).
    Removing diskio.o(.rrx_text), (6 bytes).
    Removing diskio.o(i._Z10ff_memfreePv), (4 bytes).
    Removing diskio.o(i._Z11ff_memallocj), (4 bytes).
    Removing diskio.o(.ARM.exidx), (8 bytes).
    Removing diskio.o(.ARM.exidx), (8 bytes).
    Removing diskio.o(.ARM.exidx), (8 bytes).
    Removing diskio.o(.ARM.exidx), (8 bytes).
    Removing diskio.o(.ARM.exidx), (8 bytes).
    Removing diskio.o(.ARM.exidx), (8 bytes).
    Removing diskio.o(.ARM.exidx), (8 bytes).
    Removing diskio.o(.ARM.exidx), (8 bytes).
    Removing sdfatfs.o(.rev16_text), (4 bytes).
    Removing sdfatfs.o(.revsh_text), (4 bytes).
    Removing sdfatfs.o(.rrx_text), (6 bytes).
    Removing sdfatfs.o(i._ZN10SD_Manager11SD_GetStateEv), (26 bytes).
    Removing sdfatfs.o(i._ZN10SD_Manager11SD_PowerOFFEv), (12 bytes).
    Removing sdfatfs.o(i._ZN10SD_Manager13SD_SendStatusEPj), (80 bytes).
    Removing sdfatfs.o(.ARM.exidx), (8 bytes).
    Removing sdfatfs.o(.ARM.exidx), (8 bytes).
    Removing sdfatfs.o(.ARM.exidx), (8 bytes).
    Removing sdfatfs.o(.ARM.exidx), (8 bytes).
    Removing sdfatfs.o(.ARM.exidx), (8 bytes).
    Removing sdfatfs.o(.ARM.exidx), (8 bytes).
    Removing sdfatfs.o(.ARM.exidx), (8 bytes).
    Removing sdfatfs.o(.ARM.exidx), (8 bytes).
    Removing sdfatfs.o(.ARM.exidx), (8 bytes).
    Removing sdfatfs.o(.ARM.exidx), (8 bytes).
    Removing sdfatfs.o(.ARM.exidx), (8 bytes).
    Removing sdfatfs.o(.ARM.exidx), (8 bytes).
    Removing sdfatfs.o(.ARM.exidx), (8 bytes).
    Removing sdfatfs.o(.ARM.exidx), (8 bytes).
    Removing sdfatfs.o(.ARM.exidx), (8 bytes).
    Removing sdfatfs.o(.ARM.exidx), (8 bytes).
    Removing sdfatfs.o(.ARM.exidx), (8 bytes).
    Removing sdfatfs.o(.ARM.exidx), (8 bytes).
    Removing sdfatfs.o(.ARM.exidx), (8 bytes).
    Removing sdfatfs.o(.ARM.exidx), (8 bytes).
    Removing sdfatfs.o(.ARM.exidx), (8 bytes).
    Removing sdfatfs.o(.ARM.exidx), (8 bytes).
    Removing sdfatfs.o(.ARM.exidx), (8 bytes).
    Removing sdfatfs.o(.ARM.exidx), (8 bytes).
    Removing sdfatfs.o(.ARM.exidx), (8 bytes).
    Removing sdfatfs.o(.ARM.exidx), (8 bytes).
    Removing sdfatfs.o(.ARM.exidx), (8 bytes).
    Removing sdfatfs.o(.ARM.exidx), (8 bytes).
    Removing sdfatfs.o(.ARM.exidx), (8 bytes).
    Removing sdfatfs.o(.ARM.exidx), (8 bytes).
    Removing sdfatfs.o(.ARM.exidx), (8 bytes).
    Removing sdfatfs.o(.ARM.exidx), (8 bytes).
    Removing sdfatfs.o(.ARM.exidx), (8 bytes).
    Removing sdfatfs.o(.ARM.exidx), (8 bytes).
    Removing button.o(.rev16_text), (4 bytes).
    Removing button.o(.revsh_text), (4 bytes).
    Removing button.o(.rrx_text), (6 bytes).
    Removing button.o(.ARM.exidx), (8 bytes).
    Removing button.o(.ARM.exidx), (8 bytes).
    Removing button.o(.ARM.exidx), (8 bytes).
    Removing button.o(.ARM.exidx), (8 bytes).
    Removing app_sdfatfs.o(.rev16_text), (4 bytes).
    Removing app_sdfatfs.o(.revsh_text), (4 bytes).
    Removing app_sdfatfs.o(.rrx_text), (6 bytes).
    Removing app_sdfatfs.o(.ARM.exidx), (8 bytes).
    Removing app_sdfatfs.o(.ARM.exidx), (8 bytes).
    Removing app_sdfatfs.o(.ARM.exidx), (8 bytes).
    Removing app_sdfatfs.o(.ARM.exidx), (8 bytes).
    Removing app_music.o(.rev16_text), (4 bytes).
    Removing app_music.o(.revsh_text), (4 bytes).
    Removing app_music.o(.rrx_text), (6 bytes).
    Removing app_music.o(.ARM.exidx), (8 bytes).
    Removing app_music.o(.ARM.exidx), (8 bytes).
    Removing app_music.o(.ARM.exidx), (8 bytes).
    Removing app_music.o(.ARM.exidx), (8 bytes).
    Removing app_music.o(.ARM.exidx), (8 bytes).
    Removing app_music.o(.ARM.exidx), (8 bytes).
    Removing app_music.o(.ARM.exidx), (8 bytes).
    Removing app_music.o(.ARM.exidx), (8 bytes).
    Removing display.o(.rev16_text), (4 bytes).
    Removing display.o(.revsh_text), (4 bytes).
    Removing display.o(.rrx_text), (6 bytes).
    Removing display.o(.ARM.exidx), (8 bytes).
    Removing display.o(.ARM.exidx), (8 bytes).
    Removing display.o(.ARM.exidx), (8 bytes).
    Removing display.o(.ARM.exidx), (8 bytes).
    Removing display.o(.ARM.exidx), (8 bytes).
    Removing display.o(.ARM.exidx), (8 bytes).
    Removing page_displate.o(.rev16_text), (4 bytes).
    Removing page_displate.o(.revsh_text), (4 bytes).
    Removing page_displate.o(.rrx_text), (6 bytes).
    Removing page_displate.o(.ARM.exidx), (8 bytes).
    Removing page_displate.o(.ARM.exidx), (8 bytes).
    Removing page_displate.o(.ARM.exidx), (8 bytes).
    Removing page_displate.o(.ARM.exidx), (8 bytes).
    Removing page_displate.o(.ARM.exidx), (8 bytes).
    Removing page_master.o(.rev16_text), (4 bytes).
    Removing page_master.o(.revsh_text), (4 bytes).
    Removing page_master.o(.rrx_text), (6 bytes).
    Removing page_master.o(.ARM.exidx), (8 bytes).
    Removing page_master.o(.ARM.exidx), (8 bytes).
    Removing page_master.o(.ARM.exidx), (8 bytes).
    Removing page_master.o(.ARM.exidx), (8 bytes).
    Removing page_master.o(.ARM.exidx), (8 bytes).
    Removing page_master.o(.ARM.exidx), (8 bytes).
    Removing page_level.o(.rev16_text), (4 bytes).
    Removing page_level.o(.revsh_text), (4 bytes).
    Removing page_level.o(.rrx_text), (6 bytes).
    Removing page_level.o(.ARM.exidx), (8 bytes).
    Removing page_level.o(.ARM.exidx), (8 bytes).
    Removing page_level.o(.ARM.exidx), (8 bytes).
    Removing page_level.o(.ARM.exidx), (8 bytes).
    Removing page_level.o(.ARM.exidx), (8 bytes).
    Removing page_level.o(.ARM.exidx), (8 bytes).
    Removing page_about.o(.rev16_text), (4 bytes).
    Removing page_about.o(.revsh_text), (4 bytes).
    Removing page_about.o(.rrx_text), (6 bytes).
    Removing page_about.o(.ARM.exidx), (8 bytes).
    Removing page_about.o(.ARM.exidx), (8 bytes).
    Removing page_about.o(.ARM.exidx), (8 bytes).
    Removing page_about.o(.ARM.exidx), (8 bytes).
    Removing page_about.o(.ARM.exidx), (8 bytes).
    Removing page_game.o(.rev16_text), (4 bytes).
    Removing page_game.o(.revsh_text), (4 bytes).
    Removing page_game.o(.rrx_text), (6 bytes).
    Removing page_game.o(.ARM.exidx), (8 bytes).
    Removing page_game.o(.ARM.exidx), (8 bytes).
    Removing page_game.o(.ARM.exidx), (8 bytes).
    Removing page_game.o(.ARM.exidx), (8 bytes).
    Removing page_game.o(.ARM.exidx), (8 bytes).
    Removing game_box.o(.rev16_text), (4 bytes).
    Removing game_box.o(.revsh_text), (4 bytes).
    Removing game_box.o(.rrx_text), (6 bytes).
    Removing game_box.o(.ARM.exidx), (8 bytes).
    Removing game_box.o(.ARM.exidx), (8 bytes).
    Removing game_box.o(.ARM.exidx), (8 bytes).
    Removing arduino.o(.rev16_text), (4 bytes).
    Removing arduino.o(.revsh_text), (4 bytes).
    Removing arduino.o(.rrx_text), (6 bytes).
    Removing arduino.o(i.analogRead), (32 bytes).
    Removing arduino.o(i.analogRead_DMA), (32 bytes).
    Removing arduino.o(i.digitalRead), (32 bytes).
    Removing arduino.o(i.fmap), (116 bytes).
    Removing arduino.o(i.map), (20 bytes).
    Removing arduino.o(i.pulseIn), (148 bytes).
    Removing arduino.o(i.shiftIn), (80 bytes).
    Removing arduino.o(i.shiftOut), (88 bytes).
    Removing arduino.o(i.yield), (2 bytes).
    Removing dtostrf.o(i.dtostrf), (64 bytes).
    Removing hardwareserial.o(.rev16_text), (4 bytes).
    Removing hardwareserial.o(.revsh_text), (4 bytes).
    Removing hardwareserial.o(.rrx_text), (6 bytes).
    Removing hardwareserial.o(i._ZN14HardwareSerial15attachInterruptEPFvvE), (4 bytes).
    Removing hardwareserial.o(i._ZN14HardwareSerial3endEv), (8 bytes).
    Removing hardwareserial.o(i._ZN14HardwareSerial4peekEv), (22 bytes).
    Removing hardwareserial.o(i._ZN14HardwareSerial4readEv), (36 bytes).
    Removing hardwareserial.o(i._ZN14HardwareSerial5flushEv), (6 bytes).
    Removing hardwareserial.o(i._ZN14HardwareSerial9availableEv), (12 bytes).
    Removing hardwareserial.o(.ARM.exidx), (8 bytes).
    Removing hardwareserial.o(.ARM.exidx), (8 bytes).
    Removing hardwareserial.o(.ARM.exidx), (8 bytes).
    Removing hardwareserial.o(.ARM.exidx), (8 bytes).
    Removing hardwareserial.o(.ARM.exidx), (8 bytes).
    Removing hardwareserial.o(.ARM.exidx), (8 bytes).
    Removing hardwareserial.o(.ARM.exidx), (8 bytes).
    Removing hardwareserial.o(.ARM.exidx), (8 bytes).
    Removing hardwareserial.o(.ARM.exidx), (8 bytes).
    Removing hardwareserial.o(.ARM.exidx), (8 bytes).
    Removing hardwareserial.o(.ARM.exidx), (8 bytes).
    Removing hardwareserial.o(.ARM.exidx), (8 bytes).
    Removing hardwareserial.o(.ARM.exidx), (8 bytes).
    Removing hardwareserial.o(.ARM.exidx), (8 bytes).
    Removing hardwareserial.o(.ARM.exidx), (8 bytes).
    Removing hardwareserial.o(.ARM.exidx), (8 bytes).
    Removing itoa.o(i.itoa), (4 bytes).
    Removing itoa.o(i.ltoa), (112 bytes).
    Removing itoa.o(i.ultoa), (88 bytes).
    Removing itoa.o(i.utoa), (4 bytes).
    Removing print.o(i._ZN5Print10printFloatEdh), (380 bytes).
    Removing print.o(i._ZN5Print11printNumberEyh), (100 bytes).
    Removing print.o(i._ZN5Print5printEPK19__FlashStringHelper), (6 bytes).
    Removing print.o(i._ZN5Print5printERK6String), (10 bytes).
    Removing print.o(i._ZN5Print5printERK9Printable), (12 bytes).
    Removing print.o(i._ZN5Print5printEdi), (6 bytes).
    Removing print.o(i._ZN5Print5printEhi), (14 bytes).
    Removing print.o(i._ZN5Print5printEii), (14 bytes).
    Removing print.o(i._ZN5Print5printEji), (14 bytes).
    Removing print.o(i._ZN5Print5printEli), (14 bytes).
    Removing print.o(i._ZN5Print5printEmi), (14 bytes).
    Removing print.o(i._ZN5Print5printExi), (64 bytes).
    Removing print.o(i._ZN5Print5printEyi), (30 bytes).
    Removing print.o(i._ZN5Print5writeEPKvj), (40 bytes).
    Removing print.o(i._ZN5Print7printlnEPK19__FlashStringHelper), (20 bytes).
    Removing print.o(i._ZN5Print7printlnERK6String), (20 bytes).
    Removing print.o(i._ZN5Print7printlnERK9Printable), (20 bytes).
    Removing print.o(i._ZN5Print7printlnEc), (20 bytes).
    Removing print.o(i._ZN5Print7printlnEdi), (20 bytes).
    Removing print.o(i._ZN5Print7printlnEhi), (20 bytes).
    Removing print.o(i._ZN5Print7printlnEii), (20 bytes).
    Removing print.o(i._ZN5Print7printlnEji), (20 bytes).
    Removing print.o(i._ZN5Print7printlnEli), (26 bytes).
    Removing print.o(i._ZN5Print7printlnEmi), (26 bytes).
    Removing print.o(i._ZN5Print7printlnExi), (26 bytes).
    Removing print.o(i._ZN5Print7printlnEyi), (26 bytes).
    Removing print.o(.ARM.exidx), (8 bytes).
    Removing print.o(.ARM.exidx), (8 bytes).
    Removing print.o(.ARM.exidx), (8 bytes).
    Removing print.o(.ARM.exidx), (8 bytes).
    Removing print.o(.ARM.exidx), (8 bytes).
    Removing print.o(.ARM.exidx), (8 bytes).
    Removing print.o(.ARM.exidx), (8 bytes).
    Removing print.o(.ARM.exidx), (8 bytes).
    Removing print.o(.ARM.exidx), (8 bytes).
    Removing print.o(.ARM.exidx), (8 bytes).
    Removing print.o(.ARM.exidx), (8 bytes).
    Removing print.o(.ARM.exidx), (8 bytes).
    Removing print.o(.ARM.exidx), (8 bytes).
    Removing print.o(.ARM.exidx), (8 bytes).
    Removing print.o(.ARM.exidx), (8 bytes).
    Removing print.o(.ARM.exidx), (8 bytes).
    Removing print.o(.ARM.exidx), (8 bytes).
    Removing print.o(.ARM.exidx), (8 bytes).
    Removing print.o(.ARM.exidx), (8 bytes).
    Removing print.o(.ARM.exidx), (8 bytes).
    Removing print.o(.ARM.exidx), (8 bytes).
    Removing print.o(.ARM.exidx), (8 bytes).
    Removing print.o(.ARM.exidx), (8 bytes).
    Removing print.o(.ARM.exidx), (8 bytes).
    Removing print.o(.ARM.exidx), (8 bytes).
    Removing print.o(.ARM.exidx), (8 bytes).
    Removing print.o(.ARM.exidx), (8 bytes).
    Removing print.o(.ARM.exidx), (8 bytes).
    Removing print.o(.ARM.exidx), (8 bytes).
    Removing print.o(.ARM.exidx), (8 bytes).
    Removing print.o(.ARM.exidx), (8 bytes).
    Removing print.o(.ARM.exidx), (8 bytes).
    Removing spi.o(.rev16_text), (4 bytes).
    Removing spi.o(.revsh_text), (4 bytes).
    Removing spi.o(.rrx_text), (6 bytes).
    Removing spi.o(i._ZN8SPIClass10beginSlaveEv), (46 bytes).
    Removing spi.o(i._ZN8SPIClass11setBitOrderEt), (36 bytes).
    Removing spi.o(i._ZN8SPIClass11setDataModeEh), (74 bytes).
    Removing spi.o(i._ZN8SPIClass11setDataSizeEt), (26 bytes).
    Removing spi.o(i._ZN8SPIClass14endTransactionEv), (8 bytes).
    Removing spi.o(i._ZN8SPIClass15setClockDividerEj), (10 bytes).
    Removing spi.o(i._ZN8SPIClass16beginTransactionE11SPISettings), (82 bytes).
    Removing spi.o(i._ZN8SPIClass21beginTransactionSlaveEv), (4 bytes).
    Removing spi.o(i._ZN8SPIClass3endEv), (8 bytes).
    Removing spi.o(i._ZN8SPIClass4readEPhj), (74 bytes).
    Removing spi.o(i._ZN8SPIClass4readEv), (12 bytes).
    Removing spi.o(i._ZN8SPIClass4recvEv), (10 bytes).
    Removing spi.o(i._ZN8SPIClass4sendEPhj), (12 bytes).
    Removing spi.o(i._ZN8SPIClass4sendEh), (10 bytes).
    Removing spi.o(i._ZN8SPIClass5beginE11SPISettings), (52 bytes).
    Removing spi.o(i._ZN8SPIClass5beginEjtt), (52 bytes).
    Removing spi.o(i._ZN8SPIClass5writeEPKhj), (38 bytes).
    Removing spi.o(i._ZN8SPIClass5writeEPKtj), (38 bytes).
    Removing spi.o(i._ZN8SPIClass5writeEt), (20 bytes).
    Removing spi.o(i._ZN8SPIClass5writeEtj), (30 bytes).
    Removing spi.o(i._ZN8SPIClassC1EP11SPI_TypeDef), (4 bytes).
    Removing spi.o(i._ZNK8SPIClass10transfer16Et), (30 bytes).
    Removing spi.o(.ARM.exidx), (8 bytes).
    Removing spi.o(.ARM.exidx), (8 bytes).
    Removing spi.o(.ARM.exidx), (8 bytes).
    Removing spi.o(.ARM.exidx), (8 bytes).
    Removing spi.o(.ARM.exidx), (8 bytes).
    Removing spi.o(.ARM.exidx), (8 bytes).
    Removing spi.o(.ARM.exidx), (8 bytes).
    Removing spi.o(.ARM.exidx), (8 bytes).
    Removing spi.o(.ARM.exidx), (8 bytes).
    Removing spi.o(.ARM.exidx), (8 bytes).
    Removing spi.o(.ARM.exidx), (8 bytes).
    Removing spi.o(.ARM.exidx), (8 bytes).
    Removing spi.o(.ARM.exidx), (8 bytes).
    Removing spi.o(.ARM.exidx), (8 bytes).
    Removing spi.o(.ARM.exidx), (8 bytes).
    Removing spi.o(.ARM.exidx), (8 bytes).
    Removing spi.o(.ARM.exidx), (8 bytes).
    Removing spi.o(.ARM.exidx), (8 bytes).
    Removing spi.o(.ARM.exidx), (8 bytes).
    Removing spi.o(.ARM.exidx), (8 bytes).
    Removing spi.o(.ARM.exidx), (8 bytes).
    Removing spi.o(.ARM.exidx), (8 bytes).
    Removing spi.o(.ARM.exidx), (8 bytes).
    Removing spi.o(.ARM.exidx), (8 bytes).
    Removing spi.o(.ARM.exidx), (8 bytes).
    Removing spi.o(.ARM.exidx), (8 bytes).
    Removing spi.o(.ARM.exidx), (8 bytes).
    Removing stream.o(.rev16_text), (4 bytes).
    Removing stream.o(.revsh_text), (4 bytes).
    Removing stream.o(.rrx_text), (6 bytes).
    Removing stream.o(i._ZN6Stream10parseFloatEc), (152 bytes).
    Removing stream.o(i._ZN6Stream10parseFloatEv), (6 bytes).
    Removing stream.o(i._ZN6Stream10readStringEv), (40 bytes).
    Removing stream.o(i._ZN6Stream10setTimeoutEm), (4 bytes).
    Removing stream.o(i._ZN6Stream13peekNextDigitEv), (38 bytes).
    Removing stream.o(i._ZN6Stream14readBytesUntilEcPcj), (52 bytes).
    Removing stream.o(i._ZN6Stream15readStringUntilEc), (44 bytes).
    Removing stream.o(i._ZN6Stream4findEPc), (36 bytes).
    Removing stream.o(i._ZN6Stream4findEPcj), (12 bytes).
    Removing stream.o(i._ZN6Stream8parseIntEc), (90 bytes).
    Removing stream.o(i._ZN6Stream8parseIntEv), (6 bytes).
    Removing stream.o(i._ZN6Stream9findMultiEPNS_11MultiTargetEi), (160 bytes).
    Removing stream.o(i._ZN6Stream9findUntilEPcS0_), (38 bytes).
    Removing stream.o(i._ZN6Stream9findUntilEPcjS0_j), (84 bytes).
    Removing stream.o(i._ZN6Stream9readBytesEPcj), (40 bytes).
    Removing stream.o(i._ZN6Stream9timedPeekEv), (42 bytes).
    Removing stream.o(i._ZN6Stream9timedReadEv), (42 bytes).
    Removing stream.o(.ARM.exidx), (8 bytes).
    Removing stream.o(.ARM.exidx), (8 bytes).
    Removing stream.o(.ARM.exidx), (8 bytes).
    Removing stream.o(.ARM.exidx), (8 bytes).
    Removing stream.o(.ARM.exidx), (8 bytes).
    Removing stream.o(.ARM.exidx), (8 bytes).
    Removing stream.o(.ARM.exidx), (8 bytes).
    Removing stream.o(.ARM.exidx), (8 bytes).
    Removing stream.o(.ARM.exidx), (8 bytes).
    Removing stream.o(.ARM.exidx), (8 bytes).
    Removing stream.o(.ARM.exidx), (8 bytes).
    Removing stream.o(.ARM.exidx), (8 bytes).
    Removing stream.o(.ARM.exidx), (8 bytes).
    Removing stream.o(.ARM.exidx), (8 bytes).
    Removing stream.o(.ARM.exidx), (8 bytes).
    Removing stream.o(.ARM.exidx), (8 bytes).
    Removing stream.o(.ARM.exidx), (8 bytes).
    Removing tone.o(.rev16_text), (4 bytes).
    Removing tone.o(.revsh_text), (4 bytes).
    Removing tone.o(.rrx_text), (6 bytes).
    Removing tone.o(i._Z12toneSetTimerP11TIM_TypeDef), (148 bytes).
    Removing tone.o(i._Z16toneBlock_Volumnhjjj), (100 bytes).
    Removing tone.o(i._Z19toneBlock_Volumn_ushjjj), (100 bytes).
    Removing tone.o(i._Z9toneBlockhjj), (84 bytes).
    Removing tone.o(.ARM.exidx), (8 bytes).
    Removing tone.o(.ARM.exidx), (8 bytes).
    Removing tone.o(.ARM.exidx), (8 bytes).
    Removing tone.o(.ARM.exidx), (8 bytes).
    Removing tone.o(.ARM.exidx), (8 bytes).
    Removing tone.o(.ARM.exidx), (8 bytes).
    Removing tone.o(.ARM.exidx), (8 bytes).
    Removing tone.o(.ARM.exidx), (8 bytes).
    Removing wire.o(.rev16_text), (4 bytes).
    Removing wire.o(.revsh_text), (4 bytes).
    Removing wire.o(.rrx_text), (6 bytes).
    Removing wire.o(i._ZN7TwoWire11i2c_get_ackEv), (54 bytes).
    Removing wire.o(i._ZN7TwoWire12i2c_send_ackEv), (30 bytes).
    Removing wire.o(i._ZN7TwoWire12i2c_shift_inEv), (58 bytes).
    Removing wire.o(i._ZN7TwoWire13i2c_send_nackEv), (30 bytes).
    Removing wire.o(i._ZN7TwoWire13i2c_shift_outEh), (62 bytes).
    Removing wire.o(i._ZN7TwoWire5beginEh), (58 bytes).
    Removing wire.o(i._ZN7TwoWire7processEv), (168 bytes).
    Removing wire.o(i._ZN7TwoWire7set_sclEb), (42 bytes).
    Removing wire.o(i._ZN7TwoWire7set_sdaEb), (26 bytes).
    Removing wire.o(i._ZN7TwoWire8i2c_stopEv), (30 bytes).
    Removing wire.o(i._ZN7TwoWire9i2c_startEv), (22 bytes).
    Removing wire.o(.ARM.exidx), (8 bytes).
    Removing wire.o(.ARM.exidx), (8 bytes).
    Removing wire.o(.ARM.exidx), (8 bytes).
    Removing wire.o(.ARM.exidx), (8 bytes).
    Removing wire.o(.ARM.exidx), (8 bytes).
    Removing wire.o(.ARM.exidx), (8 bytes).
    Removing wire.o(.ARM.exidx), (8 bytes).
    Removing wire.o(.ARM.exidx), (8 bytes).
    Removing wire.o(.ARM.exidx), (8 bytes).
    Removing wire.o(.ARM.exidx), (8 bytes).
    Removing wire.o(.ARM.exidx), (8 bytes).
    Removing wire.o(.ARM.exidx), (8 bytes).
    Removing wire.o(.ARM.exidx), (8 bytes).
    Removing wire.o(.ARM.exidx), (8 bytes).
    Removing wirebase.o(.rev16_text), (4 bytes).
    Removing wirebase.o(.revsh_text), (4 bytes).
    Removing wirebase.o(.rrx_text), (6 bytes).
    Removing wirebase.o(i._ZN8WireBase11requestFromEhi), (58 bytes).
    Removing wirebase.o(i._ZN8WireBase11requestFromEii), (6 bytes).
    Removing wirebase.o(i._ZN8WireBase15endTransmissionEv), (32 bytes).
    Removing wirebase.o(i._ZN8WireBase17beginTransmissionEh), (22 bytes).
    Removing wirebase.o(i._ZN8WireBase17beginTransmissionEi), (6 bytes).
    Removing wirebase.o(i._ZN8WireBase4readEv), (58 bytes).
    Removing wirebase.o(i._ZN8WireBase5beginEh), (18 bytes).
    Removing wirebase.o(i._ZN8WireBase5writeEPc), (24 bytes).
    Removing wirebase.o(i._ZN8WireBase5writeEPhi), (30 bytes).
    Removing wirebase.o(i._ZN8WireBase5writeEPii), (6 bytes).
    Removing wirebase.o(i._ZN8WireBase5writeEh), (40 bytes).
    Removing wirebase.o(i._ZN8WireBase5writeEi), (6 bytes).
    Removing wirebase.o(i._ZN8WireBase8setClockEj), (2 bytes).
    Removing wirebase.o(i._ZN8WireBase9availableEv), (14 bytes).
    Removing wirebase.o(.ARM.exidx), (8 bytes).
    Removing wirebase.o(.ARM.exidx), (8 bytes).
    Removing wirebase.o(.ARM.exidx), (8 bytes).
    Removing wirebase.o(.ARM.exidx), (8 bytes).
    Removing wirebase.o(.ARM.exidx), (8 bytes).
    Removing wirebase.o(.ARM.exidx), (8 bytes).
    Removing wirebase.o(.ARM.exidx), (8 bytes).
    Removing wirebase.o(.ARM.exidx), (8 bytes).
    Removing wirebase.o(.ARM.exidx), (8 bytes).
    Removing wirebase.o(.ARM.exidx), (8 bytes).
    Removing wirebase.o(.ARM.exidx), (8 bytes).
    Removing wirebase.o(.ARM.exidx), (8 bytes).
    Removing wirebase.o(.ARM.exidx), (8 bytes).
    Removing wirebase.o(.ARM.exidx), (8 bytes).
    Removing wmath.o(i._Z10randomSeedm), (10 bytes).
    Removing wmath.o(i._Z6randoml), (24 bytes).
    Removing wmath.o(i._Z6randomll), (18 bytes).
    Removing wmath.o(i._Z8makeWordhh), (6 bytes).
    Removing wmath.o(i._Z8makeWordj), (2 bytes).
    Removing wmath.o(.ARM.exidx), (8 bytes).
    Removing wmath.o(.ARM.exidx), (8 bytes).
    Removing wmath.o(.ARM.exidx), (8 bytes).
    Removing wmath.o(.ARM.exidx), (8 bytes).
    Removing wmath.o(.ARM.exidx), (8 bytes).
    Removing wstring.o(i._ZN6String10invalidateEv), (22 bytes).
    Removing wstring.o(i._ZN6String11toLowerCaseEv), (28 bytes).
    Removing wstring.o(i._ZN6String11toUpperCaseEv), (28 bytes).
    Removing wstring.o(i._ZN6String12changeBufferEj), (26 bytes).
    Removing wstring.o(i._ZN6String4copyEPK19__FlashStringHelperj), (38 bytes).
    Removing wstring.o(i._ZN6String4copyEPKcj), (38 bytes).
    Removing wstring.o(i._ZN6String4trimEv), (84 bytes).
    Removing wstring.o(i._ZN6String6concatEPK19__FlashStringHelper), (54 bytes).
    Removing wstring.o(i._ZN6String6concatEPKc), (32 bytes).
    Removing wstring.o(i._ZN6String6concatEPKcj), (50 bytes).
    Removing wstring.o(i._ZN6String6concatERKS_), (8 bytes).
    Removing wstring.o(i._ZN6String6concatEc), (22 bytes).
    Removing wstring.o(i._ZN6String6concatEd), (36 bytes).
    Removing wstring.o(i._ZN6String6concatEf), (48 bytes).
    Removing wstring.o(i._ZN6String6concatEh), (34 bytes).
    Removing wstring.o(i._ZN6String6concatEi), (36 bytes).
    Removing wstring.o(i._ZN6String6concatEj), (36 bytes).
    Removing wstring.o(i._ZN6String6concatEl), (36 bytes).
    Removing wstring.o(i._ZN6String6concatEm), (36 bytes).
    Removing wstring.o(i._ZN6String6removeEj), (8 bytes).
    Removing wstring.o(i._ZN6String6removeEjj), (54 bytes).
    Removing wstring.o(i._ZN6String7replaceERKS_S1_), (270 bytes).
    Removing wstring.o(i._ZN6String7replaceEcc), (24 bytes).
    Removing wstring.o(i._ZN6String7reserveEj), (38 bytes).
    Removing wstring.o(i._ZN6String7sprintfEPKcz), (48 bytes).
    Removing wstring.o(i._ZN6String9setCharAtEjc), (12 bytes).
    Removing wstring.o(i._ZN6StringC1EPK19__FlashStringHelper), (22 bytes).
    Removing wstring.o(i._ZN6StringC1EPKc), (32 bytes).
    Removing wstring.o(i._ZN6StringC1ERKS_), (22 bytes).
    Removing wstring.o(i._ZN6StringC1Ec), (32 bytes).
    Removing wstring.o(i._ZN6StringC1Edh), (62 bytes).
    Removing wstring.o(i._ZN6StringC1Efh), (62 bytes).
    Removing wstring.o(i._ZN6StringC1Ehh), (34 bytes).
    Removing wstring.o(i._ZN6StringC1Eih), (38 bytes).
    Removing wstring.o(i._ZN6StringC1Ejh), (38 bytes).
    Removing wstring.o(i._ZN6StringC1Elh), (38 bytes).
    Removing wstring.o(i._ZN6StringC1Emh), (38 bytes).
    Removing wstring.o(i._ZN6StringD1Ev), (14 bytes).
    Removing wstring.o(i._ZN6StringaSEPK19__FlashStringHelper), (34 bytes).
    Removing wstring.o(i._ZN6StringaSEPKc), (34 bytes).
    Removing wstring.o(i._ZN6StringaSERKS_), (34 bytes).
    Removing wstring.o(i._ZN6StringixEj), (28 bytes).
    Removing wstring.o(i._ZNK6String10startsWithERKS_), (18 bytes).
    Removing wstring.o(i._ZNK6String10startsWithERKS_j), (38 bytes).
    Removing wstring.o(i._ZNK6String11lastIndexOfERKS_), (10 bytes).
    Removing wstring.o(i._ZNK6String11lastIndexOfERKS_j), (70 bytes).
    Removing wstring.o(i._ZNK6String11lastIndexOfEc), (8 bytes).
    Removing wstring.o(i._ZNK6String11lastIndexOfEcj), (50 bytes).
    Removing wstring.o(i._ZNK6String16equalsIgnoreCaseERKS_), (56 bytes).
    Removing wstring.o(i._ZNK6String5toIntEv), (12 bytes).
    Removing wstring.o(i._ZNK6String6charAtEj), (4 bytes).
    Removing wstring.o(i._ZNK6String6equalsEPKc), (34 bytes).
    Removing wstring.o(i._ZNK6String6equalsERKS_), (24 bytes).
    Removing wstring.o(i._ZNK6String7indexOfERKS_), (6 bytes).
    Removing wstring.o(i._ZNK6String7indexOfERKS_j), (36 bytes).
    Removing wstring.o(i._ZNK6String7indexOfEc), (6 bytes).
    Removing wstring.o(i._ZNK6String7indexOfEcj), (34 bytes).
    Removing wstring.o(i._ZNK6String7toFloatEv), (36 bytes).
    Removing wstring.o(i._ZNK6String8endsWithERKS_), (36 bytes).
    Removing wstring.o(i._ZNK6String8getBytesEPhjj), (52 bytes).
    Removing wstring.o(i._ZNK6String9compareToERKS_), (42 bytes).
    Removing wstring.o(i._ZNK6String9substringEjj), (64 bytes).
    Removing wstring.o(i._ZNK6StringgeERKS_), (12 bytes).
    Removing wstring.o(i._ZNK6StringgtERKS_), (18 bytes).
    Removing wstring.o(i._ZNK6StringixEj), (18 bytes).
    Removing wstring.o(i._ZNK6StringleERKS_), (18 bytes).
    Removing wstring.o(i._ZNK6StringltERKS_), (10 bytes).
    Removing wstring.o(i._ZplRK15StringSumHelperPK19__FlashStringHelper), (20 bytes).
    Removing wstring.o(i._ZplRK15StringSumHelperPKc), (36 bytes).
    Removing wstring.o(i._ZplRK15StringSumHelperRK6String), (24 bytes).
    Removing wstring.o(i._ZplRK15StringSumHelperc), (20 bytes).
    Removing wstring.o(i._ZplRK15StringSumHelperd), (20 bytes).
    Removing wstring.o(i._ZplRK15StringSumHelperf), (20 bytes).
    Removing wstring.o(i._ZplRK15StringSumHelperh), (20 bytes).
    Removing wstring.o(i._ZplRK15StringSumHelperi), (20 bytes).
    Removing wstring.o(i._ZplRK15StringSumHelperj), (20 bytes).
    Removing wstring.o(i._ZplRK15StringSumHelperl), (20 bytes).
    Removing wstring.o(i._ZplRK15StringSumHelperm), (20 bytes).
    Removing wstring.o(.ARM.exidx), (8 bytes).
    Removing wstring.o(.ARM.exidx), (8 bytes).
    Removing wstring.o(.ARM.exidx), (8 bytes).
    Removing wstring.o(.ARM.exidx), (8 bytes).
    Removing wstring.o(.ARM.exidx), (8 bytes).
    Removing wstring.o(.ARM.exidx), (8 bytes).
    Removing wstring.o(.ARM.exidx), (8 bytes).
    Removing wstring.o(.ARM.exidx), (8 bytes).
    Removing wstring.o(.ARM.exidx), (8 bytes).
    Removing wstring.o(.ARM.exidx), (8 bytes).
    Removing wstring.o(.ARM.exidx), (8 bytes).
    Removing wstring.o(.ARM.exidx), (8 bytes).
    Removing wstring.o(.ARM.exidx), (8 bytes).
    Removing wstring.o(.ARM.exidx), (8 bytes).
    Removing wstring.o(.ARM.exidx), (8 bytes).
    Removing wstring.o(.ARM.exidx), (8 bytes).
    Removing wstring.o(.ARM.exidx), (8 bytes).
    Removing wstring.o(.ARM.exidx), (8 bytes).
    Removing wstring.o(.ARM.exidx), (8 bytes).
    Removing wstring.o(.ARM.exidx), (8 bytes).
    Removing wstring.o(.ARM.exidx), (8 bytes).
    Removing wstring.o(.ARM.exidx), (8 bytes).
    Removing wstring.o(.ARM.exidx), (8 bytes).
    Removing wstring.o(.ARM.exidx), (8 bytes).
    Removing wstring.o(.ARM.exidx), (8 bytes).
    Removing wstring.o(.ARM.exidx), (8 bytes).
    Removing wstring.o(.ARM.exidx), (8 bytes).
    Removing wstring.o(.ARM.exidx), (8 bytes).
    Removing wstring.o(.ARM.exidx), (8 bytes).
    Removing wstring.o(.ARM.exidx), (8 bytes).
    Removing wstring.o(.ARM.exidx), (8 bytes).
    Removing wstring.o(.ARM.exidx), (8 bytes).
    Removing wstring.o(.ARM.exidx), (8 bytes).
    Removing wstring.o(.ARM.exidx), (8 bytes).
    Removing wstring.o(.ARM.exidx), (8 bytes).
    Removing wstring.o(.ARM.exidx), (8 bytes).
    Removing wstring.o(.ARM.exidx), (8 bytes).
    Removing wstring.o(.ARM.exidx), (8 bytes).
    Removing wstring.o(.ARM.exidx), (8 bytes).
    Removing wstring.o(.ARM.exidx), (8 bytes).
    Removing wstring.o(.ARM.exidx), (8 bytes).
    Removing wstring.o(.ARM.exidx), (8 bytes).
    Removing wstring.o(.ARM.exidx), (8 bytes).
    Removing wstring.o(.ARM.exidx), (8 bytes).
    Removing wstring.o(.ARM.exidx), (8 bytes).
    Removing wstring.o(.ARM.exidx), (8 bytes).
    Removing wstring.o(.ARM.exidx), (8 bytes).
    Removing wstring.o(.ARM.exidx), (8 bytes).
    Removing wstring.o(.ARM.exidx), (8 bytes).
    Removing wstring.o(.ARM.exidx), (8 bytes).
    Removing wstring.o(.ARM.exidx), (8 bytes).
    Removing wstring.o(.ARM.exidx), (8 bytes).
    Removing wstring.o(.ARM.exidx), (8 bytes).
    Removing wstring.o(.ARM.exidx), (8 bytes).
    Removing wstring.o(.ARM.exidx), (8 bytes).
    Removing wstring.o(.ARM.exidx), (8 bytes).
    Removing wstring.o(.ARM.exidx), (8 bytes).
    Removing wstring.o(.ARM.exidx), (8 bytes).
    Removing wstring.o(.ARM.exidx), (8 bytes).
    Removing wstring.o(.ARM.exidx), (8 bytes).
    Removing wstring.o(.ARM.exidx), (8 bytes).
    Removing wstring.o(.ARM.exidx), (8 bytes).
    Removing wstring.o(.ARM.exidx), (8 bytes).
    Removing wstring.o(.ARM.exidx), (8 bytes).
    Removing wstring.o(.ARM.exidx), (8 bytes).
    Removing wstring.o(.ARM.exidx), (8 bytes).
    Removing wstring.o(.ARM.exidx), (8 bytes).
    Removing wstring.o(.ARM.exidx), (8 bytes).
    Removing wstring.o(.ARM.exidx), (8 bytes).
    Removing wstring.o(.ARM.exidx), (8 bytes).
    Removing wstring.o(.ARM.exidx), (8 bytes).
    Removing wstring.o(.ARM.exidx), (8 bytes).
    Removing wstring.o(.ARM.exidx), (8 bytes).
    Removing wstring.o(.ARM.exidx), (8 bytes).
    Removing wstring.o(.ARM.exidx), (8 bytes).
    Removing wstring.o(.ARM.exidx), (8 bytes).
    Removing wstring.o(.ARM.exidx), (8 bytes).
    Removing wstring.o(.ARM.exidx), (8 bytes).
    Removing wstring.o(.data), (1 bytes).
    Removing misc.o(.rev16_text), (4 bytes).
    Removing misc.o(.revsh_text), (4 bytes).
    Removing misc.o(.rrx_text), (6 bytes).
    Removing misc.o(i.NVIC_SetVectorTable), (20 bytes).
    Removing misc.o(i.NVIC_SystemLPConfig), (24 bytes).
    Removing misc.o(i.SysTick_CLKSourceConfig), (24 bytes).
    Removing stm32f4xx_adc.o(.rev16_text), (4 bytes).
    Removing stm32f4xx_adc.o(.revsh_text), (4 bytes).
    Removing stm32f4xx_adc.o(.rrx_text), (6 bytes).
    Removing stm32f4xx_adc.o(i.ADC_AnalogWatchdogCmd), (16 bytes).
    Removing stm32f4xx_adc.o(i.ADC_AnalogWatchdogSingleChannelConfig), (12 bytes).
    Removing stm32f4xx_adc.o(i.ADC_AnalogWatchdogThresholdsConfig), (6 bytes).
    Removing stm32f4xx_adc.o(i.ADC_AutoInjectedConvCmd), (20 bytes).
    Removing stm32f4xx_adc.o(i.ADC_ClearFlag), (6 bytes).
    Removing stm32f4xx_adc.o(i.ADC_ClearITPendingBit), (8 bytes).
    Removing stm32f4xx_adc.o(i.ADC_Cmd), (20 bytes).
    Removing stm32f4xx_adc.o(i.ADC_CommonInit), (44 bytes).
    Removing stm32f4xx_adc.o(i.ADC_CommonStructInit), (12 bytes).
    Removing stm32f4xx_adc.o(i.ADC_ContinuousModeCmd), (20 bytes).
    Removing stm32f4xx_adc.o(i.ADC_DMACmd), (20 bytes).
    Removing stm32f4xx_adc.o(i.ADC_DMARequestAfterLastTransferCmd), (20 bytes).
    Removing stm32f4xx_adc.o(i.ADC_DeInit), (24 bytes).
    Removing stm32f4xx_adc.o(i.ADC_DiscModeChannelCountConfig), (16 bytes).
    Removing stm32f4xx_adc.o(i.ADC_DiscModeCmd), (20 bytes).
    Removing stm32f4xx_adc.o(i.ADC_EOCOnEachRegularChannelCmd), (20 bytes).
    Removing stm32f4xx_adc.o(i.ADC_ExternalTrigInjectedConvConfig), (12 bytes).
    Removing stm32f4xx_adc.o(i.ADC_ExternalTrigInjectedConvEdgeConfig), (12 bytes).
    Removing stm32f4xx_adc.o(i.ADC_GetConversionValue), (6 bytes).
    Removing stm32f4xx_adc.o(i.ADC_GetFlagStatus), (14 bytes).
    Removing stm32f4xx_adc.o(i.ADC_GetITStatus), (30 bytes).
    Removing stm32f4xx_adc.o(i.ADC_GetInjectedConversionValue), (14 bytes).
    Removing stm32f4xx_adc.o(i.ADC_GetMultiModeConversionValue), (12 bytes).
    Removing stm32f4xx_adc.o(i.ADC_GetSoftwareStartConvStatus), (14 bytes).
    Removing stm32f4xx_adc.o(i.ADC_GetSoftwareStartInjectedConvCmdStatus), (14 bytes).
    Removing stm32f4xx_adc.o(i.ADC_ITConfig), (18 bytes).
    Removing stm32f4xx_adc.o(i.ADC_Init), (76 bytes).
    Removing stm32f4xx_adc.o(i.ADC_InjectedChannelConfig), (74 bytes).
    Removing stm32f4xx_adc.o(i.ADC_InjectedDiscModeCmd), (20 bytes).
    Removing stm32f4xx_adc.o(i.ADC_InjectedSequencerLengthConfig), (16 bytes).
    Removing stm32f4xx_adc.o(i.ADC_MultiModeDMARequestAfterLastTransferCmd), (32 bytes).
    Removing stm32f4xx_adc.o(i.ADC_RegularChannelConfig), (116 bytes).
    Removing stm32f4xx_adc.o(i.ADC_SetInjectedOffset), (10 bytes).
    Removing stm32f4xx_adc.o(i.ADC_SoftwareStartConv), (10 bytes).
    Removing stm32f4xx_adc.o(i.ADC_SoftwareStartInjectedConv), (10 bytes).
    Removing stm32f4xx_adc.o(i.ADC_StructInit), (20 bytes).
    Removing stm32f4xx_adc.o(i.ADC_TempSensorVrefintCmd), (32 bytes).
    Removing stm32f4xx_adc.o(i.ADC_VBATCmd), (32 bytes).
    Removing stm32f4xx_can.o(.rev16_text), (4 bytes).
    Removing stm32f4xx_can.o(.revsh_text), (4 bytes).
    Removing stm32f4xx_can.o(.rrx_text), (6 bytes).
    Removing stm32f4xx_can.o(i.CAN_CancelTransmit), (36 bytes).
    Removing stm32f4xx_can.o(i.CAN_ClearFlag), (48 bytes).
    Removing stm32f4xx_can.o(i.CAN_ClearITPendingBit), (120 bytes).
    Removing stm32f4xx_can.o(i.CAN_DBGFreeze), (20 bytes).
    Removing stm32f4xx_can.o(i.CAN_DeInit), (44 bytes).
    Removing stm32f4xx_can.o(i.CAN_FIFORelease), (22 bytes).
    Removing stm32f4xx_can.o(i.CAN_FilterInit), (204 bytes).
    Removing stm32f4xx_can.o(i.CAN_GetFlagStatus), (52 bytes).
    Removing stm32f4xx_can.o(i.CAN_GetITStatus), (168 bytes).
    Removing stm32f4xx_can.o(i.CAN_GetLSBTransmitErrorCounter), (8 bytes).
    Removing stm32f4xx_can.o(i.CAN_GetLastErrorCode), (10 bytes).
    Removing stm32f4xx_can.o(i.CAN_GetReceiveErrorCounter), (6 bytes).
    Removing stm32f4xx_can.o(i.CAN_ITConfig), (16 bytes).
    Removing stm32f4xx_can.o(i.CAN_Init), (232 bytes).
    Removing stm32f4xx_can.o(i.CAN_MessagePending), (22 bytes).
    Removing stm32f4xx_can.o(i.CAN_OperatingModeRequest), (140 bytes).
    Removing stm32f4xx_can.o(i.CAN_Receive), (144 bytes).
    Removing stm32f4xx_can.o(i.CAN_SlaveStartBank), (44 bytes).
    Removing stm32f4xx_can.o(i.CAN_Sleep), (30 bytes).
    Removing stm32f4xx_can.o(i.CAN_StructInit), (32 bytes).
    Removing stm32f4xx_can.o(i.CAN_TTComModeCmd), (90 bytes).
    Removing stm32f4xx_can.o(i.CAN_Transmit), (164 bytes).
    Removing stm32f4xx_can.o(i.CAN_TransmitStatus), (108 bytes).
    Removing stm32f4xx_can.o(i.CAN_WakeUp), (40 bytes).
    Removing stm32f4xx_can.o(i.CheckITStatus), (12 bytes).
    Removing stm32f4xx_cec.o(.rev16_text), (4 bytes).
    Removing stm32f4xx_cec.o(.revsh_text), (4 bytes).
    Removing stm32f4xx_cec.o(.rrx_text), (6 bytes).
    Removing stm32f4xx_crc.o(.rev16_text), (4 bytes).
    Removing stm32f4xx_crc.o(.revsh_text), (4 bytes).
    Removing stm32f4xx_crc.o(.rrx_text), (6 bytes).
    Removing stm32f4xx_crc.o(i.CRC_CalcBlockCRC), (28 bytes).
    Removing stm32f4xx_crc.o(i.CRC_CalcCRC), (12 bytes).
    Removing stm32f4xx_crc.o(i.CRC_GetCRC), (12 bytes).
    Removing stm32f4xx_crc.o(i.CRC_GetIDRegister), (12 bytes).
    Removing stm32f4xx_crc.o(i.CRC_ResetDR), (12 bytes).
    Removing stm32f4xx_crc.o(i.CRC_SetIDRegister), (12 bytes).
    Removing stm32f4xx_cryp.o(.rev16_text), (4 bytes).
    Removing stm32f4xx_cryp.o(.revsh_text), (4 bytes).
    Removing stm32f4xx_cryp.o(.rrx_text), (6 bytes).
    Removing stm32f4xx_cryp.o(i.CRYP_Cmd), (28 bytes).
    Removing stm32f4xx_cryp.o(i.CRYP_DMACmd), (28 bytes).
    Removing stm32f4xx_cryp.o(i.CRYP_DataIn), (12 bytes).
    Removing stm32f4xx_cryp.o(i.CRYP_DataOut), (12 bytes).
    Removing stm32f4xx_cryp.o(i.CRYP_DeInit), (22 bytes).
    Removing stm32f4xx_cryp.o(i.CRYP_FIFOFlush), (16 bytes).
    Removing stm32f4xx_cryp.o(i.CRYP_GetCmdStatus), (20 bytes).
    Removing stm32f4xx_cryp.o(i.CRYP_GetFlagStatus), (28 bytes).
    Removing stm32f4xx_cryp.o(i.CRYP_GetITStatus), (20 bytes).
    Removing stm32f4xx_cryp.o(i.CRYP_ITConfig), (28 bytes).
    Removing stm32f4xx_cryp.o(i.CRYP_IVInit), (24 bytes).
    Removing stm32f4xx_cryp.o(i.CRYP_IVStructInit), (12 bytes).
    Removing stm32f4xx_cryp.o(i.CRYP_Init), (92 bytes).
    Removing stm32f4xx_cryp.o(i.CRYP_KeyInit), (40 bytes).
    Removing stm32f4xx_cryp.o(i.CRYP_KeyStructInit), (20 bytes).
    Removing stm32f4xx_cryp.o(i.CRYP_PhaseConfig), (20 bytes).
    Removing stm32f4xx_cryp.o(i.CRYP_RestoreContext), (136 bytes).
    Removing stm32f4xx_cryp.o(i.CRYP_SaveContext), (220 bytes).
    Removing stm32f4xx_cryp.o(i.CRYP_StructInit), (12 bytes).
    Removing stm32f4xx_cryp_aes.o(.rev16_text), (4 bytes).
    Removing stm32f4xx_cryp_aes.o(.revsh_text), (4 bytes).
    Removing stm32f4xx_cryp_aes.o(.rrx_text), (6 bytes).
    Removing stm32f4xx_cryp_aes.o(i.CRYP_AES_CBC), (434 bytes).
    Removing stm32f4xx_cryp_aes.o(i.CRYP_AES_CCM), (1420 bytes).
    Removing stm32f4xx_cryp_aes.o(i.CRYP_AES_CTR), (388 bytes).
    Removing stm32f4xx_cryp_aes.o(i.CRYP_AES_ECB), (400 bytes).
    Removing stm32f4xx_cryp_aes.o(i.CRYP_AES_GCM), (1078 bytes).
    Removing stm32f4xx_cryp_des.o(.rev16_text), (4 bytes).
    Removing stm32f4xx_cryp_des.o(.revsh_text), (4 bytes).
    Removing stm32f4xx_cryp_des.o(.rrx_text), (6 bytes).
    Removing stm32f4xx_cryp_des.o(i.CRYP_DES_CBC), (226 bytes).
    Removing stm32f4xx_cryp_des.o(i.CRYP_DES_ECB), (204 bytes).
    Removing stm32f4xx_cryp_tdes.o(.rev16_text), (4 bytes).
    Removing stm32f4xx_cryp_tdes.o(.revsh_text), (4 bytes).
    Removing stm32f4xx_cryp_tdes.o(.rrx_text), (6 bytes).
    Removing stm32f4xx_cryp_tdes.o(i.CRYP_TDES_CBC), (258 bytes).
    Removing stm32f4xx_cryp_tdes.o(i.CRYP_TDES_ECB), (234 bytes).
    Removing stm32f4xx_dac.o(.rev16_text), (4 bytes).
    Removing stm32f4xx_dac.o(.revsh_text), (4 bytes).
    Removing stm32f4xx_dac.o(.rrx_text), (6 bytes).
    Removing stm32f4xx_dac.o(i.DAC_ClearFlag), (12 bytes).
    Removing stm32f4xx_dac.o(i.DAC_ClearITPendingBit), (12 bytes).
    Removing stm32f4xx_dac.o(i.DAC_Cmd), (24 bytes).
    Removing stm32f4xx_dac.o(i.DAC_DMACmd), (24 bytes).
    Removing stm32f4xx_dac.o(i.DAC_DeInit), (24 bytes).
    Removing stm32f4xx_dac.o(i.DAC_DualSoftwareTriggerCmd), (28 bytes).
    Removing stm32f4xx_dac.o(i.DAC_GetDataOutputValue), (24 bytes).
    Removing stm32f4xx_dac.o(i.DAC_GetFlagStatus), (24 bytes).
    Removing stm32f4xx_dac.o(i.DAC_GetITStatus), (36 bytes).
    Removing stm32f4xx_dac.o(i.DAC_ITConfig), (24 bytes).
    Removing stm32f4xx_dac.o(i.DAC_Init), (40 bytes).
    Removing stm32f4xx_dac.o(i.DAC_SetChannel1Data), (20 bytes).
    Removing stm32f4xx_dac.o(i.DAC_SetChannel2Data), (20 bytes).
    Removing stm32f4xx_dac.o(i.DAC_SetDualChannelData), (28 bytes).
    Removing stm32f4xx_dac.o(i.DAC_SoftwareTriggerCmd), (28 bytes).
    Removing stm32f4xx_dac.o(i.DAC_StructInit), (12 bytes).
    Removing stm32f4xx_dac.o(i.DAC_WaveGenerationCmd), (24 bytes).
    Removing stm32f4xx_dbgmcu.o(.rev16_text), (4 bytes).
    Removing stm32f4xx_dbgmcu.o(.revsh_text), (4 bytes).
    Removing stm32f4xx_dbgmcu.o(.rrx_text), (6 bytes).
    Removing stm32f4xx_dbgmcu.o(i.DBGMCU_APB1PeriphConfig), (24 bytes).
    Removing stm32f4xx_dbgmcu.o(i.DBGMCU_APB2PeriphConfig), (24 bytes).
    Removing stm32f4xx_dbgmcu.o(i.DBGMCU_Config), (24 bytes).
    Removing stm32f4xx_dbgmcu.o(i.DBGMCU_GetDEVID), (16 bytes).
    Removing stm32f4xx_dbgmcu.o(i.DBGMCU_GetREVID), (12 bytes).
    Removing stm32f4xx_dcmi.o(.rev16_text), (4 bytes).
    Removing stm32f4xx_dcmi.o(.revsh_text), (4 bytes).
    Removing stm32f4xx_dcmi.o(.rrx_text), (6 bytes).
    Removing stm32f4xx_dcmi.o(i.DCMI_CROPCmd), (28 bytes).
    Removing stm32f4xx_dcmi.o(i.DCMI_CROPConfig), (24 bytes).
    Removing stm32f4xx_dcmi.o(i.DCMI_CaptureCmd), (28 bytes).
    Removing stm32f4xx_dcmi.o(i.DCMI_ClearFlag), (12 bytes).
    Removing stm32f4xx_dcmi.o(i.DCMI_ClearITPendingBit), (12 bytes).
    Removing stm32f4xx_dcmi.o(i.DCMI_Cmd), (28 bytes).
    Removing stm32f4xx_dcmi.o(i.DCMI_DeInit), (28 bytes).
    Removing stm32f4xx_dcmi.o(i.DCMI_GetFlagStatus), (36 bytes).
    Removing stm32f4xx_dcmi.o(i.DCMI_GetITStatus), (20 bytes).
    Removing stm32f4xx_dcmi.o(i.DCMI_ITConfig), (28 bytes).
    Removing stm32f4xx_dcmi.o(i.DCMI_Init), (60 bytes).
    Removing stm32f4xx_dcmi.o(i.DCMI_JPEGCmd), (28 bytes).
    Removing stm32f4xx_dcmi.o(i.DCMI_ReadData), (12 bytes).
    Removing stm32f4xx_dcmi.o(i.DCMI_SetEmbeddedSynchroCodes), (20 bytes).
    Removing stm32f4xx_dcmi.o(i.DCMI_StructInit), (18 bytes).
    Removing stm32f4xx_dfsdm.o(.rev16_text), (4 bytes).
    Removing stm32f4xx_dfsdm.o(.revsh_text), (4 bytes).
    Removing stm32f4xx_dfsdm.o(.rrx_text), (6 bytes).
    Removing stm32f4xx_dma.o(.rev16_text), (4 bytes).
    Removing stm32f4xx_dma.o(.revsh_text), (4 bytes).
    Removing stm32f4xx_dma.o(.rrx_text), (6 bytes).
    Removing stm32f4xx_dma.o(i.DMA_ClearFlag), (44 bytes).
    Removing stm32f4xx_dma.o(i.DMA_ClearITPendingBit), (44 bytes).
    Removing stm32f4xx_dma.o(i.DMA_DoubleBufferModeCmd), (20 bytes).
    Removing stm32f4xx_dma.o(i.DMA_DoubleBufferModeConfig), (22 bytes).
    Removing stm32f4xx_dma.o(i.DMA_GetCurrDataCounter), (6 bytes).
    Removing stm32f4xx_dma.o(i.DMA_GetCurrentMemoryTarget), (14 bytes).
    Removing stm32f4xx_dma.o(i.DMA_GetFIFOStatus), (8 bytes).
    Removing stm32f4xx_dma.o(i.DMA_GetFlagStatus), (52 bytes).
    Removing stm32f4xx_dma.o(i.DMA_GetITStatus), (84 bytes).
    Removing stm32f4xx_dma.o(i.DMA_ITConfig), (44 bytes).
    Removing stm32f4xx_dma.o(i.DMA_MemoryTargetConfig), (10 bytes).
    Removing stm32f4xx_dma.o(i.DMA_PeriphIncOffsetSizeConfig), (20 bytes).
    Removing stm32f4xx_dma.o(i.DMA_SetCurrDataCounter), (4 bytes).
    Removing stm32f4xx_dma.o(i.DMA_StructInit), (34 bytes).
    Removing stm32f4xx_dma2d.o(.rev16_text), (4 bytes).
    Removing stm32f4xx_dma2d.o(.revsh_text), (4 bytes).
    Removing stm32f4xx_dma2d.o(.rrx_text), (6 bytes).
    Removing stm32f4xx_dma2d.o(i.DMA2D_AbortTransfer), (16 bytes).
    Removing stm32f4xx_dma2d.o(i.DMA2D_BGConfig), (108 bytes).
    Removing stm32f4xx_dma2d.o(i.DMA2D_BGStart), (28 bytes).
    Removing stm32f4xx_dma2d.o(i.DMA2D_BG_StructInit), (26 bytes).
    Removing stm32f4xx_dma2d.o(i.DMA2D_ClearFlag), (12 bytes).
    Removing stm32f4xx_dma2d.o(i.DMA2D_ClearITPendingBit), (12 bytes).
    Removing stm32f4xx_dma2d.o(i.DMA2D_DeInit), (24 bytes).
    Removing stm32f4xx_dma2d.o(i.DMA2D_DeadTimeConfig), (44 bytes).
    Removing stm32f4xx_dma2d.o(i.DMA2D_FGConfig), (108 bytes).
    Removing stm32f4xx_dma2d.o(i.DMA2D_FGStart), (28 bytes).
    Removing stm32f4xx_dma2d.o(i.DMA2D_FG_StructInit), (26 bytes).
    Removing stm32f4xx_dma2d.o(i.DMA2D_GetFlagStatus), (20 bytes).
    Removing stm32f4xx_dma2d.o(i.DMA2D_GetITStatus), (36 bytes).
    Removing stm32f4xx_dma2d.o(i.DMA2D_ITConfig), (24 bytes).
    Removing stm32f4xx_dma2d.o(i.DMA2D_Init), (180 bytes).
    Removing stm32f4xx_dma2d.o(i.DMA2D_LineWatermarkConfig), (12 bytes).
    Removing stm32f4xx_dma2d.o(i.DMA2D_StartTransfer), (16 bytes).
    Removing stm32f4xx_dma2d.o(i.DMA2D_StructInit), (24 bytes).
    Removing stm32f4xx_dma2d.o(i.DMA2D_Suspend), (28 bytes).
    Removing stm32f4xx_dsi.o(.rev16_text), (4 bytes).
    Removing stm32f4xx_dsi.o(.revsh_text), (4 bytes).
    Removing stm32f4xx_dsi.o(.rrx_text), (6 bytes).
    Removing stm32f4xx_exti.o(.rev16_text), (4 bytes).
    Removing stm32f4xx_exti.o(.revsh_text), (4 bytes).
    Removing stm32f4xx_exti.o(.rrx_text), (6 bytes).
    Removing stm32f4xx_exti.o(i.EXTI_ClearFlag), (12 bytes).
    Removing stm32f4xx_exti.o(i.EXTI_DeInit), (36 bytes).
    Removing stm32f4xx_exti.o(i.EXTI_GenerateSWInterrupt), (16 bytes).
    Removing stm32f4xx_exti.o(i.EXTI_GetFlagStatus), (20 bytes).
    Removing stm32f4xx_exti.o(i.EXTI_Init), (112 bytes).
    Removing stm32f4xx_exti.o(i.EXTI_StructInit), (14 bytes).
    Removing stm32f4xx_flash.o(.rev16_text), (4 bytes).
    Removing stm32f4xx_flash.o(.revsh_text), (4 bytes).
    Removing stm32f4xx_flash.o(.rrx_text), (6 bytes).
    Removing stm32f4xx_flash.o(i.FLASH_ClearFlag), (12 bytes).
    Removing stm32f4xx_flash.o(i.FLASH_DataCacheCmd), (28 bytes).
    Removing stm32f4xx_flash.o(i.FLASH_DataCacheReset), (16 bytes).
    Removing stm32f4xx_flash.o(i.FLASH_EraseAllBank1Sectors), (92 bytes).
    Removing stm32f4xx_flash.o(i.FLASH_EraseAllBank2Sectors), (92 bytes).
    Removing stm32f4xx_flash.o(i.FLASH_EraseAllSectors), (92 bytes).
    Removing stm32f4xx_flash.o(i.FLASH_EraseSector), (108 bytes).
    Removing stm32f4xx_flash.o(i.FLASH_GetFlagStatus), (20 bytes).
    Removing stm32f4xx_flash.o(i.FLASH_GetStatus), (60 bytes).
    Removing stm32f4xx_flash.o(i.FLASH_ITConfig), (24 bytes).
    Removing stm32f4xx_flash.o(i.FLASH_InstructionCacheCmd), (28 bytes).
    Removing stm32f4xx_flash.o(i.FLASH_InstructionCacheReset), (16 bytes).
    Removing stm32f4xx_flash.o(i.FLASH_Lock), (16 bytes).
    Removing stm32f4xx_flash.o(i.FLASH_OB_BORConfig), (24 bytes).
    Removing stm32f4xx_flash.o(i.FLASH_OB_BootConfig), (24 bytes).
    Removing stm32f4xx_flash.o(i.FLASH_OB_GetBOR), (16 bytes).
    Removing stm32f4xx_flash.o(i.FLASH_OB_GetPCROP), (12 bytes).
    Removing stm32f4xx_flash.o(i.FLASH_OB_GetPCROP1), (12 bytes).
    Removing stm32f4xx_flash.o(i.FLASH_OB_GetRDP), (20 bytes).
    Removing stm32f4xx_flash.o(i.FLASH_OB_GetUser), (16 bytes).
    Removing stm32f4xx_flash.o(i.FLASH_OB_GetWRP), (12 bytes).
    Removing stm32f4xx_flash.o(i.FLASH_OB_GetWRP1), (12 bytes).
    Removing stm32f4xx_flash.o(i.FLASH_OB_Launch), (20 bytes).
    Removing stm32f4xx_flash.o(i.FLASH_OB_Lock), (16 bytes).
    Removing stm32f4xx_flash.o(i.FLASH_OB_PCROP1Config), (36 bytes).
    Removing stm32f4xx_flash.o(i.FLASH_OB_PCROPConfig), (36 bytes).
    Removing stm32f4xx_flash.o(i.FLASH_OB_PCROPSelectionConfig), (20 bytes).
    Removing stm32f4xx_flash.o(i.FLASH_OB_RDPConfig), (24 bytes).
    Removing stm32f4xx_flash.o(i.FLASH_OB_Unlock), (36 bytes).
    Removing stm32f4xx_flash.o(i.FLASH_OB_UserConfig), (40 bytes).
    Removing stm32f4xx_flash.o(i.FLASH_OB_WRP1Config), (36 bytes).
    Removing stm32f4xx_flash.o(i.FLASH_OB_WRPConfig), (36 bytes).
    Removing stm32f4xx_flash.o(i.FLASH_PrefetchBufferCmd), (28 bytes).
    Removing stm32f4xx_flash.o(i.FLASH_ProgramByte), (56 bytes).
    Removing stm32f4xx_flash.o(i.FLASH_ProgramDoubleWord), (64 bytes).
    Removing stm32f4xx_flash.o(i.FLASH_ProgramHalfWord), (60 bytes).
    Removing stm32f4xx_flash.o(i.FLASH_ProgramWord), (60 bytes).
    Removing stm32f4xx_flash.o(i.FLASH_SetLatency), (12 bytes).
    Removing stm32f4xx_flash.o(i.FLASH_Unlock), (36 bytes).
    Removing stm32f4xx_flash.o(i.FLASH_WaitForLastOperation), (30 bytes).
    Removing stm32f4xx_flash_ramfunc.o(.rev16_text), (4 bytes).
    Removing stm32f4xx_flash_ramfunc.o(.revsh_text), (4 bytes).
    Removing stm32f4xx_flash_ramfunc.o(.rrx_text), (6 bytes).
    Removing stm32f4xx_flash_ramfunc.o(i.FLASH_FlashInterfaceCmd), (28 bytes).
    Removing stm32f4xx_flash_ramfunc.o(i.FLASH_FlashSleepModeCmd), (28 bytes).
    Removing stm32f4xx_fsmc.o(.rev16_text), (4 bytes).
    Removing stm32f4xx_fsmc.o(.revsh_text), (4 bytes).
    Removing stm32f4xx_fsmc.o(.rrx_text), (6 bytes).
    Removing stm32f4xx_fsmc.o(i.FSMC_ClearFlag), (38 bytes).
    Removing stm32f4xx_fsmc.o(i.FSMC_ClearITPendingBit), (44 bytes).
    Removing stm32f4xx_fsmc.o(i.FSMC_GetECC), (18 bytes).
    Removing stm32f4xx_fsmc.o(i.FSMC_GetFlagStatus), (40 bytes).
    Removing stm32f4xx_fsmc.o(i.FSMC_GetITStatus), (48 bytes).
    Removing stm32f4xx_fsmc.o(i.FSMC_ITConfig), (72 bytes).
    Removing stm32f4xx_fsmc.o(i.FSMC_NANDCmd), (56 bytes).
    Removing stm32f4xx_fsmc.o(i.FSMC_NANDDeInit), (40 bytes).
    Removing stm32f4xx_fsmc.o(i.FSMC_NANDECCCmd), (56 bytes).
    Removing stm32f4xx_fsmc.o(i.FSMC_NANDInit), (156 bytes).
    Removing stm32f4xx_fsmc.o(i.FSMC_NANDStructInit), (54 bytes).
    Removing stm32f4xx_fsmc.o(i.FSMC_NORSRAMCmd), (32 bytes).
    Removing stm32f4xx_fsmc.o(i.FSMC_NORSRAMDeInit), (40 bytes).
    Removing stm32f4xx_fsmc.o(i.FSMC_NORSRAMInit), (228 bytes).
    Removing stm32f4xx_fsmc.o(i.FSMC_NORSRAMStructInit), (48 bytes).
    Removing stm32f4xx_fsmc.o(i.FSMC_PCCARDCmd), (32 bytes).
    Removing stm32f4xx_fsmc.o(i.FSMC_PCCARDDeInit), (26 bytes).
    Removing stm32f4xx_fsmc.o(i.FSMC_PCCARDInit), (120 bytes).
    Removing stm32f4xx_fsmc.o(i.FSMC_PCCARDStructInit), (60 bytes).
    Removing stm32f4xx_fsmc.o(.constdata), (28 bytes).
    Removing stm32f4xx_gpio.o(.rev16_text), (4 bytes).
    Removing stm32f4xx_gpio.o(.revsh_text), (4 bytes).
    Removing stm32f4xx_gpio.o(.rrx_text), (6 bytes).
    Removing stm32f4xx_gpio.o(i.GPIO_DeInit), (260 bytes).
    Removing stm32f4xx_gpio.o(i.GPIO_PinLockConfig), (24 bytes).
    Removing stm32f4xx_gpio.o(i.GPIO_ReadInputData), (6 bytes).
    Removing stm32f4xx_gpio.o(i.GPIO_ReadInputDataBit), (14 bytes).
    Removing stm32f4xx_gpio.o(i.GPIO_ReadOutputData), (6 bytes).
    Removing stm32f4xx_gpio.o(i.GPIO_ReadOutputDataBit), (14 bytes).
    Removing stm32f4xx_gpio.o(i.GPIO_ResetBits), (4 bytes).
    Removing stm32f4xx_gpio.o(i.GPIO_SetBits), (4 bytes).
    Removing stm32f4xx_gpio.o(i.GPIO_StructInit), (18 bytes).
    Removing stm32f4xx_gpio.o(i.GPIO_ToggleBits), (8 bytes).
    Removing stm32f4xx_gpio.o(i.GPIO_Write), (4 bytes).
    Removing stm32f4xx_gpio.o(i.GPIO_WriteBit), (10 bytes).
    Removing stm32f4xx_hash.o(.rev16_text), (4 bytes).
    Removing stm32f4xx_hash.o(.revsh_text), (4 bytes).
    Removing stm32f4xx_hash.o(.rrx_text), (6 bytes).
    Removing stm32f4xx_hash.o(i.HASH_AutoStartDigest), (28 bytes).
    Removing stm32f4xx_hash.o(i.HASH_ClearFlag), (12 bytes).
    Removing stm32f4xx_hash.o(i.HASH_ClearITPendingBit), (12 bytes).
    Removing stm32f4xx_hash.o(i.HASH_DMACmd), (28 bytes).
    Removing stm32f4xx_hash.o(i.HASH_DataIn), (12 bytes).
    Removing stm32f4xx_hash.o(i.HASH_DeInit), (22 bytes).
    Removing stm32f4xx_hash.o(i.HASH_GetDigest), (72 bytes).
    Removing stm32f4xx_hash.o(i.HASH_GetFlagStatus), (32 bytes).
    Removing stm32f4xx_hash.o(i.HASH_GetITStatus), (28 bytes).
    Removing stm32f4xx_hash.o(i.HASH_GetInFIFOWordsNbr), (16 bytes).
    Removing stm32f4xx_hash.o(i.HASH_ITConfig), (24 bytes).
    Removing stm32f4xx_hash.o(i.HASH_Init), (68 bytes).
    Removing stm32f4xx_hash.o(i.HASH_Reset), (16 bytes).
    Removing stm32f4xx_hash.o(i.HASH_RestoreContext), (68 bytes).
    Removing stm32f4xx_hash.o(i.HASH_SaveContext), (60 bytes).
    Removing stm32f4xx_hash.o(i.HASH_SetLastWordValidBitsNbr), (24 bytes).
    Removing stm32f4xx_hash.o(i.HASH_StartDigest), (16 bytes).
    Removing stm32f4xx_hash.o(i.HASH_StructInit), (12 bytes).
    Removing stm32f4xx_hash_md5.o(.rev16_text), (4 bytes).
    Removing stm32f4xx_hash_md5.o(.revsh_text), (4 bytes).
    Removing stm32f4xx_hash_md5.o(.rrx_text), (6 bytes).
    Removing stm32f4xx_hash_md5.o(i.HASH_MD5), (158 bytes).
    Removing stm32f4xx_hash_md5.o(i.HMAC_MD5), (320 bytes).
    Removing stm32f4xx_hash_sha1.o(.rev16_text), (4 bytes).
    Removing stm32f4xx_hash_sha1.o(.revsh_text), (4 bytes).
    Removing stm32f4xx_hash_sha1.o(.rrx_text), (6 bytes).
    Removing stm32f4xx_hash_sha1.o(i.HASH_SHA1), (164 bytes).
    Removing stm32f4xx_hash_sha1.o(i.HMAC_SHA1), (324 bytes).
    Removing stm32f4xx_i2c.o(.rev16_text), (4 bytes).
    Removing stm32f4xx_i2c.o(.revsh_text), (4 bytes).
    Removing stm32f4xx_i2c.o(.rrx_text), (6 bytes).
    Removing stm32f4xx_i2c.o(i.I2C_ARPCmd), (20 bytes).
    Removing stm32f4xx_i2c.o(i.I2C_AcknowledgeConfig), (20 bytes).
    Removing stm32f4xx_i2c.o(i.I2C_AnalogFilterCmd), (20 bytes).
    Removing stm32f4xx_i2c.o(i.I2C_CalculatePEC), (20 bytes).
    Removing stm32f4xx_i2c.o(i.I2C_CheckEvent), (24 bytes).
    Removing stm32f4xx_i2c.o(i.I2C_ClearFlag), (6 bytes).
    Removing stm32f4xx_i2c.o(i.I2C_ClearITPendingBit), (6 bytes).
    Removing stm32f4xx_i2c.o(i.I2C_Cmd), (20 bytes).
    Removing stm32f4xx_i2c.o(i.I2C_DMACmd), (20 bytes).
    Removing stm32f4xx_i2c.o(i.I2C_DMALastTransferCmd), (20 bytes).
    Removing stm32f4xx_i2c.o(i.I2C_DeInit), (68 bytes).
    Removing stm32f4xx_i2c.o(i.I2C_DigitalFilterConfig), (16 bytes).
    Removing stm32f4xx_i2c.o(i.I2C_DualAddressCmd), (20 bytes).
    Removing stm32f4xx_i2c.o(i.I2C_FastModeDutyCycleConfig), (22 bytes).
    Removing stm32f4xx_i2c.o(i.I2C_GeneralCallCmd), (20 bytes).
    Removing stm32f4xx_i2c.o(i.I2C_GenerateSTART), (20 bytes).
    Removing stm32f4xx_i2c.o(i.I2C_GenerateSTOP), (20 bytes).
    Removing stm32f4xx_i2c.o(i.I2C_GetFlagStatus), (42 bytes).
    Removing stm32f4xx_i2c.o(i.I2C_GetITStatus), (36 bytes).
    Removing stm32f4xx_i2c.o(i.I2C_GetLastEvent), (14 bytes).
    Removing stm32f4xx_i2c.o(i.I2C_GetPEC), (6 bytes).
    Removing stm32f4xx_i2c.o(i.I2C_ITConfig), (16 bytes).
    Removing stm32f4xx_i2c.o(i.I2C_Init), (184 bytes).
    Removing stm32f4xx_i2c.o(i.I2C_NACKPositionConfig), (22 bytes).
    Removing stm32f4xx_i2c.o(i.I2C_OwnAddress2Config), (16 bytes).
    Removing stm32f4xx_i2c.o(i.I2C_PECPositionConfig), (22 bytes).
    Removing stm32f4xx_i2c.o(i.I2C_ReadRegister), (10 bytes).
    Removing stm32f4xx_i2c.o(i.I2C_ReceiveData), (6 bytes).
    Removing stm32f4xx_i2c.o(i.I2C_SMBusAlertConfig), (22 bytes).
    Removing stm32f4xx_i2c.o(i.I2C_Send7bitAddress), (16 bytes).
    Removing stm32f4xx_i2c.o(i.I2C_SendData), (4 bytes).
    Removing stm32f4xx_i2c.o(i.I2C_SoftwareResetCmd), (20 bytes).
    Removing stm32f4xx_i2c.o(i.I2C_StretchClockCmd), (20 bytes).
    Removing stm32f4xx_i2c.o(i.I2C_StructInit), (28 bytes).
    Removing stm32f4xx_i2c.o(i.I2C_TransmitPEC), (20 bytes).
    Removing stm32f4xx_iwdg.o(.rev16_text), (4 bytes).
    Removing stm32f4xx_iwdg.o(.revsh_text), (4 bytes).
    Removing stm32f4xx_iwdg.o(.rrx_text), (6 bytes).
    Removing stm32f4xx_iwdg.o(i.IWDG_Enable), (16 bytes).
    Removing stm32f4xx_iwdg.o(i.IWDG_GetFlagStatus), (20 bytes).
    Removing stm32f4xx_iwdg.o(i.IWDG_ReloadCounter), (16 bytes).
    Removing stm32f4xx_iwdg.o(i.IWDG_SetPrescaler), (12 bytes).
    Removing stm32f4xx_iwdg.o(i.IWDG_SetReload), (12 bytes).
    Removing stm32f4xx_iwdg.o(i.IWDG_WriteAccessCmd), (12 bytes).
    Removing stm32f4xx_lptim.o(.rev16_text), (4 bytes).
    Removing stm32f4xx_lptim.o(.revsh_text), (4 bytes).
    Removing stm32f4xx_lptim.o(.rrx_text), (6 bytes).
    Removing stm32f4xx_ltdc.o(.rev16_text), (4 bytes).
    Removing stm32f4xx_ltdc.o(.revsh_text), (4 bytes).
    Removing stm32f4xx_ltdc.o(.rrx_text), (6 bytes).
    Removing stm32f4xx_ltdc.o(i.LTDC_CLUTCmd), (32 bytes).
    Removing stm32f4xx_ltdc.o(i.LTDC_CLUTInit), (26 bytes).
    Removing stm32f4xx_ltdc.o(i.LTDC_CLUTStructInit), (12 bytes).
    Removing stm32f4xx_ltdc.o(i.LTDC_ClearFlag), (12 bytes).
    Removing stm32f4xx_ltdc.o(i.LTDC_ClearITPendingBit), (12 bytes).
    Removing stm32f4xx_ltdc.o(i.LTDC_Cmd), (28 bytes).
    Removing stm32f4xx_ltdc.o(i.LTDC_ColorKeyingConfig), (64 bytes).
    Removing stm32f4xx_ltdc.o(i.LTDC_ColorKeyingStructInit), (10 bytes).
    Removing stm32f4xx_ltdc.o(i.LTDC_DeInit), (24 bytes).
    Removing stm32f4xx_ltdc.o(i.LTDC_DitherCmd), (28 bytes).
    Removing stm32f4xx_ltdc.o(i.LTDC_GetCDStatus), (20 bytes).
    Removing stm32f4xx_ltdc.o(i.LTDC_GetFlagStatus), (20 bytes).
    Removing stm32f4xx_ltdc.o(i.LTDC_GetITStatus), (36 bytes).
    Removing stm32f4xx_ltdc.o(i.LTDC_GetPosStatus), (28 bytes).
    Removing stm32f4xx_ltdc.o(i.LTDC_GetRGBWidth), (44 bytes).
    Removing stm32f4xx_ltdc.o(i.LTDC_ITConfig), (24 bytes).
    Removing stm32f4xx_ltdc.o(i.LTDC_Init), (168 bytes).
    Removing stm32f4xx_ltdc.o(i.LTDC_LIPConfig), (12 bytes).
    Removing stm32f4xx_ltdc.o(i.LTDC_LayerAddress), (4 bytes).
    Removing stm32f4xx_ltdc.o(i.LTDC_LayerAlpha), (4 bytes).
    Removing stm32f4xx_ltdc.o(i.LTDC_LayerCmd), (20 bytes).
    Removing stm32f4xx_ltdc.o(i.LTDC_LayerInit), (150 bytes).
    Removing stm32f4xx_ltdc.o(i.LTDC_LayerPixelFormat), (96 bytes).
    Removing stm32f4xx_ltdc.o(i.LTDC_LayerPosition), (116 bytes).
    Removing stm32f4xx_ltdc.o(i.LTDC_LayerSize), (86 bytes).
    Removing stm32f4xx_ltdc.o(i.LTDC_LayerStructInit), (44 bytes).
    Removing stm32f4xx_ltdc.o(i.LTDC_PosStructInit), (8 bytes).
    Removing stm32f4xx_ltdc.o(i.LTDC_RGBStructInit), (10 bytes).
    Removing stm32f4xx_ltdc.o(i.LTDC_ReloadConfig), (12 bytes).
    Removing stm32f4xx_ltdc.o(i.LTDC_StructInit), (34 bytes).
    Removing stm32f4xx_pwr.o(.rev16_text), (4 bytes).
    Removing stm32f4xx_pwr.o(.revsh_text), (4 bytes).
    Removing stm32f4xx_pwr.o(.rrx_text), (6 bytes).
    Removing stm32f4xx_pwr.o(i.PWR_BackupAccessCmd), (12 bytes).
    Removing stm32f4xx_pwr.o(i.PWR_BackupRegulatorCmd), (12 bytes).
    Removing stm32f4xx_pwr.o(i.PWR_ClearFlag), (16 bytes).
    Removing stm32f4xx_pwr.o(i.PWR_DeInit), (24 bytes).
    Removing stm32f4xx_pwr.o(i.PWR_EnterSTANDBYMode), (32 bytes).
    Removing stm32f4xx_pwr.o(i.PWR_EnterSTOPMode), (56 bytes).
    Removing stm32f4xx_pwr.o(i.PWR_EnterUnderDriveSTOPMode), (56 bytes).
    Removing stm32f4xx_pwr.o(i.PWR_FlashPowerDownCmd), (12 bytes).
    Removing stm32f4xx_pwr.o(i.PWR_GetFlagStatus), (20 bytes).
    Removing stm32f4xx_pwr.o(i.PWR_MainRegulatorModeConfig), (20 bytes).
    Removing stm32f4xx_pwr.o(i.PWR_OverDriveCmd), (12 bytes).
    Removing stm32f4xx_pwr.o(i.PWR_OverDriveSWCmd), (12 bytes).
    Removing stm32f4xx_pwr.o(i.PWR_PVDCmd), (12 bytes).
    Removing stm32f4xx_pwr.o(i.PWR_PVDLevelConfig), (20 bytes).
    Removing stm32f4xx_pwr.o(i.PWR_UnderDriveCmd), (28 bytes).
    Removing stm32f4xx_pwr.o(i.PWR_WakeUpPinCmd), (12 bytes).
    Removing stm32f4xx_qspi.o(.rev16_text), (4 bytes).
    Removing stm32f4xx_qspi.o(.revsh_text), (4 bytes).
    Removing stm32f4xx_qspi.o(.rrx_text), (6 bytes).
    Removing stm32f4xx_rcc.o(.rev16_text), (4 bytes).
    Removing stm32f4xx_rcc.o(.revsh_text), (4 bytes).
    Removing stm32f4xx_rcc.o(.rrx_text), (6 bytes).
    Removing stm32f4xx_rcc.o(i.RCC_AHB1PeriphClockLPModeCmd), (24 bytes).
    Removing stm32f4xx_rcc.o(i.RCC_AHB1PeriphResetCmd), (24 bytes).
    Removing stm32f4xx_rcc.o(i.RCC_AHB2PeriphClockCmd), (24 bytes).
    Removing stm32f4xx_rcc.o(i.RCC_AHB2PeriphClockLPModeCmd), (24 bytes).
    Removing stm32f4xx_rcc.o(i.RCC_AHB2PeriphResetCmd), (24 bytes).
    Removing stm32f4xx_rcc.o(i.RCC_AHB3PeriphClockCmd), (24 bytes).
    Removing stm32f4xx_rcc.o(i.RCC_AHB3PeriphClockLPModeCmd), (24 bytes).
    Removing stm32f4xx_rcc.o(i.RCC_AHB3PeriphResetCmd), (24 bytes).
    Removing stm32f4xx_rcc.o(i.RCC_APB1PeriphClockLPModeCmd), (24 bytes).
    Removing stm32f4xx_rcc.o(i.RCC_APB2PeriphClockLPModeCmd), (24 bytes).
    Removing stm32f4xx_rcc.o(i.RCC_AdjustHSICalibrationValue), (20 bytes).
    Removing stm32f4xx_rcc.o(i.RCC_BackupResetCmd), (12 bytes).
    Removing stm32f4xx_rcc.o(i.RCC_ClearFlag), (16 bytes).
    Removing stm32f4xx_rcc.o(i.RCC_ClearITPendingBit), (12 bytes).
    Removing stm32f4xx_rcc.o(i.RCC_ClockSecuritySystemCmd), (12 bytes).
    Removing stm32f4xx_rcc.o(i.RCC_DeInit), (84 bytes).
    Removing stm32f4xx_rcc.o(i.RCC_GetFlagStatus), (52 bytes).
    Removing stm32f4xx_rcc.o(i.RCC_GetITStatus), (20 bytes).
    Removing stm32f4xx_rcc.o(i.RCC_GetSYSCLKSource), (16 bytes).
    Removing stm32f4xx_rcc.o(i.RCC_HCLKConfig), (20 bytes).
    Removing stm32f4xx_rcc.o(i.RCC_HSEConfig), (16 bytes).
    Removing stm32f4xx_rcc.o(i.RCC_HSICmd), (12 bytes).
    Removing stm32f4xx_rcc.o(i.RCC_I2SCLKConfig), (12 bytes).
    Removing stm32f4xx_rcc.o(i.RCC_ITConfig), (24 bytes).
    Removing stm32f4xx_rcc.o(i.RCC_LSEConfig), (28 bytes).
    Removing stm32f4xx_rcc.o(i.RCC_LSEModeConfig), (28 bytes).
    Removing stm32f4xx_rcc.o(i.RCC_LSICmd), (12 bytes).
    Removing stm32f4xx_rcc.o(i.RCC_LTDCCLKDivConfig), (20 bytes).
    Removing stm32f4xx_rcc.o(i.RCC_MCO1Config), (20 bytes).
    Removing stm32f4xx_rcc.o(i.RCC_MCO2Config), (20 bytes).
    Removing stm32f4xx_rcc.o(i.RCC_PCLK1Config), (20 bytes).
    Removing stm32f4xx_rcc.o(i.RCC_PCLK2Config), (20 bytes).
    Removing stm32f4xx_rcc.o(i.RCC_PLLCmd), (12 bytes).
    Removing stm32f4xx_rcc.o(i.RCC_PLLConfig), (40 bytes).
    Removing stm32f4xx_rcc.o(i.RCC_PLLI2SCmd), (12 bytes).
    Removing stm32f4xx_rcc.o(i.RCC_PLLI2SConfig), (16 bytes).
    Removing stm32f4xx_rcc.o(i.RCC_PLLSAICmd), (12 bytes).
    Removing stm32f4xx_rcc.o(i.RCC_PLLSAIConfig), (20 bytes).
    Removing stm32f4xx_rcc.o(i.RCC_RTCCLKCmd), (12 bytes).
    Removing stm32f4xx_rcc.o(i.RCC_RTCCLKConfig), (48 bytes).
    Removing stm32f4xx_rcc.o(i.RCC_SAIBlockACLKConfig), (20 bytes).
    Removing stm32f4xx_rcc.o(i.RCC_SAIBlockBCLKConfig), (20 bytes).
    Removing stm32f4xx_rcc.o(i.RCC_SAIPLLI2SClkDivConfig), (20 bytes).
    Removing stm32f4xx_rcc.o(i.RCC_SAIPLLSAIClkDivConfig), (28 bytes).
    Removing stm32f4xx_rcc.o(i.RCC_SYSCLKConfig), (20 bytes).
    Removing stm32f4xx_rcc.o(i.RCC_TIMCLKPresConfig), (12 bytes).
    Removing stm32f4xx_rcc.o(i.RCC_WaitForHSEStartUp), (44 bytes).
    Removing stm32f4xx_rng.o(.rev16_text), (4 bytes).
    Removing stm32f4xx_rng.o(.revsh_text), (4 bytes).
    Removing stm32f4xx_rng.o(.rrx_text), (6 bytes).
    Removing stm32f4xx_rng.o(i.RNG_ClearFlag), (16 bytes).
    Removing stm32f4xx_rng.o(i.RNG_ClearITPendingBit), (16 bytes).
    Removing stm32f4xx_rng.o(i.RNG_Cmd), (28 bytes).
    Removing stm32f4xx_rng.o(i.RNG_DeInit), (22 bytes).
    Removing stm32f4xx_rng.o(i.RNG_GetFlagStatus), (20 bytes).
    Removing stm32f4xx_rng.o(i.RNG_GetITStatus), (20 bytes).
    Removing stm32f4xx_rng.o(i.RNG_GetRandomNumber), (12 bytes).
    Removing stm32f4xx_rng.o(i.RNG_ITConfig), (28 bytes).
    Removing stm32f4xx_rtc.o(.rev16_text), (4 bytes).
    Removing stm32f4xx_rtc.o(.revsh_text), (4 bytes).
    Removing stm32f4xx_rtc.o(.rrx_text), (6 bytes).
    Removing stm32f4xx_rtc.o(i.RTC_AlarmCmd), (84 bytes).
    Removing stm32f4xx_rtc.o(i.RTC_AlarmStructInit), (20 bytes).
    Removing stm32f4xx_rtc.o(i.RTC_AlarmSubSecondConfig), (44 bytes).
    Removing stm32f4xx_rtc.o(i.RTC_Bcd2ToByte), (18 bytes).
    Removing stm32f4xx_rtc.o(i.RTC_BypassShadowCmd), (44 bytes).
    Removing stm32f4xx_rtc.o(i.RTC_ByteToBcd2), (24 bytes).
    Removing stm32f4xx_rtc.o(i.RTC_CalibOutputCmd), (44 bytes).
    Removing stm32f4xx_rtc.o(i.RTC_CalibOutputConfig), (40 bytes).
    Removing stm32f4xx_rtc.o(i.RTC_ClearFlag), (28 bytes).
    Removing stm32f4xx_rtc.o(i.RTC_ClearITPendingBit), (28 bytes).
    Removing stm32f4xx_rtc.o(i.RTC_CoarseCalibCmd), (60 bytes).
    Removing stm32f4xx_rtc.o(i.RTC_CoarseCalibConfig), (52 bytes).
    Removing stm32f4xx_rtc.o(i.RTC_DateStructInit), (14 bytes).
    Removing stm32f4xx_rtc.o(i.RTC_DayLightSavingConfig), (44 bytes).
    Removing stm32f4xx_rtc.o(i.RTC_DeInit), (176 bytes).
    Removing stm32f4xx_rtc.o(i.RTC_EnterInitMode), (60 bytes).
    Removing stm32f4xx_rtc.o(i.RTC_ExitInitMode), (16 bytes).
    Removing stm32f4xx_rtc.o(i.RTC_GetAlarm), (108 bytes).
    Removing stm32f4xx_rtc.o(i.RTC_GetAlarmSubSecond), (28 bytes).
    Removing stm32f4xx_rtc.o(i.RTC_GetDate), (72 bytes).
    Removing stm32f4xx_rtc.o(i.RTC_GetFlagStatus), (28 bytes).
    Removing stm32f4xx_rtc.o(i.RTC_GetITStatus), (64 bytes).
    Removing stm32f4xx_rtc.o(i.RTC_GetStoreOperation), (16 bytes).
    Removing stm32f4xx_rtc.o(i.RTC_GetSubSecond), (16 bytes).
    Removing stm32f4xx_rtc.o(i.RTC_GetTime), (76 bytes).
    Removing stm32f4xx_rtc.o(i.RTC_GetTimeStamp), (136 bytes).
    Removing stm32f4xx_rtc.o(i.RTC_GetTimeStampSubSecond), (12 bytes).
    Removing stm32f4xx_rtc.o(i.RTC_GetWakeUpCounter), (12 bytes).
    Removing stm32f4xx_rtc.o(i.RTC_ITConfig), (64 bytes).
    Removing stm32f4xx_rtc.o(i.RTC_Init), (80 bytes).
    Removing stm32f4xx_rtc.o(i.RTC_OutputConfig), (44 bytes).
    Removing stm32f4xx_rtc.o(i.RTC_OutputTypeConfig), (24 bytes).
    Removing stm32f4xx_rtc.o(i.RTC_ReadBackupRegister), (20 bytes).
    Removing stm32f4xx_rtc.o(i.RTC_RefClockCmd), (60 bytes).
    Removing stm32f4xx_rtc.o(i.RTC_SetAlarm), (164 bytes).
    Removing stm32f4xx_rtc.o(i.RTC_SetDate), (156 bytes).
    Removing stm32f4xx_rtc.o(i.RTC_SetTime), (160 bytes).
    Removing stm32f4xx_rtc.o(i.RTC_SetWakeUpCounter), (28 bytes).
    Removing stm32f4xx_rtc.o(i.RTC_SmoothCalibConfig), (76 bytes).
    Removing stm32f4xx_rtc.o(i.RTC_StructInit), (14 bytes).
    Removing stm32f4xx_rtc.o(i.RTC_SynchroShiftConfig), (88 bytes).
    Removing stm32f4xx_rtc.o(i.RTC_TamperCmd), (24 bytes).
    Removing stm32f4xx_rtc.o(i.RTC_TamperFilterConfig), (24 bytes).
    Removing stm32f4xx_rtc.o(i.RTC_TamperPinSelection), (24 bytes).
    Removing stm32f4xx_rtc.o(i.RTC_TamperPinsPrechargeDuration), (24 bytes).
    Removing stm32f4xx_rtc.o(i.RTC_TamperPullUpCmd), (28 bytes).
    Removing stm32f4xx_rtc.o(i.RTC_TamperSamplingFreqConfig), (24 bytes).
    Removing stm32f4xx_rtc.o(i.RTC_TamperTriggerConfig), (28 bytes).
    Removing stm32f4xx_rtc.o(i.RTC_TimeStampCmd), (48 bytes).
    Removing stm32f4xx_rtc.o(i.RTC_TimeStampOnTamperDetectionCmd), (28 bytes).
    Removing stm32f4xx_rtc.o(i.RTC_TimeStampPinSelection), (24 bytes).
    Removing stm32f4xx_rtc.o(i.RTC_TimeStructInit), (12 bytes).
    Removing stm32f4xx_rtc.o(i.RTC_WaitForSynchro), (76 bytes).
    Removing stm32f4xx_rtc.o(i.RTC_WakeUpClockConfig), (40 bytes).
    Removing stm32f4xx_rtc.o(i.RTC_WakeUpCmd), (88 bytes).
    Removing stm32f4xx_rtc.o(i.RTC_WriteBackupRegister), (20 bytes).
    Removing stm32f4xx_rtc.o(i.RTC_WriteProtectionCmd), (24 bytes).
    Removing stm32f4xx_sai.o(.rev16_text), (4 bytes).
    Removing stm32f4xx_sai.o(.revsh_text), (4 bytes).
    Removing stm32f4xx_sai.o(.rrx_text), (6 bytes).
    Removing stm32f4xx_sai.o(i.SAI_ClearFlag), (8 bytes).
    Removing stm32f4xx_sai.o(i.SAI_ClearITPendingBit), (8 bytes).
    Removing stm32f4xx_sai.o(i.SAI_Cmd), (20 bytes).
    Removing stm32f4xx_sai.o(i.SAI_CompandingModeConfig), (16 bytes).
    Removing stm32f4xx_sai.o(i.SAI_DMACmd), (20 bytes).
    Removing stm32f4xx_sai.o(i.SAI_DeInit), (36 bytes).
    Removing stm32f4xx_sai.o(i.SAI_FlushFIFO), (10 bytes).
    Removing stm32f4xx_sai.o(i.SAI_FrameInit), (48 bytes).
    Removing stm32f4xx_sai.o(i.SAI_FrameStructInit), (18 bytes).
    Removing stm32f4xx_sai.o(i.SAI_GetCmdStatus), (14 bytes).
    Removing stm32f4xx_sai.o(i.SAI_GetFIFOStatus), (8 bytes).
    Removing stm32f4xx_sai.o(i.SAI_GetFlagStatus), (14 bytes).
    Removing stm32f4xx_sai.o(i.SAI_GetITStatus), (22 bytes).
    Removing stm32f4xx_sai.o(i.SAI_ITConfig), (16 bytes).
    Removing stm32f4xx_sai.o(i.SAI_Init), (72 bytes).
    Removing stm32f4xx_sai.o(i.SAI_MonoModeConfig), (18 bytes).
    Removing stm32f4xx_sai.o(i.SAI_MuteFrameCounterConfig), (18 bytes).
    Removing stm32f4xx_sai.o(i.SAI_MuteModeCmd), (20 bytes).
    Removing stm32f4xx_sai.o(i.SAI_MuteValueConfig), (16 bytes).
    Removing stm32f4xx_sai.o(i.SAI_ReceiveData), (4 bytes).
    Removing stm32f4xx_sai.o(i.SAI_SendData), (4 bytes).
    Removing stm32f4xx_sai.o(i.SAI_SlotInit), (38 bytes).
    Removing stm32f4xx_sai.o(i.SAI_SlotStructInit), (14 bytes).
    Removing stm32f4xx_sai.o(i.SAI_StructInit), (28 bytes).
    Removing stm32f4xx_sai.o(i.SAI_TRIStateConfig), (18 bytes).
    Removing stm32f4xx_sdio.o(.rev16_text), (4 bytes).
    Removing stm32f4xx_sdio.o(.revsh_text), (4 bytes).
    Removing stm32f4xx_sdio.o(.rrx_text), (6 bytes).
    Removing stm32f4xx_sdio.o(i.SDIO_CEATAITCmd), (16 bytes).
    Removing stm32f4xx_sdio.o(i.SDIO_ClearITPendingBit), (12 bytes).
    Removing stm32f4xx_sdio.o(i.SDIO_ClockCmd), (12 bytes).
    Removing stm32f4xx_sdio.o(i.SDIO_CmdStructInit), (14 bytes).
    Removing stm32f4xx_sdio.o(i.SDIO_CommandCompletionCmd), (12 bytes).
    Removing stm32f4xx_sdio.o(i.SDIO_DMACmd), (12 bytes).
    Removing stm32f4xx_sdio.o(i.SDIO_DataStructInit), (20 bytes).
    Removing stm32f4xx_sdio.o(i.SDIO_DeInit), (24 bytes).
    Removing stm32f4xx_sdio.o(i.SDIO_GetCommandResponse), (12 bytes).
    Removing stm32f4xx_sdio.o(i.SDIO_GetDataCounter), (12 bytes).
    Removing stm32f4xx_sdio.o(i.SDIO_GetFIFOCount), (12 bytes).
    Removing stm32f4xx_sdio.o(i.SDIO_GetITStatus), (20 bytes).
    Removing stm32f4xx_sdio.o(i.SDIO_GetResponse), (16 bytes).
    Removing stm32f4xx_sdio.o(i.SDIO_ITConfig), (24 bytes).
    Removing stm32f4xx_sdio.o(i.SDIO_ReadData), (12 bytes).
    Removing stm32f4xx_sdio.o(i.SDIO_SendCEATACmd), (12 bytes).
    Removing stm32f4xx_sdio.o(i.SDIO_SendSDIOSuspendCmd), (12 bytes).
    Removing stm32f4xx_sdio.o(i.SDIO_SetSDIOOperation), (12 bytes).
    Removing stm32f4xx_sdio.o(i.SDIO_SetSDIOReadWaitMode), (12 bytes).
    Removing stm32f4xx_sdio.o(i.SDIO_StartSDIOReadWait), (12 bytes).
    Removing stm32f4xx_sdio.o(i.SDIO_StopSDIOReadWait), (12 bytes).
    Removing stm32f4xx_sdio.o(i.SDIO_StructInit), (16 bytes).
    Removing stm32f4xx_sdio.o(i.SDIO_WriteData), (12 bytes).
    Removing stm32f4xx_spdifrx.o(.rev16_text), (4 bytes).
    Removing stm32f4xx_spdifrx.o(.revsh_text), (4 bytes).
    Removing stm32f4xx_spdifrx.o(.rrx_text), (6 bytes).
    Removing stm32f4xx_spi.o(.rev16_text), (4 bytes).
    Removing stm32f4xx_spi.o(.revsh_text), (4 bytes).
    Removing stm32f4xx_spi.o(.rrx_text), (6 bytes).
    Removing stm32f4xx_spi.o(i.I2S_Cmd), (20 bytes).
    Removing stm32f4xx_spi.o(i.I2S_FullDuplexConfig), (58 bytes).
    Removing stm32f4xx_spi.o(i.I2S_Init), (212 bytes).
    Removing stm32f4xx_spi.o(i.I2S_StructInit), (18 bytes).
    Removing stm32f4xx_spi.o(i.SPI_BiDirectionalLineConfig), (22 bytes).
    Removing stm32f4xx_spi.o(i.SPI_CalculateCRC), (20 bytes).
    Removing stm32f4xx_spi.o(i.SPI_DataSizeConfig), (16 bytes).
    Removing stm32f4xx_spi.o(i.SPI_GetCRC), (12 bytes).
    Removing stm32f4xx_spi.o(i.SPI_GetCRCPolynomial), (4 bytes).
    Removing stm32f4xx_spi.o(i.SPI_I2S_ClearFlag), (6 bytes).
    Removing stm32f4xx_spi.o(i.SPI_I2S_ClearITPendingBit), (14 bytes).
    Removing stm32f4xx_spi.o(i.SPI_I2S_DMACmd), (16 bytes).
    Removing stm32f4xx_spi.o(i.SPI_I2S_DeInit), (132 bytes).
    Removing stm32f4xx_spi.o(i.SPI_I2S_GetFlagStatus), (14 bytes).
    Removing stm32f4xx_spi.o(i.SPI_I2S_GetITStatus), (42 bytes).
    Removing stm32f4xx_spi.o(i.SPI_I2S_ITConfig), (24 bytes).
    Removing stm32f4xx_spi.o(i.SPI_I2S_ReceiveData), (4 bytes).
    Removing stm32f4xx_spi.o(i.SPI_I2S_SendData), (4 bytes).
    Removing stm32f4xx_spi.o(i.SPI_NSSInternalSoftwareConfig), (24 bytes).
    Removing stm32f4xx_spi.o(i.SPI_SSOutputCmd), (20 bytes).
    Removing stm32f4xx_spi.o(i.SPI_StructInit), (24 bytes).
    Removing stm32f4xx_spi.o(i.SPI_TIModeCmd), (20 bytes).
    Removing stm32f4xx_spi.o(i.SPI_TransmitCRC), (10 bytes).
    Removing stm32f4xx_syscfg.o(.rev16_text), (4 bytes).
    Removing stm32f4xx_syscfg.o(.revsh_text), (4 bytes).
    Removing stm32f4xx_syscfg.o(.rrx_text), (6 bytes).
    Removing stm32f4xx_syscfg.o(i.SYSCFG_CompensationCellCmd), (12 bytes).
    Removing stm32f4xx_syscfg.o(i.SYSCFG_DeInit), (24 bytes).
    Removing stm32f4xx_syscfg.o(i.SYSCFG_ETH_MediaInterfaceConfig), (12 bytes).
    Removing stm32f4xx_syscfg.o(i.SYSCFG_EXTILineConfig), (48 bytes).
    Removing stm32f4xx_syscfg.o(i.SYSCFG_GetCompensationCellStatus), (20 bytes).
    Removing stm32f4xx_syscfg.o(i.SYSCFG_MemoryRemapConfig), (12 bytes).
    Removing stm32f4xx_syscfg.o(i.SYSCFG_MemorySwappingBank), (12 bytes).
    Removing stm32f4xx_tim.o(.rev16_text), (4 bytes).
    Removing stm32f4xx_tim.o(.revsh_text), (4 bytes).
    Removing stm32f4xx_tim.o(.rrx_text), (6 bytes).
    Removing stm32f4xx_tim.o(i.TI1_Config), (46 bytes).
    Removing stm32f4xx_tim.o(i.TI2_Config), (54 bytes).
    Removing stm32f4xx_tim.o(i.TIM_ARRPreloadConfig), (20 bytes).
    Removing stm32f4xx_tim.o(i.TIM_BDTRConfig), (34 bytes).
    Removing stm32f4xx_tim.o(i.TIM_BDTRStructInit), (18 bytes).
    Removing stm32f4xx_tim.o(i.TIM_CCPreloadControl), (20 bytes).
    Removing stm32f4xx_tim.o(i.TIM_CCxCmd), (22 bytes).
    Removing stm32f4xx_tim.o(i.TIM_CCxNCmd), (22 bytes).
    Removing stm32f4xx_tim.o(i.TIM_ClearOC1Ref), (12 bytes).
    Removing stm32f4xx_tim.o(i.TIM_ClearOC2Ref), (20 bytes).
    Removing stm32f4xx_tim.o(i.TIM_ClearOC3Ref), (12 bytes).
    Removing stm32f4xx_tim.o(i.TIM_ClearOC4Ref), (20 bytes).
    Removing stm32f4xx_tim.o(i.TIM_CounterModeConfig), (12 bytes).
    Removing stm32f4xx_tim.o(i.TIM_DMACmd), (16 bytes).
    Removing stm32f4xx_tim.o(i.TIM_DMAConfig), (8 bytes).
    Removing stm32f4xx_tim.o(i.TIM_ETRClockMode1Config), (18 bytes).
    Removing stm32f4xx_tim.o(i.TIM_ETRClockMode2Config), (18 bytes).
    Removing stm32f4xx_tim.o(i.TIM_ETRConfig), (24 bytes).
    Removing stm32f4xx_tim.o(i.TIM_EncoderInterfaceConfig), (50 bytes).
    Removing stm32f4xx_tim.o(i.TIM_ForcedOC1Config), (12 bytes).
    Removing stm32f4xx_tim.o(i.TIM_ForcedOC2Config), (20 bytes).
    Removing stm32f4xx_tim.o(i.TIM_ForcedOC3Config), (12 bytes).
    Removing stm32f4xx_tim.o(i.TIM_ForcedOC4Config), (20 bytes).
    Removing stm32f4xx_tim.o(i.TIM_GenerateEvent), (4 bytes).
    Removing stm32f4xx_tim.o(i.TIM_GetCapture1), (4 bytes).
    Removing stm32f4xx_tim.o(i.TIM_GetCapture2), (4 bytes).
    Removing stm32f4xx_tim.o(i.TIM_GetCapture3), (4 bytes).
    Removing stm32f4xx_tim.o(i.TIM_GetCapture4), (4 bytes).
    Removing stm32f4xx_tim.o(i.TIM_GetCounter), (4 bytes).
    Removing stm32f4xx_tim.o(i.TIM_GetFlagStatus), (14 bytes).
    Removing stm32f4xx_tim.o(i.TIM_GetPrescaler), (4 bytes).
    Removing stm32f4xx_tim.o(i.TIM_ICInit), (172 bytes).
    Removing stm32f4xx_tim.o(i.TIM_ICStructInit), (16 bytes).
    Removing stm32f4xx_tim.o(i.TIM_ITRxExternalClockConfig), (18 bytes).
    Removing stm32f4xx_tim.o(i.TIM_InternalClockConfig), (10 bytes).
    Removing stm32f4xx_tim.o(i.TIM_OC1FastConfig), (12 bytes).
    Removing stm32f4xx_tim.o(i.TIM_OC1NPolarityConfig), (12 bytes).
    Removing stm32f4xx_tim.o(i.TIM_OC1PolarityConfig), (12 bytes).
    Removing stm32f4xx_tim.o(i.TIM_OC2FastConfig), (20 bytes).
    Removing stm32f4xx_tim.o(i.TIM_OC2NPolarityConfig), (20 bytes).
    Removing stm32f4xx_tim.o(i.TIM_OC2PolarityConfig), (20 bytes).
    Removing stm32f4xx_tim.o(i.TIM_OC3FastConfig), (12 bytes).
    Removing stm32f4xx_tim.o(i.TIM_OC3NPolarityConfig), (20 bytes).
    Removing stm32f4xx_tim.o(i.TIM_OC3PolarityConfig), (20 bytes).
    Removing stm32f4xx_tim.o(i.TIM_OC4FastConfig), (20 bytes).
    Removing stm32f4xx_tim.o(i.TIM_OC4PolarityConfig), (20 bytes).
    Removing stm32f4xx_tim.o(i.TIM_OCStructInit), (20 bytes).
    Removing stm32f4xx_tim.o(i.TIM_PWMIConfig), (108 bytes).
    Removing stm32f4xx_tim.o(i.TIM_RemapConfig), (6 bytes).
    Removing stm32f4xx_tim.o(i.TIM_SelectCCDMA), (20 bytes).
    Removing stm32f4xx_tim.o(i.TIM_SelectCOM), (20 bytes).
    Removing stm32f4xx_tim.o(i.TIM_SelectHallSensor), (20 bytes).
    Removing stm32f4xx_tim.o(i.TIM_SelectInputTrigger), (12 bytes).
    Removing stm32f4xx_tim.o(i.TIM_SelectMasterSlaveMode), (16 bytes).
    Removing stm32f4xx_tim.o(i.TIM_SelectOCxM), (74 bytes).
    Removing stm32f4xx_tim.o(i.TIM_SelectOnePulseMode), (16 bytes).
    Removing stm32f4xx_tim.o(i.TIM_SelectOutputTrigger), (16 bytes).
    Removing stm32f4xx_tim.o(i.TIM_SelectSlaveMode), (16 bytes).
    Removing stm32f4xx_tim.o(i.TIM_SetClockDivision), (16 bytes).
    Removing stm32f4xx_tim.o(i.TIM_SetCompare1), (4 bytes).
    Removing stm32f4xx_tim.o(i.TIM_SetCompare2), (4 bytes).
    Removing stm32f4xx_tim.o(i.TIM_SetCompare3), (4 bytes).
    Removing stm32f4xx_tim.o(i.TIM_SetCompare4), (4 bytes).
    Removing stm32f4xx_tim.o(i.TIM_SetCounter), (4 bytes).
    Removing stm32f4xx_tim.o(i.TIM_SetIC1Prescaler), (16 bytes).
    Removing stm32f4xx_tim.o(i.TIM_SetIC2Prescaler), (24 bytes).
    Removing stm32f4xx_tim.o(i.TIM_SetIC3Prescaler), (16 bytes).
    Removing stm32f4xx_tim.o(i.TIM_SetIC4Prescaler), (24 bytes).
    Removing stm32f4xx_tim.o(i.TIM_TIxExternalClockConfig), (46 bytes).
    Removing stm32f4xx_tim.o(i.TIM_TimeBaseStructInit), (18 bytes).
    Removing stm32f4xx_tim.o(i.TIM_UpdateDisableConfig), (20 bytes).
    Removing stm32f4xx_tim.o(i.TIM_UpdateRequestConfig), (20 bytes).
    Removing stm32f4xx_usart.o(.rev16_text), (4 bytes).
    Removing stm32f4xx_usart.o(.revsh_text), (4 bytes).
    Removing stm32f4xx_usart.o(.rrx_text), (6 bytes).
    Removing stm32f4xx_usart.o(i.USART_ClearFlag), (6 bytes).
    Removing stm32f4xx_usart.o(i.USART_ClockInit), (28 bytes).
    Removing stm32f4xx_usart.o(i.USART_ClockStructInit), (12 bytes).
    Removing stm32f4xx_usart.o(i.USART_DMACmd), (16 bytes).
    Removing stm32f4xx_usart.o(i.USART_DeInit), (172 bytes).
    Removing stm32f4xx_usart.o(i.USART_HalfDuplexCmd), (20 bytes).
    Removing stm32f4xx_usart.o(i.USART_IrDACmd), (20 bytes).
    Removing stm32f4xx_usart.o(i.USART_IrDAConfig), (16 bytes).
    Removing stm32f4xx_usart.o(i.USART_LINBreakDetectLengthConfig), (16 bytes).
    Removing stm32f4xx_usart.o(i.USART_LINCmd), (20 bytes).
    Removing stm32f4xx_usart.o(i.USART_OneBitMethodCmd), (20 bytes).
    Removing stm32f4xx_usart.o(i.USART_OverSampling8Cmd), (20 bytes).
    Removing stm32f4xx_usart.o(i.USART_ReceiverWakeUpCmd), (20 bytes).
    Removing stm32f4xx_usart.o(i.USART_SendBreak), (10 bytes).
    Removing stm32f4xx_usart.o(i.USART_SetAddress), (16 bytes).
    Removing stm32f4xx_usart.o(i.USART_SetGuardTime), (16 bytes).
    Removing stm32f4xx_usart.o(i.USART_SetPrescaler), (16 bytes).
    Removing stm32f4xx_usart.o(i.USART_SmartCardCmd), (20 bytes).
    Removing stm32f4xx_usart.o(i.USART_SmartCardNACKCmd), (20 bytes).
    Removing stm32f4xx_usart.o(i.USART_StructInit), (22 bytes).
    Removing stm32f4xx_usart.o(i.USART_WakeUpConfig), (16 bytes).
    Removing stm32f4xx_wwdg.o(.rev16_text), (4 bytes).
    Removing stm32f4xx_wwdg.o(.revsh_text), (4 bytes).
    Removing stm32f4xx_wwdg.o(.rrx_text), (6 bytes).
    Removing stm32f4xx_wwdg.o(i.WWDG_ClearFlag), (12 bytes).
    Removing stm32f4xx_wwdg.o(i.WWDG_DeInit), (24 bytes).
    Removing stm32f4xx_wwdg.o(i.WWDG_Enable), (16 bytes).
    Removing stm32f4xx_wwdg.o(i.WWDG_EnableIT), (16 bytes).
    Removing stm32f4xx_wwdg.o(i.WWDG_GetFlagStatus), (20 bytes).
    Removing stm32f4xx_wwdg.o(i.WWDG_SetCounter), (16 bytes).
    Removing stm32f4xx_wwdg.o(i.WWDG_SetPrescaler), (20 bytes).
    Removing stm32f4xx_wwdg.o(i.WWDG_SetWindowValue), (28 bytes).
    Removing system_stm32f4xx.o(.rev16_text), (4 bytes).
    Removing system_stm32f4xx.o(.revsh_text), (4 bytes).
    Removing system_stm32f4xx.o(.rrx_text), (6 bytes).
    Removing adc.o(.rev16_text), (4 bytes).
    Removing adc.o(.revsh_text), (4 bytes).
    Removing adc.o(.rrx_text), (6 bytes).
    Removing adc.o(i.ADC_DMA_Config), (120 bytes).
    Removing adc.o(i.ADC_DMA_GetValue), (100 bytes).
    Removing adc.o(i.ADC_DMA_Init), (176 bytes).
    Removing adc.o(i.ADCx_GetValue), (40 bytes).
    Removing adc.o(i.ADCx_Init), (128 bytes).
    Removing delay.o(.rev16_text), (4 bytes).
    Removing delay.o(.revsh_text), (4 bytes).
    Removing delay.o(.rrx_text), (6 bytes).
    Removing delay.o(i.delay_us), (64 bytes).
    Removing delay.o(i.micros), (60 bytes).
    Removing exti.o(.rev16_text), (4 bytes).
    Removing exti.o(.revsh_text), (4 bytes).
    Removing exti.o(.rrx_text), (6 bytes).
    Removing exti.o(i.EXTI_GetIRQn), (66 bytes).
    Removing exti.o(i.EXTIx_Init), (128 bytes).
    Removing exti.o(i.attachInterrupt), (14 bytes).
    Removing exti.o(i.detachInterrupt), (32 bytes).
    Removing flash.o(.rev16_text), (4 bytes).
    Removing flash.o(.revsh_text), (4 bytes).
    Removing flash.o(.rrx_text), (6 bytes).
    Removing flash.o(i.Flash_ReadHalfWord), (20 bytes).
    Removing flash.o(i.Flash_WriteHalfWord), (84 bytes).
    Removing flash.o(i.Flash_WriteHalfWord_Buf), (128 bytes).
    Removing flash.o(i.GetSector), (188 bytes).
    Removing flash.o(.bss), (200 bytes).
    Removing flash.o(.data), (1 bytes).
    Removing gpio.o(.rev16_text), (4 bytes).
    Removing gpio.o(.revsh_text), (4 bytes).
    Removing gpio.o(.rrx_text), (6 bytes).
    Removing gpio.o(i.GPIO_GetPortNum), (172 bytes).
    Removing pwm.o(.rev16_text), (4 bytes).
    Removing pwm.o(.revsh_text), (4 bytes).
    Removing pwm.o(.rrx_text), (6 bytes).
    Removing pwm.o(i.timer_generate_update), (6 bytes).
    Removing pwm.o(i.timer_get_compare), (38 bytes).
    Removing pwm.o(i.timer_set_prescaler), (4 bytes).
    Removing pwm.o(i.timer_set_reload), (4 bytes).
    Removing rng.o(.rev16_text), (4 bytes).
    Removing rng.o(.revsh_text), (4 bytes).
    Removing rng.o(.rrx_text), (6 bytes).
    Removing rng.o(i.RNG_GetRandNum), (48 bytes).
    Removing rng.o(.data), (1 bytes).
    Removing timer.o(.rev16_text), (4 bytes).
    Removing timer.o(.revsh_text), (4 bytes).
    Removing timer.o(.rrx_text), (6 bytes).
    Removing timer.o(i.Timer_FreqToArrPsc), (172 bytes).
    Removing timer.o(i.Timer_GetClockOut), (188 bytes).
    Removing timer.o(i.Timer_SetInterruptFreqUpdate), (220 bytes).
    Removing adafruit_gfx.o(.constdata__ZTV10GFXcanvas1), (84 bytes).
    Removing adafruit_gfx.o(.constdata__ZTV10GFXcanvas8), (84 bytes).
    Removing adafruit_gfx.o(.constdata__ZTV11GFXcanvas16), (84 bytes).
    Removing adafruit_gfx.o(.constdata__ZTI12Adafruit_GFX), (12 bytes).
    Removing adafruit_gfx.o(.constdata__ZTI10GFXcanvas1), (12 bytes).
    Removing adafruit_gfx.o(.constdata__ZTI10GFXcanvas8), (12 bytes).
    Removing adafruit_gfx.o(.constdata__ZTI11GFXcanvas16), (12 bytes).
    Removing adafruit_gfx.o(.constdata__ZTS12Adafruit_GFX), (15 bytes).
    Removing adafruit_gfx.o(.constdata__ZTS10GFXcanvas1), (13 bytes).
    Removing adafruit_gfx.o(.constdata__ZTS10GFXcanvas8), (13 bytes).
    Removing adafruit_gfx.o(.constdata__ZTS11GFXcanvas16), (14 bytes).
    Removing adafruit_st7789.o(i._ZN15Adafruit_ST77899pushColorEt), (4 bytes).
    Removing adafruit_st7789.o(.ARM.exidx), (8 bytes).
    Removing adafruit_st7789.o(.constdata__ZTI15Adafruit_ST7789), (12 bytes).
    Removing adafruit_st7789.o(.constdata__ZTS15Adafruit_ST7789), (18 bytes).
    Removing hardwareserial.o(.constdata__ZTI14HardwareSerial), (12 bytes).
    Removing hardwareserial.o(.constdata__ZTI6Stream), (12 bytes).
    Removing hardwareserial.o(.constdata__ZTS14HardwareSerial), (17 bytes).
    Removing hardwareserial.o(.constdata__ZTS6Stream), (8 bytes).
    Removing print.o(.constdata__ZTV5Print), (20 bytes).
    Removing print.o(.constdata__ZTI5Print), (8 bytes).
    Removing print.o(.constdata__ZTS5Print), (7 bytes).
    Removing wire.o(.constdata__ZTI7TwoWire), (12 bytes).
    Removing wire.o(.constdata__ZTS7TwoWire), (9 bytes).
    Removing wirebase.o(.constdata__ZTV8WireBase), (16 bytes).
    Removing wirebase.o(.constdata__ZTI8WireBase), (8 bytes).
    Removing wirebase.o(.constdata__ZTS8WireBase), (10 bytes).
    Removing wstring.o(i._ZN6String4initEv), (10 bytes).
    Removing wstring.o(.ARM.exidx), (8 bytes).
    Removing wstring.o(i._ZSt6strstrPcPKc), (4 bytes).
    Removing wstring.o(.ARM.exidx), (8 bytes).

1707 unused section(s) (total 51173 bytes) removed from the image.

==============================================================================

Image Symbol Table

    Local Symbols

    Symbol Name                              Value     Ov Type        Size  Object(Section)

    ../../../clib/unwind_pr.c                0x00000000   Number         0  unwind_pr0.o ABSOLUTE
    ../../../clib/unwind_pr.c                0x00000000   Number         0  unwind_prcommon.o ABSOLUTE
    ../../../clib/unwinder.c                 0x00000000   Number         0  unwind_activity.o ABSOLUTE
    ../../../clib/unwinder.c                 0x00000000   Number         0  unwinder.o ABSOLUTE
    ../../../clib/unwinder.c                 0x00000000   Number         0  unwind_activity.o ABSOLUTE
    ../../../clib/unwinder.c                 0x00000000   Number         0  unwinder.o ABSOLUTE
    ../../../edgfe/lib_src/arm_exceptions.c  0x00000000   Number         0  arm_exceptions_callterm.o ABSOLUTE
    ../../../edgfe/lib_src/arm_exceptions.c  0x00000000   Number         0  arm_exceptions_mem.o ABSOLUTE
    ../../../edgfe/lib_src/arm_exceptions.c  0x00000000   Number         0  arm_exceptions_globs.o ABSOLUTE
    ../../../edgfe/lib_src/arm_exceptions.c  0x00000000   Number         0  arm_exceptions_support.o ABSOLUTE
    ../../../edgfe/lib_src/arm_exceptions.c  0x00000000   Number         0  arm_exceptions_terminate.o ABSOLUTE
    ../../../edgfe/lib_src/arm_noexceptions.c 0x00000000   Number         0  arm_begincatch_noexceptions.o ABSOLUTE
    ../../../edgfe/lib_src/arm_noexceptions.c 0x00000000   Number         0  arm_newhandler_noexceptions.o ABSOLUTE
    ../../../edgfe/lib_src/arm_noexceptions.c 0x00000000   Number         0  arm_callunex_noexceptions.o ABSOLUTE
    ../../../edgfe/lib_src/array_del.c       0x00000000   Number         0  array_del.o ABSOLUTE
    ../../../edgfe/lib_src/array_new.c       0x00000000   Number         0  array_new.o ABSOLUTE
    ../../../edgfe/lib_src/bad_alloc.c       0x00000000   Number         0  bad_alloc_dtor.o ABSOLUTE
    ../../../edgfe/lib_src/bad_alloc.c       0x00000000   Number         0  bad_alloc_what.o ABSOLUTE
    ../../../edgfe/lib_src/delete.c          0x00000000   Number         0  delete.o ABSOLUTE
    ../../../edgfe/lib_src/exception.c       0x00000000   Number         0  exception_what.o ABSOLUTE
    ../../../edgfe/lib_src/exception.c       0x00000000   Number         0  exception_dtor.o ABSOLUTE
    ../../../edgfe/lib_src/new.c             0x00000000   Number         0  new.o ABSOLUTE
    ../../../edgfe/lib_src/pure_virt.c       0x00000000   Number         0  pure_virt.o ABSOLUTE
    ../../../edgfe/lib_src/typeinfo.c        0x00000000   Number         0  lib_rtti_impl.o ABSOLUTE
    ../../../edgfe/lib_src/typeinfo.c        0x00000000   Number         0  type_info_dtor.o ABSOLUTE
    ../clib/angel/boardlib.s                 0x00000000   Number         0  boardinit2.o ABSOLUTE
    ../clib/angel/boardlib.s                 0x00000000   Number         0  boardinit1.o ABSOLUTE
    ../clib/angel/boardlib.s                 0x00000000   Number         0  boardshut.o ABSOLUTE
    ../clib/angel/boardlib.s                 0x00000000   Number         0  boardinit3.o ABSOLUTE
    ../clib/angel/handlers.s                 0x00000000   Number         0  __scatter_copy.o ABSOLUTE
    ../clib/angel/handlers.s                 0x00000000   Number         0  __scatter_zi.o ABSOLUTE
    ../clib/angel/kernel.s                   0x00000000   Number         0  __rtentry.o ABSOLUTE
    ../clib/angel/kernel.s                   0x00000000   Number         0  __rtentry2.o ABSOLUTE
    ../clib/angel/kernel.s                   0x00000000   Number         0  rtexit2.o ABSOLUTE
    ../clib/angel/kernel.s                   0x00000000   Number         0  rtexit.o ABSOLUTE
    ../clib/angel/kernel.s                   0x00000000   Number         0  __rtentry4.o ABSOLUTE
    ../clib/angel/rt.s                       0x00000000   Number         0  rt_heap_descriptor.o ABSOLUTE
    ../clib/angel/rt.s                       0x00000000   Number         0  rt_heap_descriptor_intlibspace.o ABSOLUTE
    ../clib/angel/rt.s                       0x00000000   Number         0  rt_locale.o ABSOLUTE
    ../clib/angel/rt.s                       0x00000000   Number         0  rt_locale_intlibspace.o ABSOLUTE
    ../clib/angel/rt.s                       0x00000000   Number         0  rt_new_handler_addr.o ABSOLUTE
    ../clib/angel/rt.s                       0x00000000   Number         0  rt_new_handler_addr_intlibspace.o ABSOLUTE
    ../clib/angel/rt.s                       0x00000000   Number         0  rt_raise.o ABSOLUTE
    ../clib/angel/rt.s                       0x00000000   Number         0  rt_div0.o ABSOLUTE
    ../clib/angel/rt.s                       0x00000000   Number         0  rt_ddtor_pointer_addr.o ABSOLUTE
    ../clib/angel/rt.s                       0x00000000   Number         0  rt_ddtor_pointer_addr_intlibspace.o ABSOLUTE
    ../clib/angel/rt.s                       0x00000000   Number         0  rt_eh_globals_addr_intlibspace.o ABSOLUTE
    ../clib/angel/rt.s                       0x00000000   Number         0  rt_errno_addr.o ABSOLUTE
    ../clib/angel/rt.s                       0x00000000   Number         0  rt_ctype_table.o ABSOLUTE
    ../clib/angel/rt.s                       0x00000000   Number         0  rt_errno_addr_intlibspace.o ABSOLUTE
    ../clib/angel/rt.s                       0x00000000   Number         0  aeabi_ldiv0.o ABSOLUTE
    ../clib/angel/rt.s                       0x00000000   Number         0  aeabi_ldiv0_sigfpe.o ABSOLUTE
    ../clib/angel/rt.s                       0x00000000   Number         0  rt_eh_globals_addr.o ABSOLUTE
    ../clib/angel/scatter.s                  0x00000000   Number         0  __scatter.o ABSOLUTE
    ../clib/angel/startup.s                  0x00000000   Number         0  __main.o ABSOLUTE
    ../clib/angel/sys.s                      0x00000000   Number         0  sys_stackheap_outer.o ABSOLUTE
    ../clib/angel/sys.s                      0x00000000   Number         0  mutex_dummy.o ABSOLUTE
    ../clib/angel/sys.s                      0x00000000   Number         0  libspace.o ABSOLUTE
    ../clib/angel/sys.s                      0x00000000   Number         0  indicate_semi.o ABSOLUTE
    ../clib/angel/sys.s                      0x00000000   Number         0  use_no_semi.o ABSOLUTE
    ../clib/angel/sysapp.c                   0x00000000   Number         0  sys_exit.o ABSOLUTE
    ../clib/angel/sysapp.c                   0x00000000   Number         0  sys_wrch.o ABSOLUTE
    ../clib/angel/sysapp.c                   0x00000000   Number         0  sys_command.o ABSOLUTE
    ../clib/arm_runtime.c                    0x00000000   Number         0  init_aeabi.o ABSOLUTE
    ../clib/arm_runtime.c                    0x00000000   Number         0  init_aeabi.o ABSOLUTE
    ../clib/armsys.c                         0x00000000   Number         0  argv_veneer.o ABSOLUTE
    ../clib/armsys.c                         0x00000000   Number         0  no_argv.o ABSOLUTE
    ../clib/armsys.c                         0x00000000   Number         0  _get_argv_nomalloc.o ABSOLUTE
    ../clib/armsys.c                         0x00000000   Number         0  argv_veneer.o ABSOLUTE
    ../clib/armsys.c                         0x00000000   Number         0  _get_argv.o ABSOLUTE
    ../clib/bigflt.c                         0x00000000   Number         0  bigflt0.o ABSOLUTE
    ../clib/btod.s                           0x00000000   Number         0  btod.o ABSOLUTE
    ../clib/ctype.c                          0x00000000   Number         0  tolower.o ABSOLUTE
    ../clib/ctype.c                          0x00000000   Number         0  toupper.o ABSOLUTE
    ../clib/ctype.c                          0x00000000   Number         0  isspace.o ABSOLUTE
    ../clib/fenv.c                           0x00000000   Number         0  _rserrno.o ABSOLUTE
    ../clib/heap1.c                          0x00000000   Number         0  h1_realloc_mt.o ABSOLUTE
    ../clib/heap1.c                          0x00000000   Number         0  h1_free_mt.o ABSOLUTE
    ../clib/heap1.c                          0x00000000   Number         0  h1_final_mt.o ABSOLUTE
    ../clib/heap1.c                          0x00000000   Number         0  h1_final.o ABSOLUTE
    ../clib/heap1.c                          0x00000000   Number         0  h1_alloc_mt.o ABSOLUTE
    ../clib/heap1.c                          0x00000000   Number         0  h1_realloc.o ABSOLUTE
    ../clib/heap1.c                          0x00000000   Number         0  h1_free.o ABSOLUTE
    ../clib/heap1.c                          0x00000000   Number         0  h1_alloc.o ABSOLUTE
    ../clib/heap1.c                          0x00000000   Number         0  h1_init.o ABSOLUTE
    ../clib/heap1.c                          0x00000000   Number         0  h1_extend_mt.o ABSOLUTE
    ../clib/heap1.c                          0x00000000   Number         0  h1_extend.o ABSOLUTE
    ../clib/heap1.c                          0x00000000   Number         0  h1_init_mt.o ABSOLUTE
    ../clib/heap2.c                          0x00000000   Number         0  heap2mt.o ABSOLUTE
    ../clib/heap2.c                          0x00000000   Number         0  heap2.o ABSOLUTE
    ../clib/heap2.c                          0x00000000   Number         0  fdtree.o ABSOLUTE
    ../clib/heapalloc.c                      0x00000000   Number         0  maybetermalloc1.o ABSOLUTE
    ../clib/heapalloc.c                      0x00000000   Number         0  hrguard.o ABSOLUTE
    ../clib/heapalloc.c                      0x00000000   Number         0  malloc.o ABSOLUTE
    ../clib/heapalloc.c                      0x00000000   Number         0  free.o ABSOLUTE
    ../clib/heapalloc.c                      0x00000000   Number         0  hguard.o ABSOLUTE
    ../clib/heapalloc.c                      0x00000000   Number         0  init_alloc.o ABSOLUTE
    ../clib/heapalloc.c                      0x00000000   Number         0  heapstubs.o ABSOLUTE
    ../clib/heapalloc.c                      0x00000000   Number         0  realloc.o ABSOLUTE
    ../clib/heapalloc.c                      0x00000000   Number         0  maybetermalloc2.o ABSOLUTE
    ../clib/heapalloc.c                      0x00000000   Number         0  maybetermalloc2.o ABSOLUTE
    ../clib/heapalloc.c                      0x00000000   Number         0  maybetermalloc1.o ABSOLUTE
    ../clib/heapalloc.c                      0x00000000   Number         0  term_alloc.o ABSOLUTE
    ../clib/heapaux.c                        0x00000000   Number         0  heapauxi.o ABSOLUTE
    ../clib/heapaux.c                        0x00000000   Number         0  heapauxa.o ABSOLUTE
    ../clib/libinit.s                        0x00000000   Number         0  libinit2.o ABSOLUTE
    ../clib/libinit.s                        0x00000000   Number         0  libshutdown2.o ABSOLUTE
    ../clib/libinit.s                        0x00000000   Number         0  libshutdown.o ABSOLUTE
    ../clib/libinit.s                        0x00000000   Number         0  libinit.o ABSOLUTE
    ../clib/locale.c                         0x00000000   Number         0  _wcrtomb.o ABSOLUTE
    ../clib/locale.s                         0x00000000   Number         0  lc_ctype_c.o ABSOLUTE
    ../clib/locale.s                         0x00000000   Number         0  lc_numeric_c.o ABSOLUTE
    ../clib/longlong.s                       0x00000000   Number         0  llshl.o ABSOLUTE
    ../clib/longlong.s                       0x00000000   Number         0  lludivv7m.o ABSOLUTE
    ../clib/longlong.s                       0x00000000   Number         0  lludiv10.o ABSOLUTE
    ../clib/longlong.s                       0x00000000   Number         0  llsdiv.o ABSOLUTE
    ../clib/memcpset.s                       0x00000000   Number         0  rt_memclr.o ABSOLUTE
    ../clib/memcpset.s                       0x00000000   Number         0  rt_memmove_w.o ABSOLUTE
    ../clib/memcpset.s                       0x00000000   Number         0  strncpy.o ABSOLUTE
    ../clib/memcpset.s                       0x00000000   Number         0  rt_memmove_v6.o ABSOLUTE
    ../clib/memcpset.s                       0x00000000   Number         0  rt_memcpy_v6.o ABSOLUTE
    ../clib/memcpset.s                       0x00000000   Number         0  rt_memclr_w.o ABSOLUTE
    ../clib/memcpset.s                       0x00000000   Number         0  aeabi_memset.o ABSOLUTE
    ../clib/memcpset.s                       0x00000000   Number         0  strcmpv7m.o ABSOLUTE
    ../clib/memcpset.s                       0x00000000   Number         0  rt_memcpy_w.o ABSOLUTE
    ../clib/misc.s                           0x00000000   Number         0  printf_stubs.o ABSOLUTE
    ../clib/printf.c                         0x00000000   Number         0  _printf_char_common.o ABSOLUTE
    ../clib/printf.c                         0x00000000   Number         0  _printf_fp_hex.o ABSOLUTE
    ../clib/printf.c                         0x00000000   Number         0  _printf_pad.o ABSOLUTE
    ../clib/printf.c                         0x00000000   Number         0  c89vsnprintf.o ABSOLUTE
    ../clib/printf.c                         0x00000000   Number         0  _printf_str.o ABSOLUTE
    ../clib/printf.c                         0x00000000   Number         0  __2sprintf.o ABSOLUTE
    ../clib/printf.c                         0x00000000   Number         0  noretval__2sprintf.o ABSOLUTE
    ../clib/printf.c                         0x00000000   Number         0  _printf_truncate.o ABSOLUTE
    ../clib/printf.c                         0x00000000   Number         0  _printf_hex_int_ptr.o ABSOLUTE
    ../clib/printf.c                         0x00000000   Number         0  _printf_hex_ll_ptr.o ABSOLUTE
    ../clib/printf.c                         0x00000000   Number         0  __printf.o ABSOLUTE
    ../clib/printf.c                         0x00000000   Number         0  __printf_flags_ss.o ABSOLUTE
    ../clib/printf.c                         0x00000000   Number         0  __printf_ss_wp.o ABSOLUTE
    ../clib/printf.c                         0x00000000   Number         0  _printf_wchar.o ABSOLUTE
    ../clib/printf.c                         0x00000000   Number         0  _printf_char.o ABSOLUTE
    ../clib/printf.c                         0x00000000   Number         0  __printf_nopercent.o ABSOLUTE
    ../clib/printf.c                         0x00000000   Number         0  _printf_dec.o ABSOLUTE
    ../clib/printf.c                         0x00000000   Number         0  _printf_fp_infnan.o ABSOLUTE
    ../clib/printf.c                         0x00000000   Number         0  __printf_ss.o ABSOLUTE
    ../clib/printf.c                         0x00000000   Number         0  __printf_flags_ss_wp.o ABSOLUTE
    ../clib/printf.c                         0x00000000   Number         0  _printf_hex_int_ll_ptr.o ABSOLUTE
    ../clib/printf.c                         0x00000000   Number         0  __printf_wp.o ABSOLUTE
    ../clib/printf.c                         0x00000000   Number         0  __printf_flags.o ABSOLUTE
    ../clib/printf.c                         0x00000000   Number         0  __printf_flags_wp.o ABSOLUTE
    ../clib/printf.c                         0x00000000   Number         0  _printf_hex_int_ll.o ABSOLUTE
    ../clib/printf.c                         0x00000000   Number         0  _printf_hex_int.o ABSOLUTE
    ../clib/printf.c                         0x00000000   Number         0  _printf_hex_ll.o ABSOLUTE
    ../clib/printf.c                         0x00000000   Number         0  _printf_oct_int_ll.o ABSOLUTE
    ../clib/printf.c                         0x00000000   Number         0  _printf_oct_int.o ABSOLUTE
    ../clib/printf.c                         0x00000000   Number         0  _printf_oct_ll.o ABSOLUTE
    ../clib/printf.c                         0x00000000   Number         0  _printf_hex_ptr.o ABSOLUTE
    ../clib/printf.c                         0x00000000   Number         0  _printf_longlong_dec.o ABSOLUTE
    ../clib/printf.c                         0x00000000   Number         0  _printf_charcount.o ABSOLUTE
    ../clib/printf.c                         0x00000000   Number         0  _printf_wctomb.o ABSOLUTE
    ../clib/printf.c                         0x00000000   Number         0  _snputc.o ABSOLUTE
    ../clib/printf.c                         0x00000000   Number         0  _printf_intcommon.o ABSOLUTE
    ../clib/printf.c                         0x00000000   Number         0  _sputc.o ABSOLUTE
    ../clib/printf.c                         0x00000000   Number         0  _printf_fp_dec.o ABSOLUTE
    ../clib/printf_percent.s                 0x00000000   Number         0  _printf_llo.o ABSOLUTE
    ../clib/printf_percent.s                 0x00000000   Number         0  _printf_ls.o ABSOLUTE
    ../clib/printf_percent.s                 0x00000000   Number         0  _printf_f.o ABSOLUTE
    ../clib/printf_percent.s                 0x00000000   Number         0  _printf_c.o ABSOLUTE
    ../clib/printf_percent.s                 0x00000000   Number         0  _printf_e.o ABSOLUTE
    ../clib/printf_percent.s                 0x00000000   Number         0  _printf_l.o ABSOLUTE
    ../clib/printf_percent.s                 0x00000000   Number         0  _printf_ll.o ABSOLUTE
    ../clib/printf_percent.s                 0x00000000   Number         0  _printf_llu.o ABSOLUTE
    ../clib/printf_percent.s                 0x00000000   Number         0  _printf_lld.o ABSOLUTE
    ../clib/printf_percent.s                 0x00000000   Number         0  _printf_percent.o ABSOLUTE
    ../clib/printf_percent.s                 0x00000000   Number         0  _printf_u.o ABSOLUTE
    ../clib/printf_percent.s                 0x00000000   Number         0  _printf_i.o ABSOLUTE
    ../clib/printf_percent.s                 0x00000000   Number         0  _printf_o.o ABSOLUTE
    ../clib/printf_percent.s                 0x00000000   Number         0  _printf_p.o ABSOLUTE
    ../clib/printf_percent.s                 0x00000000   Number         0  _printf_x.o ABSOLUTE
    ../clib/printf_percent.s                 0x00000000   Number         0  _printf_n.o ABSOLUTE
    ../clib/printf_percent.s                 0x00000000   Number         0  _printf_s.o ABSOLUTE
    ../clib/printf_percent.s                 0x00000000   Number         0  _printf_a.o ABSOLUTE
    ../clib/printf_percent.s                 0x00000000   Number         0  _printf_g.o ABSOLUTE
    ../clib/printf_percent.s                 0x00000000   Number         0  _printf_percent_end.o ABSOLUTE
    ../clib/printf_percent.s                 0x00000000   Number         0  _printf_d.o ABSOLUTE
    ../clib/printf_percent.s                 0x00000000   Number         0  _printf_lli.o ABSOLUTE
    ../clib/printf_percent.s                 0x00000000   Number         0  _printf_llx.o ABSOLUTE
    ../clib/printf_percent.s                 0x00000000   Number         0  _printf_lc.o ABSOLUTE
    ../clib/scanf.c                          0x00000000   Number         0  atol.o ABSOLUTE
    ../clib/scanf.c                          0x00000000   Number         0  _chval.o ABSOLUTE
    ../clib/scanf.c                          0x00000000   Number         0  scanf_hexfp.o ABSOLUTE
    ../clib/scanf.c                          0x00000000   Number         0  scanf_infnan.o ABSOLUTE
    ../clib/scanf.c                          0x00000000   Number         0  scanf_fp.o ABSOLUTE
    ../clib/scanf.c                          0x00000000   Number         0  _sgetc.o ABSOLUTE
    ../clib/scanf.c                          0x00000000   Number         0  _strtoul.o ABSOLUTE
    ../clib/scanf.c                          0x00000000   Number         0  strtol.o ABSOLUTE
    ../clib/scanf.c                          0x00000000   Number         0  strtod.o ABSOLUTE
    ../clib/signal.c                         0x00000000   Number         0  defsig_rtred_inner.o ABSOLUTE
    ../clib/signal.c                         0x00000000   Number         0  defsig_fpe_inner.o ABSOLUTE
    ../clib/signal.c                         0x00000000   Number         0  defsig_stak_inner.o ABSOLUTE
    ../clib/signal.c                         0x00000000   Number         0  defsig_exit.o ABSOLUTE
    ../clib/signal.c                         0x00000000   Number         0  defsig_rtmem_outer.o ABSOLUTE
    ../clib/signal.c                         0x00000000   Number         0  defsig_cppl_inner.o ABSOLUTE
    ../clib/signal.c                         0x00000000   Number         0  defsig_segv_inner.o ABSOLUTE
    ../clib/signal.c                         0x00000000   Number         0  defsig_other.o ABSOLUTE
    ../clib/signal.c                         0x00000000   Number         0  defsig_rtmem_formal.o ABSOLUTE
    ../clib/signal.c                         0x00000000   Number         0  defsig_pvfn_inner.o ABSOLUTE
    ../clib/signal.c                         0x00000000   Number         0  defsig_pvfn_formal.o ABSOLUTE
    ../clib/signal.c                         0x00000000   Number         0  defsig_abrt_inner.o ABSOLUTE
    ../clib/signal.c                         0x00000000   Number         0  defsig_pvfn_outer.o ABSOLUTE
    ../clib/signal.c                         0x00000000   Number         0  __raise.o ABSOLUTE
    ../clib/signal.c                         0x00000000   Number         0  defsig_general.o ABSOLUTE
    ../clib/signal.c                         0x00000000   Number         0  defsig_fpe_outer.o ABSOLUTE
    ../clib/signal.c                         0x00000000   Number         0  defsig_fpe_formal.o ABSOLUTE
    ../clib/signal.c                         0x00000000   Number         0  defsig_abrt_outer.o ABSOLUTE
    ../clib/signal.c                         0x00000000   Number         0  defsig_rtmem_inner.o ABSOLUTE
    ../clib/signal.c                         0x00000000   Number         0  defsig_abrt_formal.o ABSOLUTE
    ../clib/signal.s                         0x00000000   Number         0  defsig.o ABSOLUTE
    ../clib/stdlib.c                         0x00000000   Number         0  exit.o ABSOLUTE
    ../clib/stdlib.c                         0x00000000   Number         0  cxa_finalize.o ABSOLUTE
    ../clib/stdlib.c                         0x00000000   Number         0  aeabi_atexit.o ABSOLUTE
    ../clib/stdlib.c                         0x00000000   Number         0  atexit_aeabi.o ABSOLUTE
    ../clib/stdlib.c                         0x00000000   Number         0  rand.o ABSOLUTE
    ../clib/stdlib.c                         0x00000000   Number         0  rand.o ABSOLUTE
    ../clib/stdlib.c                         0x00000000   Number         0  bsearchnoex.o ABSOLUTE
    ../clib/stdlib.c                         0x00000000   Number         0  abort.o ABSOLUTE
    ../clib/string.c                         0x00000000   Number         0  strchr.o ABSOLUTE
    ../clib/string.c                         0x00000000   Number         0  strstr.o ABSOLUTE
    ../clib/string.c                         0x00000000   Number         0  strcpy.o ABSOLUTE
    ../clib/string.c                         0x00000000   Number         0  strrchr.o ABSOLUTE
    ../clib/string.c                         0x00000000   Number         0  strlen.o ABSOLUTE
    ../clib/string.c                         0x00000000   Number         0  strncmp.o ABSOLUTE
    ../fplib/basic.s                         0x00000000   Number         0  basic.o ABSOLUTE
    ../fplib/d2f.s                           0x00000000   Number         0  d2f.o ABSOLUTE
    ../fplib/daddsub.s                       0x00000000   Number         0  daddsub_clz.o ABSOLUTE
    ../fplib/dcheck1.s                       0x00000000   Number         0  dcheck1.o ABSOLUTE
    ../fplib/dcmpi.s                         0x00000000   Number         0  dcmpi.o ABSOLUTE
    ../fplib/ddiv.s                          0x00000000   Number         0  ddiv.o ABSOLUTE
    ../fplib/deqf.s                          0x00000000   Number         0  deqf.o ABSOLUTE
    ../fplib/dfix.s                          0x00000000   Number         0  dfix.o ABSOLUTE
    ../fplib/dfixll.s                        0x00000000   Number         0  dfixll.o ABSOLUTE
    ../fplib/dflt.s                          0x00000000   Number         0  dflt_clz.o ABSOLUTE
    ../fplib/dfltll.s                        0x00000000   Number         0  dfltll_clz.o ABSOLUTE
    ../fplib/dleqf.s                         0x00000000   Number         0  dleqf.o ABSOLUTE
    ../fplib/dmul.s                          0x00000000   Number         0  dmul.o ABSOLUTE
    ../fplib/dnaninf.s                       0x00000000   Number         0  dnaninf.o ABSOLUTE
    ../fplib/dretinf.s                       0x00000000   Number         0  dretinf.o ABSOLUTE
    ../fplib/drleqf.s                        0x00000000   Number         0  drleqf.o ABSOLUTE
    ../fplib/f2d.s                           0x00000000   Number         0  f2d.o ABSOLUTE
    ../fplib/fnaninf.s                       0x00000000   Number         0  fnaninf.o ABSOLUTE
    ../fplib/fpconst.s                       0x00000000   Number         0  fpconst.o ABSOLUTE
    ../fplib/fpinit.s                        0x00000000   Number         0  fpinit.o ABSOLUTE
    ../fplib/fretinf.s                       0x00000000   Number         0  fretinf.o ABSOLUTE
    ../fplib/istatus.s                       0x00000000   Number         0  istatus.o ABSOLUTE
    ../fplib/printf1.s                       0x00000000   Number         0  printf1.o ABSOLUTE
    ../fplib/printf2.s                       0x00000000   Number         0  printf2.o ABSOLUTE
    ../fplib/printf2a.s                      0x00000000   Number         0  printf2a.o ABSOLUTE
    ../fplib/printf2b.s                      0x00000000   Number         0  printf2b.o ABSOLUTE
    ../fplib/retnan.s                        0x00000000   Number         0  retnan.o ABSOLUTE
    ../fplib/scalbn.s                        0x00000000   Number         0  scalbn.o ABSOLUTE
    ../fplib/scanf1.s                        0x00000000   Number         0  scanf1.o ABSOLUTE
    ../fplib/scanf2.s                        0x00000000   Number         0  scanf2.o ABSOLUTE
    ../fplib/scanf2a.s                       0x00000000   Number         0  scanf2a.o ABSOLUTE
    ../fplib/scanf2b.s                       0x00000000   Number         0  scanf2b.o ABSOLUTE
    ../fplib/trapv.s                         0x00000000   Number         0  trapv.o ABSOLUTE
    ../fplib/usenofp.s                       0x00000000   Number         0  usenofp.o ABSOLUTE
    ../mathlib/atof.c                        0x00000000   Number         0  atof.o ABSOLUTE
    ../mathlib/dunder.c                      0x00000000   Number         0  dunder.o ABSOLUTE
    ../mathlib/fpclassify.c                  0x00000000   Number         0  fpclassify.o ABSOLUTE
    ../mathlib/frexp.c                       0x00000000   Number         0  frexp.o ABSOLUTE
    ../mathlib/ldexp.c                       0x00000000   Number         0  ldexp_x.o ABSOLUTE
    ../mathlib/ldexp.c                       0x00000000   Number         0  ldexp.o ABSOLUTE
    ../mathlib/narrow.c                      0x00000000   Number         0  narrow.o ABSOLUTE
    ../mathlib/qnan.c                        0x00000000   Number         0  qnan.o ABSOLUTE
    ..\Library\Adafruit_GFX_Library\Adafruit_GFX.cpp 0x00000000   Number         0  adafruit_gfx.o ABSOLUTE
    ..\Library\Adafruit_ST7789\Adafruit_ST7789.cpp 0x00000000   Number         0  adafruit_st7789.o ABSOLUTE
    ..\Library\Button\ButtonEvent.cpp        0x00000000   Number         0  buttonevent.o ABSOLUTE
    ..\Library\Fatfs\src\diskio.cpp          0x00000000   Number         0  diskio.o ABSOLUTE
    ..\Library\Fatfs\src\ff.c                0x00000000   Number         0  ff.o ABSOLUTE
    ..\Library\MillisTaskManager\MillisTaskManager.cpp 0x00000000   Number         0  millistaskmanager.o ABSOLUTE
    ..\Library\PICTURE\piclib.cpp            0x00000000   Number         0  piclib.o ABSOLUTE
    ..\Library\PICTURE\tjpgd.cpp             0x00000000   Number         0  tjpgd.o ABSOLUTE
    ..\Library\PageManager\PageManager.cpp   0x00000000   Number         0  pagemanager.o ABSOLUTE
    ..\Library\TonePlayer\TonePlayer.cpp     0x00000000   Number         0  toneplayer.o ABSOLUTE
    ..\Src\APP\APP_Music.cpp                 0x00000000   Number         0  app_music.o ABSOLUTE
    ..\Src\APP\APP_Sdfatfs.cpp               0x00000000   Number         0  app_sdfatfs.o ABSOLUTE
    ..\Src\APP\Task\Game_box.cpp             0x00000000   Number         0  game_box.o ABSOLUTE
    ..\Src\Display\Display.cpp               0x00000000   Number         0  display.o ABSOLUTE
    ..\Src\Display\Pages\Page_About.cpp      0x00000000   Number         0  page_about.o ABSOLUTE
    ..\Src\Display\Pages\Page_Displate.cpp   0x00000000   Number         0  page_displate.o ABSOLUTE
    ..\Src\Display\Pages\Page_Game.cpp       0x00000000   Number         0  page_game.o ABSOLUTE
    ..\Src\Display\Pages\Page_Level.cpp      0x00000000   Number         0  page_level.o ABSOLUTE
    ..\Src\Display\Pages\Page_Master.cpp     0x00000000   Number         0  page_master.o ABSOLUTE
    ..\Src\HAL\Button.cpp                    0x00000000   Number         0  button.o ABSOLUTE
    ..\Src\HAL\Sdfatfs.cpp                   0x00000000   Number         0  sdfatfs.o ABSOLUTE
    ..\Src\main.cpp                          0x00000000   Number         0  main.o ABSOLUTE
    ..\SrduinoAPI\ArduinoAPI\src\Arduino.c   0x00000000   Number         0  arduino.o ABSOLUTE
    ..\SrduinoAPI\ArduinoAPI\src\HardwareSerial.cpp 0x00000000   Number         0  hardwareserial.o ABSOLUTE
    ..\SrduinoAPI\ArduinoAPI\src\Print.cpp   0x00000000   Number         0  print.o ABSOLUTE
    ..\SrduinoAPI\ArduinoAPI\src\SPI.cpp     0x00000000   Number         0  spi.o ABSOLUTE
    ..\SrduinoAPI\ArduinoAPI\src\Stream.cpp  0x00000000   Number         0  stream.o ABSOLUTE
    ..\SrduinoAPI\ArduinoAPI\src\Tone.cpp    0x00000000   Number         0  tone.o ABSOLUTE
    ..\SrduinoAPI\ArduinoAPI\src\WMath.cpp   0x00000000   Number         0  wmath.o ABSOLUTE
    ..\SrduinoAPI\ArduinoAPI\src\WString.cpp 0x00000000   Number         0  wstring.o ABSOLUTE
    ..\SrduinoAPI\ArduinoAPI\src\Wire.cpp    0x00000000   Number         0  wire.o ABSOLUTE
    ..\SrduinoAPI\ArduinoAPI\src\WireBase.cpp 0x00000000   Number         0  wirebase.o ABSOLUTE
    ..\SrduinoAPI\ArduinoAPI\src\dtostrf.c   0x00000000   Number         0  dtostrf.o ABSOLUTE
    ..\SrduinoAPI\ArduinoAPI\src\itoa.c      0x00000000   Number         0  itoa.o ABSOLUTE
    ..\SrduinoAPI\Platform\Boradcore\system_stm32f4xx.c 0x00000000   Number         0  system_stm32f4xx.o ABSOLUTE
    ..\SrduinoAPI\Platform\STM32F4xx_StdPeriph_Driver\src\misc.c 0x00000000   Number         0  misc.o ABSOLUTE
    ..\SrduinoAPI\Platform\STM32F4xx_StdPeriph_Driver\src\stm32f4xx_adc.c 0x00000000   Number         0  stm32f4xx_adc.o ABSOLUTE
    ..\SrduinoAPI\Platform\STM32F4xx_StdPeriph_Driver\src\stm32f4xx_can.c 0x00000000   Number         0  stm32f4xx_can.o ABSOLUTE
    ..\SrduinoAPI\Platform\STM32F4xx_StdPeriph_Driver\src\stm32f4xx_cec.c 0x00000000   Number         0  stm32f4xx_cec.o ABSOLUTE
    ..\SrduinoAPI\Platform\STM32F4xx_StdPeriph_Driver\src\stm32f4xx_crc.c 0x00000000   Number         0  stm32f4xx_crc.o ABSOLUTE
    ..\SrduinoAPI\Platform\STM32F4xx_StdPeriph_Driver\src\stm32f4xx_cryp.c 0x00000000   Number         0  stm32f4xx_cryp.o ABSOLUTE
    ..\SrduinoAPI\Platform\STM32F4xx_StdPeriph_Driver\src\stm32f4xx_cryp_aes.c 0x00000000   Number         0  stm32f4xx_cryp_aes.o ABSOLUTE
    ..\SrduinoAPI\Platform\STM32F4xx_StdPeriph_Driver\src\stm32f4xx_cryp_des.c 0x00000000   Number         0  stm32f4xx_cryp_des.o ABSOLUTE
    ..\SrduinoAPI\Platform\STM32F4xx_StdPeriph_Driver\src\stm32f4xx_cryp_tdes.c 0x00000000   Number         0  stm32f4xx_cryp_tdes.o ABSOLUTE
    ..\SrduinoAPI\Platform\STM32F4xx_StdPeriph_Driver\src\stm32f4xx_dac.c 0x00000000   Number         0  stm32f4xx_dac.o ABSOLUTE
    ..\SrduinoAPI\Platform\STM32F4xx_StdPeriph_Driver\src\stm32f4xx_dbgmcu.c 0x00000000   Number         0  stm32f4xx_dbgmcu.o ABSOLUTE
    ..\SrduinoAPI\Platform\STM32F4xx_StdPeriph_Driver\src\stm32f4xx_dcmi.c 0x00000000   Number         0  stm32f4xx_dcmi.o ABSOLUTE
    ..\SrduinoAPI\Platform\STM32F4xx_StdPeriph_Driver\src\stm32f4xx_dfsdm.c 0x00000000   Number         0  stm32f4xx_dfsdm.o ABSOLUTE
    ..\SrduinoAPI\Platform\STM32F4xx_StdPeriph_Driver\src\stm32f4xx_dma.c 0x00000000   Number         0  stm32f4xx_dma.o ABSOLUTE
    ..\SrduinoAPI\Platform\STM32F4xx_StdPeriph_Driver\src\stm32f4xx_dma2d.c 0x00000000   Number         0  stm32f4xx_dma2d.o ABSOLUTE
    ..\SrduinoAPI\Platform\STM32F4xx_StdPeriph_Driver\src\stm32f4xx_dsi.c 0x00000000   Number         0  stm32f4xx_dsi.o ABSOLUTE
    ..\SrduinoAPI\Platform\STM32F4xx_StdPeriph_Driver\src\stm32f4xx_exti.c 0x00000000   Number         0  stm32f4xx_exti.o ABSOLUTE
    ..\SrduinoAPI\Platform\STM32F4xx_StdPeriph_Driver\src\stm32f4xx_flash.c 0x00000000   Number         0  stm32f4xx_flash.o ABSOLUTE
    ..\SrduinoAPI\Platform\STM32F4xx_StdPeriph_Driver\src\stm32f4xx_flash_ramfunc.c 0x00000000   Number         0  stm32f4xx_flash_ramfunc.o ABSOLUTE
    ..\SrduinoAPI\Platform\STM32F4xx_StdPeriph_Driver\src\stm32f4xx_fsmc.c 0x00000000   Number         0  stm32f4xx_fsmc.o ABSOLUTE
    ..\SrduinoAPI\Platform\STM32F4xx_StdPeriph_Driver\src\stm32f4xx_gpio.c 0x00000000   Number         0  stm32f4xx_gpio.o ABSOLUTE
    ..\SrduinoAPI\Platform\STM32F4xx_StdPeriph_Driver\src\stm32f4xx_hash.c 0x00000000   Number         0  stm32f4xx_hash.o ABSOLUTE
    ..\SrduinoAPI\Platform\STM32F4xx_StdPeriph_Driver\src\stm32f4xx_hash_md5.c 0x00000000   Number         0  stm32f4xx_hash_md5.o ABSOLUTE
    ..\SrduinoAPI\Platform\STM32F4xx_StdPeriph_Driver\src\stm32f4xx_hash_sha1.c 0x00000000   Number         0  stm32f4xx_hash_sha1.o ABSOLUTE
    ..\SrduinoAPI\Platform\STM32F4xx_StdPeriph_Driver\src\stm32f4xx_i2c.c 0x00000000   Number         0  stm32f4xx_i2c.o ABSOLUTE
    ..\SrduinoAPI\Platform\STM32F4xx_StdPeriph_Driver\src\stm32f4xx_iwdg.c 0x00000000   Number         0  stm32f4xx_iwdg.o ABSOLUTE
    ..\SrduinoAPI\Platform\STM32F4xx_StdPeriph_Driver\src\stm32f4xx_lptim.c 0x00000000   Number         0  stm32f4xx_lptim.o ABSOLUTE
    ..\SrduinoAPI\Platform\STM32F4xx_StdPeriph_Driver\src\stm32f4xx_ltdc.c 0x00000000   Number         0  stm32f4xx_ltdc.o ABSOLUTE
    ..\SrduinoAPI\Platform\STM32F4xx_StdPeriph_Driver\src\stm32f4xx_pwr.c 0x00000000   Number         0  stm32f4xx_pwr.o ABSOLUTE
    ..\SrduinoAPI\Platform\STM32F4xx_StdPeriph_Driver\src\stm32f4xx_qspi.c 0x00000000   Number         0  stm32f4xx_qspi.o ABSOLUTE
    ..\SrduinoAPI\Platform\STM32F4xx_StdPeriph_Driver\src\stm32f4xx_rcc.c 0x00000000   Number         0  stm32f4xx_rcc.o ABSOLUTE
    ..\SrduinoAPI\Platform\STM32F4xx_StdPeriph_Driver\src\stm32f4xx_rng.c 0x00000000   Number         0  stm32f4xx_rng.o ABSOLUTE
    ..\SrduinoAPI\Platform\STM32F4xx_StdPeriph_Driver\src\stm32f4xx_rtc.c 0x00000000   Number         0  stm32f4xx_rtc.o ABSOLUTE
    ..\SrduinoAPI\Platform\STM32F4xx_StdPeriph_Driver\src\stm32f4xx_sai.c 0x00000000   Number         0  stm32f4xx_sai.o ABSOLUTE
    ..\SrduinoAPI\Platform\STM32F4xx_StdPeriph_Driver\src\stm32f4xx_sdio.c 0x00000000   Number         0  stm32f4xx_sdio.o ABSOLUTE
    ..\SrduinoAPI\Platform\STM32F4xx_StdPeriph_Driver\src\stm32f4xx_spdifrx.c 0x00000000   Number         0  stm32f4xx_spdifrx.o ABSOLUTE
    ..\SrduinoAPI\Platform\STM32F4xx_StdPeriph_Driver\src\stm32f4xx_spi.c 0x00000000   Number         0  stm32f4xx_spi.o ABSOLUTE
    ..\SrduinoAPI\Platform\STM32F4xx_StdPeriph_Driver\src\stm32f4xx_syscfg.c 0x00000000   Number         0  stm32f4xx_syscfg.o ABSOLUTE
    ..\SrduinoAPI\Platform\STM32F4xx_StdPeriph_Driver\src\stm32f4xx_tim.c 0x00000000   Number         0  stm32f4xx_tim.o ABSOLUTE
    ..\SrduinoAPI\Platform\STM32F4xx_StdPeriph_Driver\src\stm32f4xx_usart.c 0x00000000   Number         0  stm32f4xx_usart.o ABSOLUTE
    ..\SrduinoAPI\Platform\STM32F4xx_StdPeriph_Driver\src\stm32f4xx_wwdg.c 0x00000000   Number         0  stm32f4xx_wwdg.o ABSOLUTE
    ..\SrduinoAPI\Platform\Startup\ARM\startup_stm32f40_41xxx.s 0x00000000   Number         0  startup_stm32f40_41xxx.o ABSOLUTE
    ..\SrduinoAPI\Platform\src\adc.c         0x00000000   Number         0  adc.o ABSOLUTE
    ..\SrduinoAPI\Platform\src\delay.c       0x00000000   Number         0  delay.o ABSOLUTE
    ..\SrduinoAPI\Platform\src\exti.c        0x00000000   Number         0  exti.o ABSOLUTE
    ..\SrduinoAPI\Platform\src\flash.c       0x00000000   Number         0  flash.o ABSOLUTE
    ..\SrduinoAPI\Platform\src\gpio.c        0x00000000   Number         0  gpio.o ABSOLUTE
    ..\SrduinoAPI\Platform\src\pwm.c         0x00000000   Number         0  pwm.o ABSOLUTE
    ..\SrduinoAPI\Platform\src\rng.c         0x00000000   Number         0  rng.o ABSOLUTE
    ..\SrduinoAPI\Platform\src\timer.c       0x00000000   Number         0  timer.o ABSOLUTE
    ..\\Library\\Adafruit_GFX_Library\\Adafruit_GFX.cpp 0x00000000   Number         0  adafruit_gfx.o ABSOLUTE
    ..\\Library\\Adafruit_ST7789\\Adafruit_ST7789.cpp 0x00000000   Number         0  adafruit_st7789.o ABSOLUTE
    ..\\Library\\Button\\ButtonEvent.cpp     0x00000000   Number         0  buttonevent.o ABSOLUTE
    ..\\Library\\Fatfs\\src\\diskio.cpp      0x00000000   Number         0  diskio.o ABSOLUTE
    ..\\Library\\MillisTaskManager\\MillisTaskManager.cpp 0x00000000   Number         0  millistaskmanager.o ABSOLUTE
    ..\\Library\\PICTURE\\piclib.cpp         0x00000000   Number         0  piclib.o ABSOLUTE
    ..\\Library\\PICTURE\\tjpgd.cpp          0x00000000   Number         0  tjpgd.o ABSOLUTE
    ..\\Library\\PageManager\\PageManager.cpp 0x00000000   Number         0  pagemanager.o ABSOLUTE
    ..\\Src\\APP\\APP_Music.cpp              0x00000000   Number         0  app_music.o ABSOLUTE
    ..\\Src\\APP\\APP_Sdfatfs.cpp            0x00000000   Number         0  app_sdfatfs.o ABSOLUTE
    ..\\Src\\APP\\Task\\Game_box.cpp         0x00000000   Number         0  game_box.o ABSOLUTE
    ..\\Src\\Display\\Display.cpp            0x00000000   Number         0  display.o ABSOLUTE
    ..\\Src\\Display\\Pages\\Page_About.cpp  0x00000000   Number         0  page_about.o ABSOLUTE
    ..\\Src\\Display\\Pages\\Page_Displate.cpp 0x00000000   Number         0  page_displate.o ABSOLUTE
    ..\\Src\\Display\\Pages\\Page_Game.cpp   0x00000000   Number         0  page_game.o ABSOLUTE
    ..\\Src\\Display\\Pages\\Page_Level.cpp  0x00000000   Number         0  page_level.o ABSOLUTE
    ..\\Src\\Display\\Pages\\Page_Master.cpp 0x00000000   Number         0  page_master.o ABSOLUTE
    ..\\Src\\HAL\\Button.cpp                 0x00000000   Number         0  button.o ABSOLUTE
    ..\\Src\\HAL\\Sdfatfs.cpp                0x00000000   Number         0  sdfatfs.o ABSOLUTE
    ..\\Src\\main.cpp                        0x00000000   Number         0  main.o ABSOLUTE
    ..\\SrduinoAPI\\ArduinoAPI\\src\\Arduino.c 0x00000000   Number         0  arduino.o ABSOLUTE
    ..\\SrduinoAPI\\ArduinoAPI\\src\\HardwareSerial.cpp 0x00000000   Number         0  hardwareserial.o ABSOLUTE
    ..\\SrduinoAPI\\ArduinoAPI\\src\\SPI.cpp 0x00000000   Number         0  spi.o ABSOLUTE
    ..\\SrduinoAPI\\ArduinoAPI\\src\\Stream.cpp 0x00000000   Number         0  stream.o ABSOLUTE
    ..\\SrduinoAPI\\ArduinoAPI\\src\\Tone.cpp 0x00000000   Number         0  tone.o ABSOLUTE
    ..\\SrduinoAPI\\ArduinoAPI\\src\\Wire.cpp 0x00000000   Number         0  wire.o ABSOLUTE
    ..\\SrduinoAPI\\ArduinoAPI\\src\\WireBase.cpp 0x00000000   Number         0  wirebase.o ABSOLUTE
    ..\\SrduinoAPI\\Platform\\Boradcore\\system_stm32f4xx.c 0x00000000   Number         0  system_stm32f4xx.o ABSOLUTE
    ..\\SrduinoAPI\\Platform\\STM32F4xx_StdPeriph_Driver\\src\\misc.c 0x00000000   Number         0  misc.o ABSOLUTE
    ..\\SrduinoAPI\\Platform\\STM32F4xx_StdPeriph_Driver\\src\\stm32f4xx_adc.c 0x00000000   Number         0  stm32f4xx_adc.o ABSOLUTE
    ..\\SrduinoAPI\\Platform\\STM32F4xx_StdPeriph_Driver\\src\\stm32f4xx_can.c 0x00000000   Number         0  stm32f4xx_can.o ABSOLUTE
    ..\\SrduinoAPI\\Platform\\STM32F4xx_StdPeriph_Driver\\src\\stm32f4xx_cec.c 0x00000000   Number         0  stm32f4xx_cec.o ABSOLUTE
    ..\\SrduinoAPI\\Platform\\STM32F4xx_StdPeriph_Driver\\src\\stm32f4xx_crc.c 0x00000000   Number         0  stm32f4xx_crc.o ABSOLUTE
    ..\\SrduinoAPI\\Platform\\STM32F4xx_StdPeriph_Driver\\src\\stm32f4xx_cryp.c 0x00000000   Number         0  stm32f4xx_cryp.o ABSOLUTE
    ..\\SrduinoAPI\\Platform\\STM32F4xx_StdPeriph_Driver\\src\\stm32f4xx_cryp_aes.c 0x00000000   Number         0  stm32f4xx_cryp_aes.o ABSOLUTE
    ..\\SrduinoAPI\\Platform\\STM32F4xx_StdPeriph_Driver\\src\\stm32f4xx_cryp_des.c 0x00000000   Number         0  stm32f4xx_cryp_des.o ABSOLUTE
    ..\\SrduinoAPI\\Platform\\STM32F4xx_StdPeriph_Driver\\src\\stm32f4xx_cryp_tdes.c 0x00000000   Number         0  stm32f4xx_cryp_tdes.o ABSOLUTE
    ..\\SrduinoAPI\\Platform\\STM32F4xx_StdPeriph_Driver\\src\\stm32f4xx_dac.c 0x00000000   Number         0  stm32f4xx_dac.o ABSOLUTE
    ..\\SrduinoAPI\\Platform\\STM32F4xx_StdPeriph_Driver\\src\\stm32f4xx_dbgmcu.c 0x00000000   Number         0  stm32f4xx_dbgmcu.o ABSOLUTE
    ..\\SrduinoAPI\\Platform\\STM32F4xx_StdPeriph_Driver\\src\\stm32f4xx_dcmi.c 0x00000000   Number         0  stm32f4xx_dcmi.o ABSOLUTE
    ..\\SrduinoAPI\\Platform\\STM32F4xx_StdPeriph_Driver\\src\\stm32f4xx_dfsdm.c 0x00000000   Number         0  stm32f4xx_dfsdm.o ABSOLUTE
    ..\\SrduinoAPI\\Platform\\STM32F4xx_StdPeriph_Driver\\src\\stm32f4xx_dma.c 0x00000000   Number         0  stm32f4xx_dma.o ABSOLUTE
    ..\\SrduinoAPI\\Platform\\STM32F4xx_StdPeriph_Driver\\src\\stm32f4xx_dma2d.c 0x00000000   Number         0  stm32f4xx_dma2d.o ABSOLUTE
    ..\\SrduinoAPI\\Platform\\STM32F4xx_StdPeriph_Driver\\src\\stm32f4xx_dsi.c 0x00000000   Number         0  stm32f4xx_dsi.o ABSOLUTE
    ..\\SrduinoAPI\\Platform\\STM32F4xx_StdPeriph_Driver\\src\\stm32f4xx_exti.c 0x00000000   Number         0  stm32f4xx_exti.o ABSOLUTE
    ..\\SrduinoAPI\\Platform\\STM32F4xx_StdPeriph_Driver\\src\\stm32f4xx_flash.c 0x00000000   Number         0  stm32f4xx_flash.o ABSOLUTE
    ..\\SrduinoAPI\\Platform\\STM32F4xx_StdPeriph_Driver\\src\\stm32f4xx_flash_ramfunc.c 0x00000000   Number         0  stm32f4xx_flash_ramfunc.o ABSOLUTE
    ..\\SrduinoAPI\\Platform\\STM32F4xx_StdPeriph_Driver\\src\\stm32f4xx_fsmc.c 0x00000000   Number         0  stm32f4xx_fsmc.o ABSOLUTE
    ..\\SrduinoAPI\\Platform\\STM32F4xx_StdPeriph_Driver\\src\\stm32f4xx_gpio.c 0x00000000   Number         0  stm32f4xx_gpio.o ABSOLUTE
    ..\\SrduinoAPI\\Platform\\STM32F4xx_StdPeriph_Driver\\src\\stm32f4xx_hash.c 0x00000000   Number         0  stm32f4xx_hash.o ABSOLUTE
    ..\\SrduinoAPI\\Platform\\STM32F4xx_StdPeriph_Driver\\src\\stm32f4xx_hash_md5.c 0x00000000   Number         0  stm32f4xx_hash_md5.o ABSOLUTE
    ..\\SrduinoAPI\\Platform\\STM32F4xx_StdPeriph_Driver\\src\\stm32f4xx_hash_sha1.c 0x00000000   Number         0  stm32f4xx_hash_sha1.o ABSOLUTE
    ..\\SrduinoAPI\\Platform\\STM32F4xx_StdPeriph_Driver\\src\\stm32f4xx_i2c.c 0x00000000   Number         0  stm32f4xx_i2c.o ABSOLUTE
    ..\\SrduinoAPI\\Platform\\STM32F4xx_StdPeriph_Driver\\src\\stm32f4xx_iwdg.c 0x00000000   Number         0  stm32f4xx_iwdg.o ABSOLUTE
    ..\\SrduinoAPI\\Platform\\STM32F4xx_StdPeriph_Driver\\src\\stm32f4xx_lptim.c 0x00000000   Number         0  stm32f4xx_lptim.o ABSOLUTE
    ..\\SrduinoAPI\\Platform\\STM32F4xx_StdPeriph_Driver\\src\\stm32f4xx_ltdc.c 0x00000000   Number         0  stm32f4xx_ltdc.o ABSOLUTE
    ..\\SrduinoAPI\\Platform\\STM32F4xx_StdPeriph_Driver\\src\\stm32f4xx_pwr.c 0x00000000   Number         0  stm32f4xx_pwr.o ABSOLUTE
    ..\\SrduinoAPI\\Platform\\STM32F4xx_StdPeriph_Driver\\src\\stm32f4xx_qspi.c 0x00000000   Number         0  stm32f4xx_qspi.o ABSOLUTE
    ..\\SrduinoAPI\\Platform\\STM32F4xx_StdPeriph_Driver\\src\\stm32f4xx_rcc.c 0x00000000   Number         0  stm32f4xx_rcc.o ABSOLUTE
    ..\\SrduinoAPI\\Platform\\STM32F4xx_StdPeriph_Driver\\src\\stm32f4xx_rng.c 0x00000000   Number         0  stm32f4xx_rng.o ABSOLUTE
    ..\\SrduinoAPI\\Platform\\STM32F4xx_StdPeriph_Driver\\src\\stm32f4xx_rtc.c 0x00000000   Number         0  stm32f4xx_rtc.o ABSOLUTE
    ..\\SrduinoAPI\\Platform\\STM32F4xx_StdPeriph_Driver\\src\\stm32f4xx_sai.c 0x00000000   Number         0  stm32f4xx_sai.o ABSOLUTE
    ..\\SrduinoAPI\\Platform\\STM32F4xx_StdPeriph_Driver\\src\\stm32f4xx_sdio.c 0x00000000   Number         0  stm32f4xx_sdio.o ABSOLUTE
    ..\\SrduinoAPI\\Platform\\STM32F4xx_StdPeriph_Driver\\src\\stm32f4xx_spdifrx.c 0x00000000   Number         0  stm32f4xx_spdifrx.o ABSOLUTE
    ..\\SrduinoAPI\\Platform\\STM32F4xx_StdPeriph_Driver\\src\\stm32f4xx_spi.c 0x00000000   Number         0  stm32f4xx_spi.o ABSOLUTE
    ..\\SrduinoAPI\\Platform\\STM32F4xx_StdPeriph_Driver\\src\\stm32f4xx_syscfg.c 0x00000000   Number         0  stm32f4xx_syscfg.o ABSOLUTE
    ..\\SrduinoAPI\\Platform\\STM32F4xx_StdPeriph_Driver\\src\\stm32f4xx_tim.c 0x00000000   Number         0  stm32f4xx_tim.o ABSOLUTE
    ..\\SrduinoAPI\\Platform\\STM32F4xx_StdPeriph_Driver\\src\\stm32f4xx_usart.c 0x00000000   Number         0  stm32f4xx_usart.o ABSOLUTE
    ..\\SrduinoAPI\\Platform\\STM32F4xx_StdPeriph_Driver\\src\\stm32f4xx_wwdg.c 0x00000000   Number         0  stm32f4xx_wwdg.o ABSOLUTE
    ..\\SrduinoAPI\\Platform\\src\\adc.c     0x00000000   Number         0  adc.o ABSOLUTE
    ..\\SrduinoAPI\\Platform\\src\\delay.c   0x00000000   Number         0  delay.o ABSOLUTE
    ..\\SrduinoAPI\\Platform\\src\\exti.c    0x00000000   Number         0  exti.o ABSOLUTE
    ..\\SrduinoAPI\\Platform\\src\\flash.c   0x00000000   Number         0  flash.o ABSOLUTE
    ..\\SrduinoAPI\\Platform\\src\\gpio.c    0x00000000   Number         0  gpio.o ABSOLUTE
    ..\\SrduinoAPI\\Platform\\src\\pwm.c     0x00000000   Number         0  pwm.o ABSOLUTE
    ..\\SrduinoAPI\\Platform\\src\\rng.c     0x00000000   Number         0  rng.o ABSOLUTE
    ..\\SrduinoAPI\\Platform\\src\\timer.c   0x00000000   Number         0  timer.o ABSOLUTE
    dc.s                                     0x00000000   Number         0  dc.o ABSOLUTE
    RESET                                    0x08000000   Section      392  startup_stm32f40_41xxx.o(RESET)
    !!!main                                  0x08000188   Section        8  __main.o(!!!main)
    !!!scatter                               0x08000190   Section       52  __scatter.o(!!!scatter)
    !!handler_copy                           0x080001c4   Section       26  __scatter_copy.o(!!handler_copy)
    !!handler_zi                             0x080001e0   Section       28  __scatter_zi.o(!!handler_zi)
    .ARM.Collect$$_printf_percent$$00000000  0x080001fc   Section        0  _printf_percent.o(.ARM.Collect$$_printf_percent$$00000000)
    .ARM.Collect$$_printf_percent$$00000001  0x080001fc   Section        6  _printf_n.o(.ARM.Collect$$_printf_percent$$00000001)
    .ARM.Collect$$_printf_percent$$00000002  0x08000202   Section        6  _printf_p.o(.ARM.Collect$$_printf_percent$$00000002)
    .ARM.Collect$$_printf_percent$$00000003  0x08000208   Section        6  _printf_f.o(.ARM.Collect$$_printf_percent$$00000003)
    .ARM.Collect$$_printf_percent$$00000004  0x0800020e   Section        6  _printf_e.o(.ARM.Collect$$_printf_percent$$00000004)
    .ARM.Collect$$_printf_percent$$00000005  0x08000214   Section        6  _printf_g.o(.ARM.Collect$$_printf_percent$$00000005)
    .ARM.Collect$$_printf_percent$$00000006  0x0800021a   Section        6  _printf_a.o(.ARM.Collect$$_printf_percent$$00000006)
    .ARM.Collect$$_printf_percent$$00000007  0x08000220   Section       10  _printf_ll.o(.ARM.Collect$$_printf_percent$$00000007)
    .ARM.Collect$$_printf_percent$$00000008  0x0800022a   Section        6  _printf_i.o(.ARM.Collect$$_printf_percent$$00000008)
    .ARM.Collect$$_printf_percent$$00000009  0x08000230   Section        6  _printf_d.o(.ARM.Collect$$_printf_percent$$00000009)
    .ARM.Collect$$_printf_percent$$0000000A  0x08000236   Section        6  _printf_u.o(.ARM.Collect$$_printf_percent$$0000000A)
    .ARM.Collect$$_printf_percent$$0000000B  0x0800023c   Section        6  _printf_o.o(.ARM.Collect$$_printf_percent$$0000000B)
    .ARM.Collect$$_printf_percent$$0000000C  0x08000242   Section        6  _printf_x.o(.ARM.Collect$$_printf_percent$$0000000C)
    .ARM.Collect$$_printf_percent$$0000000D  0x08000248   Section        6  _printf_lli.o(.ARM.Collect$$_printf_percent$$0000000D)
    .ARM.Collect$$_printf_percent$$0000000E  0x0800024e   Section        6  _printf_lld.o(.ARM.Collect$$_printf_percent$$0000000E)
    .ARM.Collect$$_printf_percent$$0000000F  0x08000254   Section        6  _printf_llu.o(.ARM.Collect$$_printf_percent$$0000000F)
    .ARM.Collect$$_printf_percent$$00000010  0x0800025a   Section        6  _printf_llo.o(.ARM.Collect$$_printf_percent$$00000010)
    .ARM.Collect$$_printf_percent$$00000011  0x08000260   Section        6  _printf_llx.o(.ARM.Collect$$_printf_percent$$00000011)
    .ARM.Collect$$_printf_percent$$00000012  0x08000266   Section       10  _printf_l.o(.ARM.Collect$$_printf_percent$$00000012)
    .ARM.Collect$$_printf_percent$$00000013  0x08000270   Section        6  _printf_c.o(.ARM.Collect$$_printf_percent$$00000013)
    .ARM.Collect$$_printf_percent$$00000014  0x08000276   Section        6  _printf_s.o(.ARM.Collect$$_printf_percent$$00000014)
    .ARM.Collect$$_printf_percent$$00000015  0x0800027c   Section        6  _printf_lc.o(.ARM.Collect$$_printf_percent$$00000015)
    .ARM.Collect$$_printf_percent$$00000016  0x08000282   Section        6  _printf_ls.o(.ARM.Collect$$_printf_percent$$00000016)
    .ARM.Collect$$_printf_percent$$00000017  0x08000288   Section        4  _printf_percent_end.o(.ARM.Collect$$_printf_percent$$00000017)
    .ARM.Collect$$libinit$$00000000          0x0800028c   Section        2  libinit.o(.ARM.Collect$$libinit$$00000000)
    .ARM.Collect$$libinit$$00000001          0x0800028e   Section        4  libinit2.o(.ARM.Collect$$libinit$$00000001)
    .ARM.Collect$$libinit$$00000004          0x08000292   Section        0  libinit2.o(.ARM.Collect$$libinit$$00000004)
    .ARM.Collect$$libinit$$00000005          0x08000292   Section        8  libinit2.o(.ARM.Collect$$libinit$$00000005)
    .ARM.Collect$$libinit$$0000000A          0x0800029a   Section        0  libinit2.o(.ARM.Collect$$libinit$$0000000A)
    .ARM.Collect$$libinit$$0000000C          0x0800029a   Section        0  libinit2.o(.ARM.Collect$$libinit$$0000000C)
    .ARM.Collect$$libinit$$0000000E          0x0800029a   Section        0  libinit2.o(.ARM.Collect$$libinit$$0000000E)
    .ARM.Collect$$libinit$$0000000F          0x0800029a   Section        6  libinit2.o(.ARM.Collect$$libinit$$0000000F)
    .ARM.Collect$$libinit$$00000011          0x080002a0   Section        0  libinit2.o(.ARM.Collect$$libinit$$00000011)
    .ARM.Collect$$libinit$$00000012          0x080002a0   Section       12  libinit2.o(.ARM.Collect$$libinit$$00000012)
    .ARM.Collect$$libinit$$00000013          0x080002ac   Section        0  libinit2.o(.ARM.Collect$$libinit$$00000013)
    .ARM.Collect$$libinit$$00000015          0x080002ac   Section        0  libinit2.o(.ARM.Collect$$libinit$$00000015)
    .ARM.Collect$$libinit$$00000016          0x080002ac   Section       10  libinit2.o(.ARM.Collect$$libinit$$00000016)
    .ARM.Collect$$libinit$$00000017          0x080002b6   Section        0  libinit2.o(.ARM.Collect$$libinit$$00000017)
    .ARM.Collect$$libinit$$00000019          0x080002b6   Section        0  libinit2.o(.ARM.Collect$$libinit$$00000019)
    .ARM.Collect$$libinit$$0000001B          0x080002b6   Section        0  libinit2.o(.ARM.Collect$$libinit$$0000001B)
    .ARM.Collect$$libinit$$0000001D          0x080002b6   Section        0  libinit2.o(.ARM.Collect$$libinit$$0000001D)
    .ARM.Collect$$libinit$$0000001F          0x080002b6   Section        0  libinit2.o(.ARM.Collect$$libinit$$0000001F)
    .ARM.Collect$$libinit$$00000021          0x080002b6   Section        0  libinit2.o(.ARM.Collect$$libinit$$00000021)
    .ARM.Collect$$libinit$$00000023          0x080002b6   Section        0  libinit2.o(.ARM.Collect$$libinit$$00000023)
    .ARM.Collect$$libinit$$00000025          0x080002b6   Section        0  libinit2.o(.ARM.Collect$$libinit$$00000025)
    .ARM.Collect$$libinit$$0000002C          0x080002b6   Section        0  libinit2.o(.ARM.Collect$$libinit$$0000002C)
    .ARM.Collect$$libinit$$0000002E          0x080002b6   Section        0  libinit2.o(.ARM.Collect$$libinit$$0000002E)
    .ARM.Collect$$libinit$$00000030          0x080002b6   Section        0  libinit2.o(.ARM.Collect$$libinit$$00000030)
    .ARM.Collect$$libinit$$00000031          0x080002b6   Section        4  libinit2.o(.ARM.Collect$$libinit$$00000031)
    .ARM.Collect$$libinit$$00000032          0x080002ba   Section        0  libinit2.o(.ARM.Collect$$libinit$$00000032)
    .ARM.Collect$$libinit$$00000033          0x080002ba   Section        2  libinit2.o(.ARM.Collect$$libinit$$00000033)
    .ARM.Collect$$libshutdown$$00000000      0x080002bc   Section        2  libshutdown.o(.ARM.Collect$$libshutdown$$00000000)
    .ARM.Collect$$libshutdown$$00000001      0x080002be   Section        6  libshutdown2.o(.ARM.Collect$$libshutdown$$00000001)
    .ARM.Collect$$libshutdown$$00000002      0x080002c4   Section        0  libshutdown2.o(.ARM.Collect$$libshutdown$$00000002)
    .ARM.Collect$$libshutdown$$00000004      0x080002c4   Section        0  libshutdown2.o(.ARM.Collect$$libshutdown$$00000004)
    .ARM.Collect$$libshutdown$$00000007      0x080002c4   Section        0  libshutdown2.o(.ARM.Collect$$libshutdown$$00000007)
    .ARM.Collect$$libshutdown$$0000000A      0x080002c4   Section        0  libshutdown2.o(.ARM.Collect$$libshutdown$$0000000A)
    .ARM.Collect$$libshutdown$$0000000C      0x080002c4   Section        0  libshutdown2.o(.ARM.Collect$$libshutdown$$0000000C)
    .ARM.Collect$$libshutdown$$0000000F      0x080002c4   Section        0  libshutdown2.o(.ARM.Collect$$libshutdown$$0000000F)
    .ARM.Collect$$libshutdown$$00000010      0x080002c4   Section        2  libshutdown2.o(.ARM.Collect$$libshutdown$$00000010)
    .ARM.Collect$$rtentry$$00000000          0x080002c6   Section        0  __rtentry.o(.ARM.Collect$$rtentry$$00000000)
    .ARM.Collect$$rtentry$$00000002          0x080002c6   Section        0  __rtentry2.o(.ARM.Collect$$rtentry$$00000002)
    .ARM.Collect$$rtentry$$00000004          0x080002c6   Section        6  __rtentry4.o(.ARM.Collect$$rtentry$$00000004)
    .ARM.Collect$$rtentry$$00000009          0x080002cc   Section        0  __rtentry2.o(.ARM.Collect$$rtentry$$00000009)
    .ARM.Collect$$rtentry$$0000000A          0x080002cc   Section        4  __rtentry2.o(.ARM.Collect$$rtentry$$0000000A)
    .ARM.Collect$$rtentry$$0000000C          0x080002d0   Section        0  __rtentry2.o(.ARM.Collect$$rtentry$$0000000C)
    .ARM.Collect$$rtentry$$0000000D          0x080002d0   Section        8  __rtentry2.o(.ARM.Collect$$rtentry$$0000000D)
    .ARM.Collect$$rtexit$$00000000           0x080002d8   Section        2  rtexit.o(.ARM.Collect$$rtexit$$00000000)
    .ARM.Collect$$rtexit$$00000002           0x080002da   Section        0  rtexit2.o(.ARM.Collect$$rtexit$$00000002)
    .ARM.Collect$$rtexit$$00000003           0x080002da   Section        4  rtexit2.o(.ARM.Collect$$rtexit$$00000003)
    .ARM.Collect$$rtexit$$00000004           0x080002de   Section        6  rtexit2.o(.ARM.Collect$$rtexit$$00000004)
    .emb_text                                0x080002e4   Section        8  sdfatfs.o(.emb_text)
    $v0                                      0x080002e4   Number         0  sdfatfs.o(.emb_text)
    .emb_text                                0x080002ec   Section        0  maybetermalloc1.o(.emb_text)
    .text                                    0x080002ec   Section       64  startup_stm32f40_41xxx.o(.text)
    $v0                                      0x080002ec   Number         0  startup_stm32f40_41xxx.o(.text)
    .text                                    0x0800032c   Section       16  rt_ctype_table.o(.text)
    .text                                    0x0800033c   Section        0  h1_alloc.o(.text)
    .text                                    0x0800039a   Section        0  h1_free.o(.text)
    .text                                    0x080003e8   Section      238  lludivv7m.o(.text)
    .text                                    0x080004d6   Section       72  llsdiv.o(.text)
    .text                                    0x08000520   Section        0  c89vsnprintf.o(.text)
    .text                                    0x08000554   Section        0  __2sprintf.o(.text)
    .text                                    0x08000580   Section        0  _printf_pad.o(.text)
    .text                                    0x080005d0   Section        0  _printf_dec.o(.text)
    .text                                    0x08000648   Section        0  __printf_flags_ss_wp.o(.text)
    .text                                    0x080007d0   Section        0  aeabi_atexit.o(.text)
    .text                                    0x080007fe   Section      138  rt_memcpy_v6.o(.text)
    .text                                    0x08000888   Section       78  rt_memclr_w.o(.text)
    .text                                    0x080008d8   Section      128  strcmpv7m.o(.text)
    .text                                    0x08000958   Section        0  heapauxi.o(.text)
    .text                                    0x08000960   Section        0  init_aeabi.o(.text)
    .text                                    0x08000984   Section        8  rt_heap_descriptor_intlibspace.o(.text)
    .text                                    0x0800098c   Section        8  rt_locale_intlibspace.o(.text)
    .text                                    0x08000994   Section        8  rt_new_handler_addr_intlibspace.o(.text)
    .text                                    0x0800099c   Section        8  rt_ddtor_pointer_addr_intlibspace.o(.text)
    .text                                    0x080009a4   Section        0  hguard.o(.text)
    .text                                    0x080009a8   Section        0  init_alloc.o(.text)
    .text                                    0x08000a32   Section        0  h1_init.o(.text)
    .text                                    0x08000a40   Section        0  _printf_truncate.o(.text)
    .text                                    0x08000a64   Section        0  _printf_str.o(.text)
    .text                                    0x08000ab6   Section        0  _printf_intcommon.o(.text)
    .text                                    0x08000b68   Section        0  _printf_charcount.o(.text)
    .text                                    0x08000b90   Section        0  _printf_fp_dec.o(.text)
    _fp_digits                               0x08000b93   Thumb Code   432  _printf_fp_dec.o(.text)
    .text                                    0x08000fb0   Section        0  _printf_char_common.o(.text)
    _printf_input_char                       0x08000fb1   Thumb Code    10  _printf_char_common.o(.text)
    .text                                    0x08000fe0   Section        0  _sputc.o(.text)
    .text                                    0x08000fea   Section        0  _snputc.o(.text)
    .text                                    0x08000ffc   Section        0  _printf_wctomb.o(.text)
    .text                                    0x080010b8   Section        0  _printf_longlong_dec.o(.text)
    .text                                    0x08001134   Section        0  _printf_oct_int_ll.o(.text)
    _printf_longlong_oct_internal            0x08001135   Thumb Code     0  _printf_oct_int_ll.o(.text)
    .text                                    0x080011a4   Section        0  _printf_hex_int_ll_ptr.o(.text)
    _printf_hex_common                       0x080011a5   Thumb Code     0  _printf_hex_int_ll_ptr.o(.text)
    .text                                    0x08001238   Section        0  cxa_finalize.o(.text)
    .text                                    0x0800127a   Section        0  defsig_pvfn_outer.o(.text)
    .text                                    0x08001288   Section      100  rt_memcpy_w.o(.text)
    .text                                    0x080012ec   Section        0  arm_newhandler_noexceptions.o(.text)
    .text                                    0x080012f0   Section        8  libspace.o(.text)
    .text                                    0x080012f8   Section        0  h1_extend.o(.text)
    .text                                    0x0800132c   Section      138  lludiv10.o(.text)
    .text                                    0x080013b8   Section        0  _printf_fp_infnan.o(.text)
    .text                                    0x08001438   Section        0  _printf_char.o(.text)
    .text                                    0x08001464   Section        0  _printf_wchar.o(.text)
    .text                                    0x08001490   Section        0  bigflt0.o(.text)
    .text                                    0x08001574   Section        0  _wcrtomb.o(.text)
    .text                                    0x080015b4   Section        0  defsig_exit.o(.text)
    .text                                    0x080015be   Section        0  defsig_rtmem_outer.o(.text)
    .text                                    0x080015cc   Section        0  defsig_pvfn_inner.o(.text)
    .text                                    0x080015fc   Section        0  arm_exceptions_terminate.o(.text)
    .text                                    0x08001618   Section        0  arm_exceptions_globs.o(.text)
    [local to arm_exceptions_c]::__default_terminate_handler() 0x08001619   Thumb Code     6  arm_exceptions_globs.o(.text)
    .text                                    0x08001668   Section        0  sys_exit.o(.text)
    .text                                    0x08001674   Section        2  use_no_semi.o(.text)
    .text                                    0x08001676   Section        0  indicate_semi.o(.text)
    .text                                    0x08001676   Section       74  sys_stackheap_outer.o(.text)
    .text                                    0x080016c0   Section        8  rt_eh_globals_addr_intlibspace.o(.text)
    .text                                    0x080016c8   Section        0  exit.o(.text)
    .text                                    0x080016da   Section        0  abort.o(.text)
    .text                                    0x080016f0   Section        0  defsig_general.o(.text)
    .text                                    0x08001724   Section        0  defsig_rtmem_inner.o(.text)
    .text                                    0x08001774   Section        0  arm_exceptions_mem.o(.text)
    .text                                    0x080017b0   Section        0  sys_wrch.o(.text)
    .text                                    0x080017be   Section        0  defsig_abrt_outer.o(.text)
    .text                                    0x080017cc   Section        0  defsig_abrt_inner.o(.text)
    CL$$btod_d2e                             0x080017fc   Section       62  btod.o(CL$$btod_d2e)
    CL$$btod_d2e_denorm_low                  0x0800183a   Section       70  btod.o(CL$$btod_d2e_denorm_low)
    CL$$btod_d2e_norm_op1                    0x08001880   Section       96  btod.o(CL$$btod_d2e_norm_op1)
    CL$$btod_div_common                      0x080018e0   Section      824  btod.o(CL$$btod_div_common)
    CL$$btod_e2e                             0x08001c18   Section      220  btod.o(CL$$btod_e2e)
    CL$$btod_ediv                            0x08001cf4   Section       42  btod.o(CL$$btod_ediv)
    CL$$btod_emul                            0x08001d1e   Section       42  btod.o(CL$$btod_emul)
    CL$$btod_mult_common                     0x08001d48   Section      580  btod.o(CL$$btod_mult_common)
    i.ADC_DMA_Register                       0x08001f8c   Section        0  adc.o(i.ADC_DMA_Register)
    i.ADC_DMA_SearchChannel                  0x08002030   Section        0  adc.o(i.ADC_DMA_SearchChannel)
    ADC_DMA_SearchChannel                    0x08002031   Thumb Code    38  adc.o(i.ADC_DMA_SearchChannel)
    i.DMA_Cmd                                0x08002060   Section        0  stm32f4xx_dma.o(i.DMA_Cmd)
    i.DMA_DeInit                             0x08002074   Section        0  stm32f4xx_dma.o(i.DMA_DeInit)
    i.DMA_FlowControllerConfig               0x08002198   Section        0  stm32f4xx_dma.o(i.DMA_FlowControllerConfig)
    i.DMA_GetCmdStatus                       0x080021ac   Section        0  stm32f4xx_dma.o(i.DMA_GetCmdStatus)
    i.DMA_Init                               0x080021bc   Section        0  stm32f4xx_dma.o(i.DMA_Init)
    i.Delay_Init                             0x08002210   Section        0  delay.o(i.Delay_Init)
    i.EXTI0_IRQHandler                       0x08002254   Section        0  exti.o(i.EXTI0_IRQHandler)
    i.EXTI15_10_IRQHandler                   0x08002278   Section        0  exti.o(i.EXTI15_10_IRQHandler)
    i.EXTI1_IRQHandler                       0x08002318   Section        0  exti.o(i.EXTI1_IRQHandler)
    i.EXTI2_IRQHandler                       0x0800233c   Section        0  exti.o(i.EXTI2_IRQHandler)
    i.EXTI3_IRQHandler                       0x08002360   Section        0  exti.o(i.EXTI3_IRQHandler)
    i.EXTI4_IRQHandler                       0x08002384   Section        0  exti.o(i.EXTI4_IRQHandler)
    i.EXTI9_5_IRQHandler                     0x080023a8   Section        0  exti.o(i.EXTI9_5_IRQHandler)
    i.EXTI_ClearITPendingBit                 0x08002424   Section        0  stm32f4xx_exti.o(i.EXTI_ClearITPendingBit)
    i.EXTI_GetITStatus                       0x08002430   Section        0  stm32f4xx_exti.o(i.EXTI_GetITStatus)
    i.GPIO_GetPinNum                         0x08002444   Section        0  gpio.o(i.GPIO_GetPinNum)
    i.GPIO_GetPinSource                      0x08002454   Section        0  gpio.o(i.GPIO_GetPinSource)
    i.GPIO_Init                              0x08002466   Section        0  stm32f4xx_gpio.o(i.GPIO_Init)
    i.GPIO_PinAFConfig                       0x08002508   Section        0  stm32f4xx_gpio.o(i.GPIO_PinAFConfig)
    i.GPIOx_Init                             0x08002528   Section        0  gpio.o(i.GPIOx_Init)
    i.NVIC_Init                              0x08002624   Section        0  misc.o(i.NVIC_Init)
    i.NVIC_PriorityGroupConfig               0x08002688   Section        0  misc.o(i.NVIC_PriorityGroupConfig)
    i.NVIC_SetPriority                       0x0800269c   Section        0  delay.o(i.NVIC_SetPriority)
    NVIC_SetPriority                         0x0800269d   Thumb Code    32  delay.o(i.NVIC_SetPriority)
    i.PWM_Init                               0x080026bc   Section        0  pwm.o(i.PWM_Init)
    i.RCC_AHB1PeriphClockCmd                 0x08002778   Section        0  stm32f4xx_rcc.o(i.RCC_AHB1PeriphClockCmd)
    i.RCC_APB1PeriphClockCmd                 0x08002790   Section        0  stm32f4xx_rcc.o(i.RCC_APB1PeriphClockCmd)
    i.RCC_APB1PeriphResetCmd                 0x080027a8   Section        0  stm32f4xx_rcc.o(i.RCC_APB1PeriphResetCmd)
    i.RCC_APB2PeriphClockCmd                 0x080027c0   Section        0  stm32f4xx_rcc.o(i.RCC_APB2PeriphClockCmd)
    i.RCC_APB2PeriphResetCmd                 0x080027d8   Section        0  stm32f4xx_rcc.o(i.RCC_APB2PeriphResetCmd)
    i.RCC_GetClocksFreq                      0x080027f0   Section        0  stm32f4xx_rcc.o(i.RCC_GetClocksFreq)
    i.SDIO_ClearFlag                         0x08002880   Section        0  stm32f4xx_sdio.o(i.SDIO_ClearFlag)
    i.SDIO_DataConfig                        0x0800288c   Section        0  stm32f4xx_sdio.o(i.SDIO_DataConfig)
    i.SDIO_GetFlagStatus                     0x080028bc   Section        0  stm32f4xx_sdio.o(i.SDIO_GetFlagStatus)
    i.SDIO_GetPowerState                     0x080028d0   Section        0  stm32f4xx_sdio.o(i.SDIO_GetPowerState)
    i.SDIO_IRQHandler                        0x080028e0   Section        0  sdfatfs.o(i.SDIO_IRQHandler)
    i.SDIO_Init                              0x080028ec   Section        0  stm32f4xx_sdio.o(i.SDIO_Init)
    i.SDIO_SendCommand                       0x08002918   Section        0  stm32f4xx_sdio.o(i.SDIO_SendCommand)
    i.SDIO_SetPowerState                     0x08002940   Section        0  stm32f4xx_sdio.o(i.SDIO_SetPowerState)
    i.SPI_Cmd                                0x0800294c   Section        0  stm32f4xx_spi.o(i.SPI_Cmd)
    i.SPI_Init                               0x08002960   Section        0  stm32f4xx_spi.o(i.SPI_Init)
    i.SetSysClock                            0x08002998   Section        0  system_stm32f4xx.o(i.SetSysClock)
    SetSysClock                              0x08002999   Thumb Code   162  system_stm32f4xx.o(i.SetSysClock)
    i.SysTick_Handler                        0x08002a4c   Section        0  delay.o(i.SysTick_Handler)
    i.SystemCoreClockUpdate                  0x08002a5c   Section        0  system_stm32f4xx.o(i.SystemCoreClockUpdate)
    i.SystemInit                             0x08002ad4   Section        0  system_stm32f4xx.o(i.SystemInit)
    i.TIM1_UP_TIM10_IRQHandler               0x08002b30   Section        0  timer.o(i.TIM1_UP_TIM10_IRQHandler)
    i.TIM2_IRQHandler                        0x08002b7c   Section        0  timer.o(i.TIM2_IRQHandler)
    i.TIM3_IRQHandler                        0x08002ba8   Section        0  timer.o(i.TIM3_IRQHandler)
    i.TIM4_IRQHandler                        0x08002bd8   Section        0  timer.o(i.TIM4_IRQHandler)
    i.TIM5_IRQHandler                        0x08002c08   Section        0  timer.o(i.TIM5_IRQHandler)
    i.TIM6_DAC_IRQHandler                    0x08002c38   Section        0  timer.o(i.TIM6_DAC_IRQHandler)
    i.TIM7_IRQHandler                        0x08002c68   Section        0  timer.o(i.TIM7_IRQHandler)
    i.TIM8_UP_TIM13_IRQHandler               0x08002c98   Section        0  timer.o(i.TIM8_UP_TIM13_IRQHandler)
    i.TIM_ClearFlag                          0x08002ce4   Section        0  stm32f4xx_tim.o(i.TIM_ClearFlag)
    i.TIM_ClearITPendingBit                  0x08002cea   Section        0  stm32f4xx_tim.o(i.TIM_ClearITPendingBit)
    i.TIM_Cmd                                0x08002cf0   Section        0  stm32f4xx_tim.o(i.TIM_Cmd)
    i.TIM_CtrlPWMOutputs                     0x08002d04   Section        0  stm32f4xx_tim.o(i.TIM_CtrlPWMOutputs)
    i.TIM_DeInit                             0x08002d1c   Section        0  stm32f4xx_tim.o(i.TIM_DeInit)
    i.TIM_GetGPIO_AF                         0x08002e6c   Section        0  pwm.o(i.TIM_GetGPIO_AF)
    i.TIM_GetITStatus                        0x08002f6c   Section        0  stm32f4xx_tim.o(i.TIM_GetITStatus)
    i.TIM_ITConfig                           0x08002f84   Section        0  stm32f4xx_tim.o(i.TIM_ITConfig)
    i.TIM_OC1Init                            0x08002f94   Section        0  stm32f4xx_tim.o(i.TIM_OC1Init)
    i.TIM_OC1PreloadConfig                   0x08002ff4   Section        0  stm32f4xx_tim.o(i.TIM_OC1PreloadConfig)
    i.TIM_OC2Init                            0x08003000   Section        0  stm32f4xx_tim.o(i.TIM_OC2Init)
    i.TIM_OC2PreloadConfig                   0x08003080   Section        0  stm32f4xx_tim.o(i.TIM_OC2PreloadConfig)
    i.TIM_OC3Init                            0x08003094   Section        0  stm32f4xx_tim.o(i.TIM_OC3Init)
    i.TIM_OC3PreloadConfig                   0x08003110   Section        0  stm32f4xx_tim.o(i.TIM_OC3PreloadConfig)
    i.TIM_OC4Init                            0x0800311c   Section        0  stm32f4xx_tim.o(i.TIM_OC4Init)
    i.TIM_OC4PreloadConfig                   0x0800317c   Section        0  stm32f4xx_tim.o(i.TIM_OC4PreloadConfig)
    i.TIM_PrescalerConfig                    0x08003190   Section        0  stm32f4xx_tim.o(i.TIM_PrescalerConfig)
    i.TIM_SetAutoreload                      0x08003196   Section        0  stm32f4xx_tim.o(i.TIM_SetAutoreload)
    i.TIM_TimeBaseInit                       0x0800319c   Section        0  stm32f4xx_tim.o(i.TIM_TimeBaseInit)
    i.TIMx_OCxInit                           0x08003218   Section        0  pwm.o(i.TIMx_OCxInit)
    i.Timer_ClockCmd                         0x08003368   Section        0  timer.o(i.Timer_ClockCmd)
    i.Timer_SetInterrupt                     0x08003434   Section        0  timer.o(i.Timer_SetInterrupt)
    i.Timer_SetInterruptBase                 0x08003510   Section        0  timer.o(i.Timer_SetInterruptBase)
    i.Timer_SetInterruptTimeUpdate           0x0800366c   Section        0  timer.o(i.Timer_SetInterruptTimeUpdate)
    i.Timer_TimeToArrPsc                     0x08003744   Section        0  timer.o(i.Timer_TimeToArrPsc)
    Timer_TimeToArrPsc                       0x08003745   Thumb Code    56  timer.o(i.Timer_TimeToArrPsc)
    i.USART1_IRQHandler                      0x08003784   Section        0  hardwareserial.o(i.USART1_IRQHandler)
    i.USART2_IRQHandler                      0x08003790   Section        0  hardwareserial.o(i.USART2_IRQHandler)
    i.USART3_IRQHandler                      0x0800379c   Section        0  hardwareserial.o(i.USART3_IRQHandler)
    i.USART_ClearITPendingBit                0x080037a8   Section        0  stm32f4xx_usart.o(i.USART_ClearITPendingBit)
    i.USART_Cmd                              0x080037b4   Section        0  stm32f4xx_usart.o(i.USART_Cmd)
    i.USART_GetFlagStatus                    0x080037c8   Section        0  stm32f4xx_usart.o(i.USART_GetFlagStatus)
    i.USART_GetITStatus                      0x080037d6   Section        0  stm32f4xx_usart.o(i.USART_GetITStatus)
    i.USART_ITConfig                         0x08003814   Section        0  stm32f4xx_usart.o(i.USART_ITConfig)
    i.USART_Init                             0x08003844   Section        0  stm32f4xx_usart.o(i.USART_Init)
    i.USART_ReceiveData                      0x080038f0   Section        0  stm32f4xx_usart.o(i.USART_ReceiveData)
    i.USART_SendData                         0x080038f8   Section        0  stm32f4xx_usart.o(i.USART_SendData)
    i._Z10Backgroundv                        0x08003900   Section        0  page_about.o(i._Z10Backgroundv)
    Background()                             0x08003901   Thumb Code   324  page_about.o(i._Z10Backgroundv)
    i._Z10Create_BariiittPKc                 0x08003ad0   Section        0  page_displate.o(i._Z10Create_BariiittPKc)
    Create_Bar(int, int, int, unsigned short, unsigned short, const char*) 0x08003ad1   Thumb Code   104  page_displate.o(i._Z10Create_BariiittPKc)
    i._Z10alloc_poolP4JDECj                  0x08003b3c   Section        0  tjpgd.o(i._Z10alloc_poolP4JDECj)
    alloc_pool(JDEC*, unsigned)              0x08003b3d   Thumb Code    28  tjpgd.o(i._Z10alloc_poolP4JDECj)
    i._Z10block_idctPlPh                     0x08003b58   Section        0  tjpgd.o(i._Z10block_idctPlPh)
    block_idct(long*, unsigned char*)        0x08003b59   Thumb Code   484  tjpgd.o(i._Z10block_idctPlPh)
    i._Z10mcu_outputP4JDECPFjS0_PvP5JRECTEjj 0x08003d40   Section        0  tjpgd.o(i._Z10mcu_outputP4JDECPFjS0_PvP5JRECTEjj)
    mcu_output(JDEC*, unsigned(*)(JDEC*, void*, JRECT*), unsigned, unsigned) 0x08003d41   Thumb Code   786  tjpgd.o(i._Z10mcu_outputP4JDECPFjS0_PvP5JRECTEjj)
    i._Z11piclib_Fillttttt                   0x08004058   Section        0  piclib.o(i._Z11piclib_Fillttttt)
    i._Z12jpeg_in_funcP4JDECPhj              0x0800407c   Section        0  tjpgd.o(i._Z12jpeg_in_funcP4JDECPhj)
    i._Z13Create_Optionv                     0x080040a0   Section        0  page_master.o(i._Z13Create_Optionv)
    Create_Option()                          0x080040a1   Thumb Code    26  page_master.o(i._Z13Create_Optionv)
    i._Z13Create_Optionv                     0x080040cc   Section        0  page_level.o(i._Z13Create_Optionv)
    Create_Option()                          0x080040cd   Thumb Code    38  page_level.o(i._Z13Create_Optionv)
    i._Z13LCD_ReadPointtt                    0x080040fc   Section        0  piclib.o(i._Z13LCD_ReadPointtt)
    i._Z13Tone_Callbackjt                    0x08004100   Section        0  app_music.o(i._Z13Tone_Callbackjt)
    Tone_Callback(unsigned, unsigned short)  0x08004101   Thumb Code     8  app_music.o(i._Z13Tone_Callbackjt)
    i._Z13Update_Optionb                     0x08004108   Section        0  page_master.o(i._Z13Update_Optionb)
    Update_Option(bool)                      0x08004109   Thumb Code    64  page_master.o(i._Z13Update_Optionb)
    i._Z13Update_Optionh                     0x08004150   Section        0  page_level.o(i._Z13Update_Optionh)
    Update_Option(unsigned char)             0x08004151   Thumb Code   124  page_level.o(i._Z13Update_Optionh)
    i._Z15Button_CallBackP11ButtonEventi     0x080041d4   Section        0  button.o(i._Z15Button_CallBackP11ButtonEventi)
    i._Z17PageRegister_Gameh                 0x080041e4   Section        0  page_game.o(i._Z17PageRegister_Gameh)
    i._Z17piclib_Draw_Pointttt               0x08004210   Section        0  piclib.o(i._Z17piclib_Draw_Pointttt)
    i._Z17piclib_draw_hlinetttt              0x08004220   Section        0  piclib.o(i._Z17piclib_draw_hlinetttt)
    i._Z17piclib_fill_colorttttPt            0x08004238   Section        0  piclib.o(i._Z17piclib_fill_colorttttPt)
    i._Z17tone_TimerHandlerv                 0x08004258   Section        0  tone.o(i._Z17tone_TimerHandlerv)
    tone_TimerHandler()                      0x08004259   Thumb Code    50  tone.o(i._Z17tone_TimerHandlerv)
    i._Z18PageRegister_Abouth                0x08004294   Section        0  page_about.o(i._Z18PageRegister_Abouth)
    i._Z18PageRegister_Levelh                0x080042bc   Section        0  page_level.o(i._Z18PageRegister_Levelh)
    i._Z18create_huffman_tblP4JDECPKhj       0x080042e4   Section        0  tjpgd.o(i._Z18create_huffman_tblP4JDECPKhj)
    create_huffman_tbl(JDEC*, const unsigned char*, unsigned) 0x080042e5   Thumb Code   204  tjpgd.o(i._Z18create_huffman_tblP4JDECPKhj)
    i._Z18jpeg_out_func_fillP4JDECPvP5JRECT  0x080043b0   Section        0  tjpgd.o(i._Z18jpeg_out_func_fillP4JDECPvP5JRECT)
    i._Z19HAL_InterrputUpdatev               0x080043ec   Section        0  main.o(i._Z19HAL_InterrputUpdatev)
    HAL_InterrputUpdate()                    0x080043ed   Thumb Code    14  main.o(i._Z19HAL_InterrputUpdatev)
    i._Z19PageRegister_Masterh               0x080043fc   Section        0  page_master.o(i._Z19PageRegister_Masterh)
    i._Z19jpeg_out_func_pointP4JDECPvP5JRECT 0x08004424   Section        0  tjpgd.o(i._Z19jpeg_out_func_pointP4JDECPvP5JRECT)
    i._Z21PageRegister_Displateh             0x080044cc   Section        0  page_displate.o(i._Z21PageRegister_Displateh)
    i._Z4Exitv                               0x080044f4   Section        0  page_displate.o(i._Z4Exitv)
    Exit()                                   0x080044f5   Thumb Code    24  page_displate.o(i._Z4Exitv)
    i._Z4Exitv                               0x08004510   Section        0  page_master.o(i._Z4Exitv)
    Exit()                                   0x08004511   Thumb Code    24  page_master.o(i._Z4Exitv)
    i._Z4Exitv                               0x0800452c   Section        0  page_level.o(i._Z4Exitv)
    Exit()                                   0x0800452d   Thumb Code    24  page_level.o(i._Z4Exitv)
    i._Z4Exitv                               0x08004548   Section        0  page_about.o(i._Z4Exitv)
    Exit()                                   0x08004549   Thumb Code    24  page_about.o(i._Z4Exitv)
    i._Z4Exitv                               0x08004564   Section        0  page_game.o(i._Z4Exitv)
    Exit()                                   0x08004565   Thumb Code    24  page_game.o(i._Z4Exitv)
    i._Z4Loopv                               0x08004580   Section        0  page_game.o(i._Z4Loopv)
    Loop()                                   0x08004581   Thumb Code   136  page_game.o(i._Z4Loopv)
    i._Z4tonehj                              0x0800463c   Section        0  tone.o(i._Z4tonehj)
    i._Z4tonehjj                             0x080046e8   Section        0  tone.o(i._Z4tonehjj)
    i._Z5EventPvi                            0x0800471c   Section        0  page_displate.o(i._Z5EventPvi)
    Event(void*, int)                        0x0800471d   Thumb Code    32  page_displate.o(i._Z5EventPvi)
    i._Z5EventPvi                            0x08004754   Section        0  page_master.o(i._Z5EventPvi)
    Event(void*, int)                        0x08004755   Thumb Code   172  page_master.o(i._Z5EventPvi)
    i._Z5EventPvi                            0x08004854   Section        0  page_level.o(i._Z5EventPvi)
    Event(void*, int)                        0x08004855   Thumb Code   188  page_level.o(i._Z5EventPvi)
    i._Z5EventPvi                            0x08004944   Section        0  page_about.o(i._Z5EventPvi)
    Event(void*, int)                        0x08004945   Thumb Code   222  page_about.o(i._Z5EventPvi)
